
uC - project.elf:     file format elf32-littlearm

Sections:
Idx Name          Size      VMA       LMA       File off  Algn
  0 .isr_vector   00000188  08000000  08000000  00001000  2**0
                  CONTENTS, ALLOC, LOAD, READONLY, DATA
  1 .text         00003d40  08000188  08000188  00001188  2**2
                  CONTENTS, ALLOC, LOAD, READONLY, CODE
  2 .rodata       00000074  08003ec8  08003ec8  00004ec8  2**2
                  CONTENTS, ALLOC, LOAD, READONLY, DATA
  3 .ARM.extab    00000000  08003f3c  08003f3c  00005014  2**0
                  CONTENTS
  4 .ARM          00000000  08003f3c  08003f3c  00005014  2**0
                  CONTENTS
  5 .preinit_array 00000000  08003f3c  08003f3c  00005014  2**0
                  CONTENTS, ALLOC, LOAD, DATA
  6 .init_array   00000004  08003f3c  08003f3c  00004f3c  2**2
                  CONTENTS, ALLOC, LOAD, READONLY, DATA
  7 .fini_array   00000004  08003f40  08003f40  00004f40  2**2
                  CONTENTS, ALLOC, LOAD, READONLY, DATA
  8 .data         00000014  20000000  08003f44  00005000  2**2
                  CONTENTS, ALLOC, LOAD, DATA
  9 .ccmram       00000000  10000000  10000000  00005014  2**0
                  CONTENTS
 10 .bss          00001180  20000014  20000014  00005014  2**2
                  ALLOC
 11 ._user_heap_stack 00000604  20001194  20001194  00005014  2**0
                  ALLOC
 12 .ARM.attributes 00000030  00000000  00000000  00005014  2**0
                  CONTENTS, READONLY
 13 .debug_info   0000f6f0  00000000  00000000  00005044  2**0
                  CONTENTS, READONLY, DEBUGGING, OCTETS
 14 .debug_abbrev 00002ac8  00000000  00000000  00014734  2**0
                  CONTENTS, READONLY, DEBUGGING, OCTETS
 15 .debug_aranges 00000968  00000000  00000000  00017200  2**3
                  CONTENTS, READONLY, DEBUGGING, OCTETS
 16 .debug_rnglists 000006b4  00000000  00000000  00017b68  2**0
                  CONTENTS, READONLY, DEBUGGING, OCTETS
 17 .debug_macro  0001b775  00000000  00000000  0001821c  2**0
                  CONTENTS, READONLY, DEBUGGING, OCTETS
 18 .debug_line   0000d07b  00000000  00000000  00033991  2**0
                  CONTENTS, READONLY, DEBUGGING, OCTETS
 19 .debug_str    000a8391  00000000  00000000  00040a0c  2**0
                  CONTENTS, READONLY, DEBUGGING, OCTETS
 20 .comment      00000043  00000000  00000000  000e8d9d  2**0
                  CONTENTS, READONLY
 21 .debug_frame  0000210c  00000000  00000000  000e8de0  2**2
                  CONTENTS, READONLY, DEBUGGING, OCTETS
 22 .debug_line_str 000000c2  00000000  00000000  000eaeec  2**0
                  CONTENTS, READONLY, DEBUGGING, OCTETS

Disassembly of section .text:

08000188 <__do_global_dtors_aux>:
 8000188:	b510      	push	{r4, lr}
 800018a:	4c05      	ldr	r4, [pc, #20]	@ (80001a0 <__do_global_dtors_aux+0x18>)
 800018c:	7823      	ldrb	r3, [r4, #0]
 800018e:	b933      	cbnz	r3, 800019e <__do_global_dtors_aux+0x16>
 8000190:	4b04      	ldr	r3, [pc, #16]	@ (80001a4 <__do_global_dtors_aux+0x1c>)
 8000192:	b113      	cbz	r3, 800019a <__do_global_dtors_aux+0x12>
 8000194:	4804      	ldr	r0, [pc, #16]	@ (80001a8 <__do_global_dtors_aux+0x20>)
 8000196:	f3af 8000 	nop.w
 800019a:	2301      	movs	r3, #1
 800019c:	7023      	strb	r3, [r4, #0]
 800019e:	bd10      	pop	{r4, pc}
 80001a0:	20000014 	.word	0x20000014
 80001a4:	00000000 	.word	0x00000000
 80001a8:	08003eb0 	.word	0x08003eb0

080001ac <frame_dummy>:
 80001ac:	b508      	push	{r3, lr}
 80001ae:	4b03      	ldr	r3, [pc, #12]	@ (80001bc <frame_dummy+0x10>)
 80001b0:	b11b      	cbz	r3, 80001ba <frame_dummy+0xe>
 80001b2:	4903      	ldr	r1, [pc, #12]	@ (80001c0 <frame_dummy+0x14>)
 80001b4:	4803      	ldr	r0, [pc, #12]	@ (80001c4 <frame_dummy+0x18>)
 80001b6:	f3af 8000 	nop.w
 80001ba:	bd08      	pop	{r3, pc}
 80001bc:	00000000 	.word	0x00000000
 80001c0:	20000018 	.word	0x20000018
 80001c4:	08003eb0 	.word	0x08003eb0

080001c8 <CPU_IntDis>:
@               void  CPU_IntEn (void);
@********************************************************************************************************

.thumb_func
CPU_IntDis:
        CPSID   I
 80001c8:	b672      	cpsid	i
        BX      LR
 80001ca:	4770      	bx	lr

080001cc <CPU_IntEn>:

.thumb_func
CPU_IntEn:
        CPSIE   I
 80001cc:	b662      	cpsie	i
        BX      LR
 80001ce:	4770      	bx	lr

080001d0 <CPU_SR_Save>:
@                       CPSIE i
@********************************************************************************************************

.thumb_func
CPU_SR_Save:
        CPSID   I                               @ Cortex-M7 errata notice. See Note #2
 80001d0:	b672      	cpsid	i
        PUSH   {R1}
 80001d2:	b402      	push	{r1}
        MRS     R1, BASEPRI
 80001d4:	f3ef 8111 	mrs	r1, BASEPRI
        MSR     BASEPRI, R0
 80001d8:	f380 8811 	msr	BASEPRI, r0
        DSB
 80001dc:	f3bf 8f4f 	dsb	sy
        ISB
 80001e0:	f3bf 8f6f 	isb	sy
        MOV     R0, R1
 80001e4:	4608      	mov	r0, r1
        POP    {R1}
 80001e6:	bc02      	pop	{r1}
        CPSIE   I
 80001e8:	b662      	cpsie	i
        BX      LR
 80001ea:	4770      	bx	lr

080001ec <CPU_SR_Restore>:


.thumb_func
CPU_SR_Restore:
        CPSID   I                               @ Cortex-M7 errata notice. See Note #2
 80001ec:	b672      	cpsid	i
        MSR     BASEPRI, R0
 80001ee:	f380 8811 	msr	BASEPRI, r0
        DSB
 80001f2:	f3bf 8f4f 	dsb	sy
        ISB
 80001f6:	f3bf 8f6f 	isb	sy
        CPSIE   I
 80001fa:	b662      	cpsie	i
        BX      LR
 80001fc:	4770      	bx	lr

080001fe <CPU_WaitForInt>:
@ Argument(s) : none.
@********************************************************************************************************

.thumb_func
CPU_WaitForInt:
        WFI                                     @ Wait for interrupt
 80001fe:	bf30      	wfi
        BX      LR
 8000200:	4770      	bx	lr

08000202 <CPU_WaitForExcept>:
@ Argument(s) : none.
@********************************************************************************************************

.thumb_func
CPU_WaitForExcept:
        WFE                                     @ Wait for exception
 8000202:	bf20      	wfe
        BX      LR
 8000204:	4770      	bx	lr

08000206 <CPU_CntLeadZeros>:
@                   #define'd in 'cpu_cfg.h' or 'cpu.h'.
@********************************************************************************************************

.thumb_func
CPU_CntLeadZeros:
        CLZ     R0, R0                          @ Count leading zeros
 8000206:	fab0 f080 	clz	r0, r0
        BX      LR
 800020a:	4770      	bx	lr

0800020c <CPU_CntTrailZeros>:
@                   #define'd in 'cpu_cfg.h' or 'cpu.h'.
@********************************************************************************************************

.thumb_func
CPU_CntTrailZeros:
        RBIT    R0, R0                          @ Reverse bits
 800020c:	fa90 f0a0 	rbit	r0, r0
        CLZ     R0, R0                          @ Count trailing zeros
 8000210:	fab0 f080 	clz	r0, r0
        BX      LR
 8000214:	4770      	bx	lr

08000216 <CPU_RevBits>:
@                       'val's final bit  N       =  'val's original bit  0
@********************************************************************************************************

.thumb_func
CPU_RevBits:
        RBIT    R0, R0                          @ Reverse bits
 8000216:	fa90 f0a0 	rbit	r0, r0
        BX      LR
 800021a:	4770      	bx	lr

0800021c <OSStartHighRdy>:
@              h) Enable interrupts (tasks will run with interrupts enabled).
@********************************************************************************************************

.thumb_func
OSStartHighRdy:
    CPSID   I                                                   @ Prevent interruption during context switch
 800021c:	b672      	cpsid	i
    MOVW    R0, #:lower16:NVIC_SYSPRI14                         @ Set the PendSV exception priority
 800021e:	f64e 5022 	movw	r0, #60706	@ 0xed22
    MOVT    R0, #:upper16:NVIC_SYSPRI14
 8000222:	f2ce 0000 	movt	r0, #57344	@ 0xe000

    MOVW    R1, #:lower16:NVIC_PENDSV_PRI
 8000226:	f240 01ff 	movw	r1, #255	@ 0xff
    MOVT    R1, #:upper16:NVIC_PENDSV_PRI
 800022a:	f2c0 0100 	movt	r1, #0
    STRB    R1, [R0]
 800022e:	7001      	strb	r1, [r0, #0]

    MOVS    R0, #0                                              @ Set the PSP to 0 for initial context switch call
 8000230:	2000      	movs	r0, #0
    MSR     PSP, R0
 8000232:	f380 8809 	msr	PSP, r0

    MOVW    R0, #:lower16:OS_CPU_ExceptStkBase                  @ Initialize the MSP to the OS_CPU_ExceptStkBase
 8000236:	f240 40d8 	movw	r0, #1240	@ 0x4d8
    MOVT    R0, #:upper16:OS_CPU_ExceptStkBase
 800023a:	f2c2 0000 	movt	r0, #8192	@ 0x2000
    LDR     R1, [R0]
 800023e:	6801      	ldr	r1, [r0, #0]
    MSR     MSP, R1
 8000240:	f381 8808 	msr	MSP, r1

    BL      OSTaskSwHook                                        @ Call OSTaskSwHook() for FPU Push & Pop
 8000244:	f000 fac0 	bl	80007c8 <OSTaskSwHook>

    MOVW    R0, #:lower16:OSPrioCur                             @ OSPrioCur   = OSPrioHighRdy;
 8000248:	f640 50c8 	movw	r0, #3528	@ 0xdc8
    MOVT    R0, #:upper16:OSPrioCur
 800024c:	f2c2 0000 	movt	r0, #8192	@ 0x2000
    MOVW    R1, #:lower16:OSPrioHighRdy
 8000250:	f640 51c9 	movw	r1, #3529	@ 0xdc9
    MOVT    R1, #:upper16:OSPrioHighRdy
 8000254:	f2c2 0100 	movt	r1, #8192	@ 0x2000
    LDRB    R2, [R1]
 8000258:	780a      	ldrb	r2, [r1, #0]
    STRB    R2, [R0]
 800025a:	7002      	strb	r2, [r0, #0]

    MOVW    R0, #:lower16:OSTCBCurPtr                           @ OSTCBCurPtr = OSTCBHighRdyPtr;
 800025c:	f241 1088 	movw	r0, #4488	@ 0x1188
    MOVT    R0, #:upper16:OSTCBCurPtr
 8000260:	f2c2 0000 	movt	r0, #8192	@ 0x2000
    MOVW    R1, #:lower16:OSTCBHighRdyPtr
 8000264:	f241 118c 	movw	r1, #4492	@ 0x118c
    MOVT    R1, #:upper16:OSTCBHighRdyPtr
 8000268:	f2c2 0100 	movt	r1, #8192	@ 0x2000
    LDR     R2, [R1]
 800026c:	680a      	ldr	r2, [r1, #0]
    STR     R2, [R0]
 800026e:	6002      	str	r2, [r0, #0]

    LDR     R0, [R2]                                            @ R0 is new process SP; SP = OSTCBHighRdyPtr->StkPtr;
 8000270:	6810      	ldr	r0, [r2, #0]
    MSR     PSP, R0                                             @ Load PSP with new process SP
 8000272:	f380 8809 	msr	PSP, r0

    MRS     R0, CONTROL
 8000276:	f3ef 8014 	mrs	r0, CONTROL
    ORR     R0, R0, #2
 800027a:	f040 0002 	orr.w	r0, r0, #2
    BIC     R0, R0, #4                                          @ Clear FPCA bit to indicate FPU is not in use
 800027e:	f020 0004 	bic.w	r0, r0, #4
    MSR     CONTROL, R0
 8000282:	f380 8814 	msr	CONTROL, r0
    ISB                                                         @ Sync instruction stream
 8000286:	f3bf 8f6f 	isb	sy

    LDMFD    SP!, {R4-R11, LR}                                  @ Restore r4-11, lr from new process stack
 800028a:	e8bd 4ff0 	ldmia.w	sp!, {r4, r5, r6, r7, r8, r9, sl, fp, lr}
    LDMFD    SP!, {R0-R3}                                       @ Restore r0, r3
 800028e:	bc0f      	pop	{r0, r1, r2, r3}
    LDMFD    SP!, {R12, LR}                                     @ Load R12 and LR
 8000290:	e8bd 5000 	ldmia.w	sp!, {ip, lr}
    LDMFD    SP!, {R1, R2}                                      @ Load PC and discard xPSR
 8000294:	bc06      	pop	{r1, r2}
    CPSIE    I
 8000296:	b662      	cpsie	i
    BX       R1
 8000298:	4708      	bx	r1

0800029a <OSCtxSw>:

.thumb_func
OSCtxSw:
.thumb_func
OSIntCtxSw:
    LDR     R0, =NVIC_INT_CTRL                                  @ Trigger the PendSV exception (causes context switch)
 800029a:	4825      	ldr	r0, [pc, #148]	@ (8000330 <OS_CPU_PendSVHandler+0x8c>)
    LDR     R1, =NVIC_PENDSVSET
 800029c:	f04f 5180 	mov.w	r1, #268435456	@ 0x10000000
    STR     R1, [R0]
 80002a0:	6001      	str	r1, [r0, #0]
    BX      LR
 80002a2:	4770      	bx	lr

080002a4 <OS_CPU_PendSVHandler>:
@                  CPSIE i
@********************************************************************************************************

.thumb_func
OS_CPU_PendSVHandler:
    CPSID   I                                                   @ Cortex-M7 errata notice. See Note #5
 80002a4:	b672      	cpsid	i
    MOVW    R2, #:lower16:OS_KA_BASEPRI_Boundary                @ Set BASEPRI priority level required for exception preemption
 80002a6:	f240 42dc 	movw	r2, #1244	@ 0x4dc
    MOVT    R2, #:upper16:OS_KA_BASEPRI_Boundary
 80002aa:	f2c2 0200 	movt	r2, #8192	@ 0x2000
    LDR     R1, [R2]
 80002ae:	6811      	ldr	r1, [r2, #0]
    MSR     BASEPRI, R1
 80002b0:	f381 8811 	msr	BASEPRI, r1
    DSB
 80002b4:	f3bf 8f4f 	dsb	sy
    ISB
 80002b8:	f3bf 8f6f 	isb	sy
    CPSIE   I
 80002bc:	b662      	cpsie	i

    MRS     R0, PSP                                             @ PSP is process stack pointer
 80002be:	f3ef 8009 	mrs	r0, PSP
#if (defined(__VFP_FP__) && !defined(__SOFTFP__))
                                                                @ Push high vfp registers if the task is using the FPU context
    TST       R14, #0x10
 80002c2:	f01e 0f10 	tst.w	lr, #16
    IT        EQ
 80002c6:	bf08      	it	eq
    VSTMDBEQ  R0!, {S16-S31}
 80002c8:	ed20 8a10 	vstmdbeq	r0!, {s16-s31}
#endif

    STMFD   R0!, {R4-R11, R14}                                  @ Save remaining regs r4-11, R14 on process stack
 80002cc:	e920 4ff0 	stmdb	r0!, {r4, r5, r6, r7, r8, r9, sl, fp, lr}

    MOVW    R5, #:lower16:OSTCBCurPtr                           @ OSTCBCurPtr->StkPtr = SP;
 80002d0:	f241 1588 	movw	r5, #4488	@ 0x1188
    MOVT    R5, #:upper16:OSTCBCurPtr
 80002d4:	f2c2 0500 	movt	r5, #8192	@ 0x2000
    LDR     R1, [R5]
 80002d8:	6829      	ldr	r1, [r5, #0]
    STR     R0, [R1]                                            @ R0 is SP of process being switched out
 80002da:	6008      	str	r0, [r1, #0]

                                                                @ At this point, entire context of process has been saved
    MOV     R4, LR                                              @ Save LR exc_return value
 80002dc:	4674      	mov	r4, lr
    BL      OSTaskSwHook                                        @ Call OSTaskSwHook() for FPU Push & Pop
 80002de:	f000 fa73 	bl	80007c8 <OSTaskSwHook>

    MOVW    R0, #:lower16:OSPrioCur                             @ OSPrioCur   = OSPrioHighRdy;
 80002e2:	f640 50c8 	movw	r0, #3528	@ 0xdc8
    MOVT    R0, #:upper16:OSPrioCur
 80002e6:	f2c2 0000 	movt	r0, #8192	@ 0x2000
    MOVW    R1, #:lower16:OSPrioHighRdy
 80002ea:	f640 51c9 	movw	r1, #3529	@ 0xdc9
    MOVT    R1, #:upper16:OSPrioHighRdy
 80002ee:	f2c2 0100 	movt	r1, #8192	@ 0x2000
    LDRB    R2, [R1]
 80002f2:	780a      	ldrb	r2, [r1, #0]
    STRB    R2, [R0]
 80002f4:	7002      	strb	r2, [r0, #0]

    MOVW    R1, #:lower16:OSTCBHighRdyPtr                       @ OSTCBCurPtr = OSTCBHighRdyPtr;
 80002f6:	f241 118c 	movw	r1, #4492	@ 0x118c
    MOVT    R1, #:upper16:OSTCBHighRdyPtr
 80002fa:	f2c2 0100 	movt	r1, #8192	@ 0x2000
    LDR     R2, [R1]
 80002fe:	680a      	ldr	r2, [r1, #0]
    STR     R2, [R5]
 8000300:	602a      	str	r2, [r5, #0]

    ORR     LR,  R4, #0x04                                      @ Ensure exception return uses process stack
 8000302:	f044 0e04 	orr.w	lr, r4, #4
    LDR     R0, [R2]                                            @ R0 is new process SP; SP = OSTCBHighRdyPtr->StkPtr;
 8000306:	6810      	ldr	r0, [r2, #0]
    LDMFD   R0!, {R4-R11, R14}                                  @ Restore r4-11, R14 from new process stack
 8000308:	e8b0 4ff0 	ldmia.w	r0!, {r4, r5, r6, r7, r8, r9, sl, fp, lr}

#if (defined(__VFP_FP__) && !defined(__SOFTFP__))
                                                                @ Pop the high vfp registers if the next task is using the FPU context
    TST       R14, #0x10
 800030c:	f01e 0f10 	tst.w	lr, #16
    IT        EQ
 8000310:	bf08      	it	eq
    VLDMIAEQ  R0!, {S16-S31}
 8000312:	ecb0 8a10 	vldmiaeq	r0!, {s16-s31}
#endif

    MSR     PSP, R0                                             @ Load PSP with new process SP
 8000316:	f380 8809 	msr	PSP, r0

    MOV     R2, #0                                              @ Restore BASEPRI priority level to 0
 800031a:	f04f 0200 	mov.w	r2, #0
    CPSID   I                                                   @ Cortex-M7 errata notice. See Note #5
 800031e:	b672      	cpsid	i
    MSR     BASEPRI, R2
 8000320:	f382 8811 	msr	BASEPRI, r2
    DSB
 8000324:	f3bf 8f4f 	dsb	sy
    ISB
 8000328:	f3bf 8f6f 	isb	sy
    CPSIE   I
 800032c:	b662      	cpsie	i
    BX      LR                                                  @ Exception return will restore remaining context
 800032e:	4770      	bx	lr
    LDR     R0, =NVIC_INT_CTRL                                  @ Trigger the PendSV exception (causes context switch)
 8000330:	e000ed04 	.word	0xe000ed04

08000334 <main>:


uint8_t tx_data[7];

int main(void)
{
 8000334:	b580      	push	{r7, lr}
 8000336:	b08c      	sub	sp, #48	@ 0x30
 8000338:	af0a      	add	r7, sp, #40	@ 0x28
    OS_ERR  err;

    HAL_Init();
 800033a:	f002 fe3b 	bl	8002fb4 <HAL_Init>

    SystemClkCfg();
 800033e:	f000 f841 	bl	80003c4 <SystemClkCfg>

    OSInit(&err);
 8000342:	1dbb      	adds	r3, r7, #6
 8000344:	4618      	mov	r0, r3
 8000346:	f000 faa3 	bl	8000890 <OSInit>
                     (CPU_CHAR     *)"Initial Task",
                     (OS_TASK_PTR   )initialTask,
                     (void         *)0u,
                     (OS_PRIO       )INITIAL_TASK_PRIO,
                     (CPU_STK      *)&initialTaskStk[0u],
                     (CPU_STK_SIZE  )initialTaskStk[INITIAL_TASK_STK_SIZE / 10u],
 800034a:	4b10      	ldr	r3, [pc, #64]	@ (800038c <main+0x58>)
 800034c:	6e5b      	ldr	r3, [r3, #100]	@ 0x64
    OSTaskCreate(    (OS_TCB       *)&initialTaskTCB,
 800034e:	1dba      	adds	r2, r7, #6
 8000350:	9208      	str	r2, [sp, #32]
 8000352:	2203      	movs	r2, #3
 8000354:	9207      	str	r2, [sp, #28]
 8000356:	2200      	movs	r2, #0
 8000358:	9206      	str	r2, [sp, #24]
 800035a:	2200      	movs	r2, #0
 800035c:	9205      	str	r2, [sp, #20]
 800035e:	2200      	movs	r2, #0
 8000360:	9204      	str	r2, [sp, #16]
 8000362:	f44f 7280 	mov.w	r2, #256	@ 0x100
 8000366:	9203      	str	r2, [sp, #12]
 8000368:	9302      	str	r3, [sp, #8]
 800036a:	4b08      	ldr	r3, [pc, #32]	@ (800038c <main+0x58>)
 800036c:	9301      	str	r3, [sp, #4]
 800036e:	2305      	movs	r3, #5
 8000370:	9300      	str	r3, [sp, #0]
 8000372:	2300      	movs	r3, #0
 8000374:	4a06      	ldr	r2, [pc, #24]	@ (8000390 <main+0x5c>)
 8000376:	4907      	ldr	r1, [pc, #28]	@ (8000394 <main+0x60>)
 8000378:	4807      	ldr	r0, [pc, #28]	@ (8000398 <main+0x64>)
 800037a:	f001 fc97 	bl	8001cac <OSTaskCreate>
                     (OS_TICK       )0u,
                     (void         *)0u,
                     (OS_OPT        )(OS_OPT_TASK_STK_CHK | OS_OPT_TASK_STK_CLR),
                     (OS_ERR       *)&err);

    OSStart(&err);
 800037e:	1dbb      	adds	r3, r7, #6
 8000380:	4618      	mov	r0, r3
 8000382:	f000 fc31 	bl	8000be8 <OSStart>

    while (DEF_TRUE) {
 8000386:	bf00      	nop
 8000388:	e7fd      	b.n	8000386 <main+0x52>
 800038a:	bf00      	nop
 800038c:	200000d8 	.word	0x200000d8
 8000390:	0800039d 	.word	0x0800039d
 8000394:	08003ec8 	.word	0x08003ec8
 8000398:	20000030 	.word	0x20000030

0800039c <initialTask>:
}



static void initialTask (void *p_arg)
{
 800039c:	b580      	push	{r7, lr}
 800039e:	b084      	sub	sp, #16
 80003a0:	af00      	add	r7, sp, #0
 80003a2:	6078      	str	r0, [r7, #4]
//                     (OS_MSG_QTY    )0u,
//                     (OS_TICK       )0u,
//                     (void         *)0u,
//                     (OS_OPT        )(OS_OPT_TASK_STK_CHK | OS_OPT_TASK_STK_CLR),
//                     (OS_ERR       *)&err);
    BSP_LED_Init(LED6);
 80003a4:	2003      	movs	r0, #3
 80003a6:	f000 f86f 	bl	8000488 <BSP_LED_Init>

    while (DEF_TRUE) {
        BSP_LED_Toggle(LED6);
 80003aa:	2003      	movs	r0, #3
 80003ac:	f000 f8e4 	bl	8000578 <BSP_LED_Toggle>
        OSTimeDly(100u, OS_OPT_TIME_PERIODIC , &err);
 80003b0:	f107 030e 	add.w	r3, r7, #14
 80003b4:	461a      	mov	r2, r3
 80003b6:	2108      	movs	r1, #8
 80003b8:	2064      	movs	r0, #100	@ 0x64
 80003ba:	f002 fa5b 	bl	8002874 <OSTimeDly>
        BSP_LED_Toggle(LED6);
 80003be:	bf00      	nop
 80003c0:	e7f3      	b.n	80003aa <initialTask+0xe>
	...

080003c4 <SystemClkCfg>:
//static void le_sensores (void){
//
//}

static void SystemClkCfg (void)
{
 80003c4:	b580      	push	{r7, lr}
 80003c6:	b094      	sub	sp, #80	@ 0x50
 80003c8:	af00      	add	r7, sp, #0
    RCC_OscInitTypeDef RCC_OscInitStruct;
    RCC_ClkInitTypeDef RCC_ClkInitStruct;

    HAL_RCC_DeInit();
 80003ca:	f003 fca9 	bl	8003d20 <HAL_RCC_DeInit>
    __HAL_RCC_PWR_CLK_ENABLE();
 80003ce:	2300      	movs	r3, #0
 80003d0:	60bb      	str	r3, [r7, #8]
 80003d2:	4b2a      	ldr	r3, [pc, #168]	@ (800047c <SystemClkCfg+0xb8>)
 80003d4:	6c1b      	ldr	r3, [r3, #64]	@ 0x40
 80003d6:	4a29      	ldr	r2, [pc, #164]	@ (800047c <SystemClkCfg+0xb8>)
 80003d8:	f043 5380 	orr.w	r3, r3, #268435456	@ 0x10000000
 80003dc:	6413      	str	r3, [r2, #64]	@ 0x40
 80003de:	4b27      	ldr	r3, [pc, #156]	@ (800047c <SystemClkCfg+0xb8>)
 80003e0:	6c1b      	ldr	r3, [r3, #64]	@ 0x40
 80003e2:	f003 5380 	and.w	r3, r3, #268435456	@ 0x10000000
 80003e6:	60bb      	str	r3, [r7, #8]
 80003e8:	68bb      	ldr	r3, [r7, #8]
    __HAL_PWR_VOLTAGESCALING_CONFIG(PWR_REGULATOR_VOLTAGE_SCALE1);
 80003ea:	2300      	movs	r3, #0
 80003ec:	607b      	str	r3, [r7, #4]
 80003ee:	4b24      	ldr	r3, [pc, #144]	@ (8000480 <SystemClkCfg+0xbc>)
 80003f0:	681b      	ldr	r3, [r3, #0]
 80003f2:	4a23      	ldr	r2, [pc, #140]	@ (8000480 <SystemClkCfg+0xbc>)
 80003f4:	f443 4380 	orr.w	r3, r3, #16384	@ 0x4000
 80003f8:	6013      	str	r3, [r2, #0]
 80003fa:	4b21      	ldr	r3, [pc, #132]	@ (8000480 <SystemClkCfg+0xbc>)
 80003fc:	681b      	ldr	r3, [r3, #0]
 80003fe:	f403 4380 	and.w	r3, r3, #16384	@ 0x4000
 8000402:	607b      	str	r3, [r7, #4]
 8000404:	687b      	ldr	r3, [r7, #4]
    RCC_OscInitStruct.OscillatorType = RCC_OSCILLATORTYPE_HSE;
 8000406:	2301      	movs	r3, #1
 8000408:	623b      	str	r3, [r7, #32]
    RCC_OscInitStruct.HSEState = RCC_HSE_ON;
 800040a:	2301      	movs	r3, #1
 800040c:	627b      	str	r3, [r7, #36]	@ 0x24
    RCC_OscInitStruct.PLL.PLLState = RCC_PLL_ON;
 800040e:	2302      	movs	r3, #2
 8000410:	63bb      	str	r3, [r7, #56]	@ 0x38
    RCC_OscInitStruct.PLL.PLLSource = RCC_PLLSOURCE_HSE;
 8000412:	f44f 0380 	mov.w	r3, #4194304	@ 0x400000
 8000416:	63fb      	str	r3, [r7, #60]	@ 0x3c
    RCC_OscInitStruct.PLL.PLLM = 25u;
 8000418:	2319      	movs	r3, #25
 800041a:	643b      	str	r3, [r7, #64]	@ 0x40
    RCC_OscInitStruct.PLL.PLLN = 336u;
 800041c:	f44f 73a8 	mov.w	r3, #336	@ 0x150
 8000420:	647b      	str	r3, [r7, #68]	@ 0x44
    RCC_OscInitStruct.PLL.PLLP = 2u;
 8000422:	2302      	movs	r3, #2
 8000424:	64bb      	str	r3, [r7, #72]	@ 0x48
    RCC_OscInitStruct.PLL.PLLQ = 7u;
 8000426:	2307      	movs	r3, #7
 8000428:	64fb      	str	r3, [r7, #76]	@ 0x4c
    HAL_RCC_OscConfig(&RCC_OscInitStruct);
 800042a:	f107 0320 	add.w	r3, r7, #32
 800042e:	4618      	mov	r0, r3
 8000430:	f003 f8cc 	bl	80035cc <HAL_RCC_OscConfig>
    RCC_ClkInitStruct.ClockType     = RCC_CLOCKTYPE_SYSCLK |
 8000434:	230f      	movs	r3, #15
 8000436:	60fb      	str	r3, [r7, #12]
                                      RCC_CLOCKTYPE_HCLK   |
                                      RCC_CLOCKTYPE_PCLK1  |
                                      RCC_CLOCKTYPE_PCLK2;
    RCC_ClkInitStruct.SYSCLKSource = RCC_SYSCLKSOURCE_PLLCLK;
 8000438:	2302      	movs	r3, #2
 800043a:	613b      	str	r3, [r7, #16]
    RCC_ClkInitStruct.AHBCLKDivider = RCC_SYSCLK_DIV1;
 800043c:	2300      	movs	r3, #0
 800043e:	617b      	str	r3, [r7, #20]
    RCC_ClkInitStruct.APB1CLKDivider = RCC_HCLK_DIV4;
 8000440:	f44f 53a0 	mov.w	r3, #5120	@ 0x1400
 8000444:	61bb      	str	r3, [r7, #24]
    RCC_ClkInitStruct.APB2CLKDivider = RCC_HCLK_DIV2;
 8000446:	f44f 5380 	mov.w	r3, #4096	@ 0x1000
 800044a:	61fb      	str	r3, [r7, #28]
    HAL_RCC_ClockConfig(&RCC_ClkInitStruct, FLASH_LATENCY_5);
 800044c:	f107 030c 	add.w	r3, r7, #12
 8000450:	2105      	movs	r1, #5
 8000452:	4618      	mov	r0, r3
 8000454:	f003 fad0 	bl	80039f8 <HAL_RCC_ClockConfig>

    if (HAL_GetREVID() == 0x1001)
 8000458:	f002 fdfe 	bl	8003058 <HAL_GetREVID>
 800045c:	4603      	mov	r3, r0
 800045e:	f241 0201 	movw	r2, #4097	@ 0x1001
 8000462:	4293      	cmp	r3, r2
 8000464:	d105      	bne.n	8000472 <SystemClkCfg+0xae>
    {
        __HAL_FLASH_PREFETCH_BUFFER_ENABLE();
 8000466:	4b07      	ldr	r3, [pc, #28]	@ (8000484 <SystemClkCfg+0xc0>)
 8000468:	681b      	ldr	r3, [r3, #0]
 800046a:	4a06      	ldr	r2, [pc, #24]	@ (8000484 <SystemClkCfg+0xc0>)
 800046c:	f443 7380 	orr.w	r3, r3, #256	@ 0x100
 8000470:	6013      	str	r3, [r2, #0]
    }
}
 8000472:	bf00      	nop
 8000474:	3750      	adds	r7, #80	@ 0x50
 8000476:	46bd      	mov	sp, r7
 8000478:	bd80      	pop	{r7, pc}
 800047a:	bf00      	nop
 800047c:	40023800 	.word	0x40023800
 8000480:	40007000 	.word	0x40007000
 8000484:	40023c00 	.word	0x40023c00

08000488 <BSP_LED_Init>:
  *     @arg LED3
  *     @arg LED5
  *     @arg LED6
  */
void BSP_LED_Init(Led_TypeDef Led)
{
 8000488:	b580      	push	{r7, lr}
 800048a:	b08c      	sub	sp, #48	@ 0x30
 800048c:	af00      	add	r7, sp, #0
 800048e:	4603      	mov	r3, r0
 8000490:	71fb      	strb	r3, [r7, #7]
  GPIO_InitTypeDef  GPIO_InitStruct;

  /* Enable the GPIO_LED Clock */
  LEDx_GPIO_CLK_ENABLE(Led);
 8000492:	79fb      	ldrb	r3, [r7, #7]
 8000494:	2b00      	cmp	r3, #0
 8000496:	d10e      	bne.n	80004b6 <BSP_LED_Init+0x2e>
 8000498:	2300      	movs	r3, #0
 800049a:	61bb      	str	r3, [r7, #24]
 800049c:	4b33      	ldr	r3, [pc, #204]	@ (800056c <BSP_LED_Init+0xe4>)
 800049e:	6b1b      	ldr	r3, [r3, #48]	@ 0x30
 80004a0:	4a32      	ldr	r2, [pc, #200]	@ (800056c <BSP_LED_Init+0xe4>)
 80004a2:	f043 0308 	orr.w	r3, r3, #8
 80004a6:	6313      	str	r3, [r2, #48]	@ 0x30
 80004a8:	4b30      	ldr	r3, [pc, #192]	@ (800056c <BSP_LED_Init+0xe4>)
 80004aa:	6b1b      	ldr	r3, [r3, #48]	@ 0x30
 80004ac:	f003 0308 	and.w	r3, r3, #8
 80004b0:	61bb      	str	r3, [r7, #24]
 80004b2:	69bb      	ldr	r3, [r7, #24]
 80004b4:	e034      	b.n	8000520 <BSP_LED_Init+0x98>
 80004b6:	79fb      	ldrb	r3, [r7, #7]
 80004b8:	2b01      	cmp	r3, #1
 80004ba:	d10e      	bne.n	80004da <BSP_LED_Init+0x52>
 80004bc:	2300      	movs	r3, #0
 80004be:	617b      	str	r3, [r7, #20]
 80004c0:	4b2a      	ldr	r3, [pc, #168]	@ (800056c <BSP_LED_Init+0xe4>)
 80004c2:	6b1b      	ldr	r3, [r3, #48]	@ 0x30
 80004c4:	4a29      	ldr	r2, [pc, #164]	@ (800056c <BSP_LED_Init+0xe4>)
 80004c6:	f043 0308 	orr.w	r3, r3, #8
 80004ca:	6313      	str	r3, [r2, #48]	@ 0x30
 80004cc:	4b27      	ldr	r3, [pc, #156]	@ (800056c <BSP_LED_Init+0xe4>)
 80004ce:	6b1b      	ldr	r3, [r3, #48]	@ 0x30
 80004d0:	f003 0308 	and.w	r3, r3, #8
 80004d4:	617b      	str	r3, [r7, #20]
 80004d6:	697b      	ldr	r3, [r7, #20]
 80004d8:	e022      	b.n	8000520 <BSP_LED_Init+0x98>
 80004da:	79fb      	ldrb	r3, [r7, #7]
 80004dc:	2b02      	cmp	r3, #2
 80004de:	d10e      	bne.n	80004fe <BSP_LED_Init+0x76>
 80004e0:	2300      	movs	r3, #0
 80004e2:	613b      	str	r3, [r7, #16]
 80004e4:	4b21      	ldr	r3, [pc, #132]	@ (800056c <BSP_LED_Init+0xe4>)
 80004e6:	6b1b      	ldr	r3, [r3, #48]	@ 0x30
 80004e8:	4a20      	ldr	r2, [pc, #128]	@ (800056c <BSP_LED_Init+0xe4>)
 80004ea:	f043 0308 	orr.w	r3, r3, #8
 80004ee:	6313      	str	r3, [r2, #48]	@ 0x30
 80004f0:	4b1e      	ldr	r3, [pc, #120]	@ (800056c <BSP_LED_Init+0xe4>)
 80004f2:	6b1b      	ldr	r3, [r3, #48]	@ 0x30
 80004f4:	f003 0308 	and.w	r3, r3, #8
 80004f8:	613b      	str	r3, [r7, #16]
 80004fa:	693b      	ldr	r3, [r7, #16]
 80004fc:	e010      	b.n	8000520 <BSP_LED_Init+0x98>
 80004fe:	79fb      	ldrb	r3, [r7, #7]
 8000500:	2b03      	cmp	r3, #3
 8000502:	d10d      	bne.n	8000520 <BSP_LED_Init+0x98>
 8000504:	2300      	movs	r3, #0
 8000506:	60fb      	str	r3, [r7, #12]
 8000508:	4b18      	ldr	r3, [pc, #96]	@ (800056c <BSP_LED_Init+0xe4>)
 800050a:	6b1b      	ldr	r3, [r3, #48]	@ 0x30
 800050c:	4a17      	ldr	r2, [pc, #92]	@ (800056c <BSP_LED_Init+0xe4>)
 800050e:	f043 0308 	orr.w	r3, r3, #8
 8000512:	6313      	str	r3, [r2, #48]	@ 0x30
 8000514:	4b15      	ldr	r3, [pc, #84]	@ (800056c <BSP_LED_Init+0xe4>)
 8000516:	6b1b      	ldr	r3, [r3, #48]	@ 0x30
 8000518:	f003 0308 	and.w	r3, r3, #8
 800051c:	60fb      	str	r3, [r7, #12]
 800051e:	68fb      	ldr	r3, [r7, #12]

  /* Configure the GPIO_LED pin */
  GPIO_InitStruct.Pin = GPIO_PIN[Led];
 8000520:	79fb      	ldrb	r3, [r7, #7]
 8000522:	4a13      	ldr	r2, [pc, #76]	@ (8000570 <BSP_LED_Init+0xe8>)
 8000524:	f832 3013 	ldrh.w	r3, [r2, r3, lsl #1]
 8000528:	61fb      	str	r3, [r7, #28]
  GPIO_InitStruct.Mode = GPIO_MODE_OUTPUT_PP;
 800052a:	2301      	movs	r3, #1
 800052c:	623b      	str	r3, [r7, #32]
  GPIO_InitStruct.Pull = GPIO_PULLUP;
 800052e:	2301      	movs	r3, #1
 8000530:	627b      	str	r3, [r7, #36]	@ 0x24
  GPIO_InitStruct.Speed = GPIO_SPEED_FAST;
 8000532:	2302      	movs	r3, #2
 8000534:	62bb      	str	r3, [r7, #40]	@ 0x28

  HAL_GPIO_Init(GPIO_PORT[Led], &GPIO_InitStruct);
 8000536:	79fb      	ldrb	r3, [r7, #7]
 8000538:	4a0e      	ldr	r2, [pc, #56]	@ (8000574 <BSP_LED_Init+0xec>)
 800053a:	f852 3023 	ldr.w	r3, [r2, r3, lsl #2]
 800053e:	f107 021c 	add.w	r2, r7, #28
 8000542:	4611      	mov	r1, r2
 8000544:	4618      	mov	r0, r3
 8000546:	f002 fe79 	bl	800323c <HAL_GPIO_Init>

  HAL_GPIO_WritePin(GPIO_PORT[Led], GPIO_PIN[Led], GPIO_PIN_RESET);
 800054a:	79fb      	ldrb	r3, [r7, #7]
 800054c:	4a09      	ldr	r2, [pc, #36]	@ (8000574 <BSP_LED_Init+0xec>)
 800054e:	f852 0023 	ldr.w	r0, [r2, r3, lsl #2]
 8000552:	79fb      	ldrb	r3, [r7, #7]
 8000554:	4a06      	ldr	r2, [pc, #24]	@ (8000570 <BSP_LED_Init+0xe8>)
 8000556:	f832 3013 	ldrh.w	r3, [r2, r3, lsl #1]
 800055a:	2200      	movs	r2, #0
 800055c:	4619      	mov	r1, r3
 800055e:	f003 f809 	bl	8003574 <HAL_GPIO_WritePin>
}
 8000562:	bf00      	nop
 8000564:	3730      	adds	r7, #48	@ 0x30
 8000566:	46bd      	mov	sp, r7
 8000568:	bd80      	pop	{r7, pc}
 800056a:	bf00      	nop
 800056c:	40023800 	.word	0x40023800
 8000570:	08003ed8 	.word	0x08003ed8
 8000574:	20000000 	.word	0x20000000

08000578 <BSP_LED_Toggle>:
  *     @arg LED3
  *     @arg LED5
  *     @arg LED6
  */
void BSP_LED_Toggle(Led_TypeDef Led)
{
 8000578:	b580      	push	{r7, lr}
 800057a:	b082      	sub	sp, #8
 800057c:	af00      	add	r7, sp, #0
 800057e:	4603      	mov	r3, r0
 8000580:	71fb      	strb	r3, [r7, #7]
  HAL_GPIO_TogglePin(GPIO_PORT[Led], GPIO_PIN[Led]);
 8000582:	79fb      	ldrb	r3, [r7, #7]
 8000584:	4a07      	ldr	r2, [pc, #28]	@ (80005a4 <BSP_LED_Toggle+0x2c>)
 8000586:	f852 2023 	ldr.w	r2, [r2, r3, lsl #2]
 800058a:	79fb      	ldrb	r3, [r7, #7]
 800058c:	4906      	ldr	r1, [pc, #24]	@ (80005a8 <BSP_LED_Toggle+0x30>)
 800058e:	f831 3013 	ldrh.w	r3, [r1, r3, lsl #1]
 8000592:	4619      	mov	r1, r3
 8000594:	4610      	mov	r0, r2
 8000596:	f003 f806 	bl	80035a6 <HAL_GPIO_TogglePin>
}
 800059a:	bf00      	nop
 800059c:	3708      	adds	r7, #8
 800059e:	46bd      	mov	sp, r7
 80005a0:	bd80      	pop	{r7, pc}
 80005a2:	bf00      	nop
 80005a4:	20000000 	.word	0x20000000
 80005a8:	08003ed8 	.word	0x08003ed8

080005ac <OSIdleTaskHook>:
* Note(s)    : None.
*********************************************************************************************************
*/

void  OSIdleTaskHook (void)
{
 80005ac:	b580      	push	{r7, lr}
 80005ae:	af00      	add	r7, sp, #0
#if OS_CFG_APP_HOOKS_EN > 0u
    if (OS_AppIdleTaskHookPtr != (OS_APP_HOOK_VOID)0) {
 80005b0:	4b04      	ldr	r3, [pc, #16]	@ (80005c4 <OSIdleTaskHook+0x18>)
 80005b2:	681b      	ldr	r3, [r3, #0]
 80005b4:	2b00      	cmp	r3, #0
 80005b6:	d002      	beq.n	80005be <OSIdleTaskHook+0x12>
        (*OS_AppIdleTaskHookPtr)();
 80005b8:	4b02      	ldr	r3, [pc, #8]	@ (80005c4 <OSIdleTaskHook+0x18>)
 80005ba:	681b      	ldr	r3, [r3, #0]
 80005bc:	4798      	blx	r3
    }
#endif
}
 80005be:	bf00      	nop
 80005c0:	bd80      	pop	{r7, pc}
 80005c2:	bf00      	nop
 80005c4:	20000cfc 	.word	0x20000cfc

080005c8 <OSInitHook>:
*                 b) Set bits ASPEN and LSPEN in FPCCR register.
*********************************************************************************************************
*/

void  OSInitHook (void)
{
 80005c8:	b480      	push	{r7}
 80005ca:	b083      	sub	sp, #12
 80005cc:	af00      	add	r7, sp, #0
#if (OS_CPU_ARM_FP_EN > 0u)
    CPU_INT32U   reg_val;
#endif
                                                                /* 8-byte align the ISR stack.                          */
    OS_CPU_ExceptStkBase = (CPU_STK *)(OSCfg_ISRStkBasePtr + OSCfg_ISRStkSize);
 80005ce:	4b11      	ldr	r3, [pc, #68]	@ (8000614 <OSInitHook+0x4c>)
 80005d0:	681a      	ldr	r2, [r3, #0]
 80005d2:	4b11      	ldr	r3, [pc, #68]	@ (8000618 <OSInitHook+0x50>)
 80005d4:	681b      	ldr	r3, [r3, #0]
 80005d6:	009b      	lsls	r3, r3, #2
 80005d8:	4413      	add	r3, r2
 80005da:	4a10      	ldr	r2, [pc, #64]	@ (800061c <OSInitHook+0x54>)
 80005dc:	6013      	str	r3, [r2, #0]
    OS_CPU_ExceptStkBase = (CPU_STK *)((CPU_STK)(OS_CPU_ExceptStkBase) & 0xFFFFFFF8);
 80005de:	4b0f      	ldr	r3, [pc, #60]	@ (800061c <OSInitHook+0x54>)
 80005e0:	681b      	ldr	r3, [r3, #0]
 80005e2:	f023 0307 	bic.w	r3, r3, #7
 80005e6:	461a      	mov	r2, r3
 80005e8:	4b0c      	ldr	r3, [pc, #48]	@ (800061c <OSInitHook+0x54>)
 80005ea:	601a      	str	r2, [r3, #0]

#if (OS_CPU_ARM_FP_EN > 0u)
    reg_val = CPU_REG_FP_FPCCR;                                 /* Check the floating point mode.                       */
 80005ec:	4b0c      	ldr	r3, [pc, #48]	@ (8000620 <OSInitHook+0x58>)
 80005ee:	681b      	ldr	r3, [r3, #0]
 80005f0:	607b      	str	r3, [r7, #4]
    if ((reg_val & CPU_REG_FPCCR_LAZY_STK) != CPU_REG_FPCCR_LAZY_STK) {
 80005f2:	687b      	ldr	r3, [r7, #4]
 80005f4:	f003 4340 	and.w	r3, r3, #3221225472	@ 0xc0000000
 80005f8:	f1b3 4f40 	cmp.w	r3, #3221225472	@ 0xc0000000
 80005fc:	d001      	beq.n	8000602 <OSInitHook+0x3a>
        while (1u) {                                            /* See Note (1).                                        */
 80005fe:	bf00      	nop
 8000600:	e7fd      	b.n	80005fe <OSInitHook+0x36>
            ;
        }
    }
#endif
                                                                /* Set BASEPRI boundary from the configuration.         */
    OS_KA_BASEPRI_Boundary = (CPU_INT32U)(CPU_CFG_KA_IPL_BOUNDARY << (8u - CPU_CFG_NVIC_PRIO_BITS));
 8000602:	4b08      	ldr	r3, [pc, #32]	@ (8000624 <OSInitHook+0x5c>)
 8000604:	2240      	movs	r2, #64	@ 0x40
 8000606:	601a      	str	r2, [r3, #0]
}
 8000608:	bf00      	nop
 800060a:	370c      	adds	r7, #12
 800060c:	46bd      	mov	sp, r7
 800060e:	f85d 7b04 	ldr.w	r7, [sp], #4
 8000612:	4770      	bx	lr
 8000614:	08003eec 	.word	0x08003eec
 8000618:	08003ef0 	.word	0x08003ef0
 800061c:	200004d8 	.word	0x200004d8
 8000620:	e000ef34 	.word	0xe000ef34
 8000624:	200004dc 	.word	0x200004dc

08000628 <OSStatTaskHook>:
* Note(s)    : None.
*********************************************************************************************************
*/

void  OSStatTaskHook (void)
{
 8000628:	b580      	push	{r7, lr}
 800062a:	af00      	add	r7, sp, #0
#if OS_CFG_APP_HOOKS_EN > 0u
    if (OS_AppStatTaskHookPtr != (OS_APP_HOOK_VOID)0) {
 800062c:	4b04      	ldr	r3, [pc, #16]	@ (8000640 <OSStatTaskHook+0x18>)
 800062e:	681b      	ldr	r3, [r3, #0]
 8000630:	2b00      	cmp	r3, #0
 8000632:	d002      	beq.n	800063a <OSStatTaskHook+0x12>
        (*OS_AppStatTaskHookPtr)();
 8000634:	4b02      	ldr	r3, [pc, #8]	@ (8000640 <OSStatTaskHook+0x18>)
 8000636:	681b      	ldr	r3, [r3, #0]
 8000638:	4798      	blx	r3
    }
#endif
}
 800063a:	bf00      	nop
 800063c:	bd80      	pop	{r7, pc}
 800063e:	bf00      	nop
 8000640:	20000d00 	.word	0x20000d00

08000644 <OSTaskCreateHook>:
* Note(s)    : None.
*********************************************************************************************************
*/

void  OSTaskCreateHook (OS_TCB  *p_tcb)
{
 8000644:	b580      	push	{r7, lr}
 8000646:	b082      	sub	sp, #8
 8000648:	af00      	add	r7, sp, #0
 800064a:	6078      	str	r0, [r7, #4]
#if OS_CFG_APP_HOOKS_EN > 0u
    if (OS_AppTaskCreateHookPtr != (OS_APP_HOOK_TCB)0) {
 800064c:	4b05      	ldr	r3, [pc, #20]	@ (8000664 <OSTaskCreateHook+0x20>)
 800064e:	681b      	ldr	r3, [r3, #0]
 8000650:	2b00      	cmp	r3, #0
 8000652:	d003      	beq.n	800065c <OSTaskCreateHook+0x18>
        (*OS_AppTaskCreateHookPtr)(p_tcb);
 8000654:	4b03      	ldr	r3, [pc, #12]	@ (8000664 <OSTaskCreateHook+0x20>)
 8000656:	681b      	ldr	r3, [r3, #0]
 8000658:	6878      	ldr	r0, [r7, #4]
 800065a:	4798      	blx	r3
    }
#else
    (void)p_tcb;                                                /* Prevent compiler warning                             */
#endif
}
 800065c:	bf00      	nop
 800065e:	3708      	adds	r7, #8
 8000660:	46bd      	mov	sp, r7
 8000662:	bd80      	pop	{r7, pc}
 8000664:	20000cf0 	.word	0x20000cf0

08000668 <OSTaskDelHook>:
* Note(s)    : None.
*********************************************************************************************************
*/

void  OSTaskDelHook (OS_TCB  *p_tcb)
{
 8000668:	b580      	push	{r7, lr}
 800066a:	b082      	sub	sp, #8
 800066c:	af00      	add	r7, sp, #0
 800066e:	6078      	str	r0, [r7, #4]
#if OS_CFG_APP_HOOKS_EN > 0u
    if (OS_AppTaskDelHookPtr != (OS_APP_HOOK_TCB)0) {
 8000670:	4b05      	ldr	r3, [pc, #20]	@ (8000688 <OSTaskDelHook+0x20>)
 8000672:	681b      	ldr	r3, [r3, #0]
 8000674:	2b00      	cmp	r3, #0
 8000676:	d003      	beq.n	8000680 <OSTaskDelHook+0x18>
        (*OS_AppTaskDelHookPtr)(p_tcb);
 8000678:	4b03      	ldr	r3, [pc, #12]	@ (8000688 <OSTaskDelHook+0x20>)
 800067a:	681b      	ldr	r3, [r3, #0]
 800067c:	6878      	ldr	r0, [r7, #4]
 800067e:	4798      	blx	r3
    }
#else
    (void)p_tcb;                                                /* Prevent compiler warning                             */
#endif
}
 8000680:	bf00      	nop
 8000682:	3708      	adds	r7, #8
 8000684:	46bd      	mov	sp, r7
 8000686:	bd80      	pop	{r7, pc}
 8000688:	20000cf4 	.word	0x20000cf4

0800068c <OSTaskReturnHook>:
* Note(s)    : None.
*********************************************************************************************************
*/

void  OSTaskReturnHook (OS_TCB  *p_tcb)
{
 800068c:	b580      	push	{r7, lr}
 800068e:	b082      	sub	sp, #8
 8000690:	af00      	add	r7, sp, #0
 8000692:	6078      	str	r0, [r7, #4]
#if OS_CFG_APP_HOOKS_EN > 0u
    if (OS_AppTaskReturnHookPtr != (OS_APP_HOOK_TCB)0) {
 8000694:	4b05      	ldr	r3, [pc, #20]	@ (80006ac <OSTaskReturnHook+0x20>)
 8000696:	681b      	ldr	r3, [r3, #0]
 8000698:	2b00      	cmp	r3, #0
 800069a:	d003      	beq.n	80006a4 <OSTaskReturnHook+0x18>
        (*OS_AppTaskReturnHookPtr)(p_tcb);
 800069c:	4b03      	ldr	r3, [pc, #12]	@ (80006ac <OSTaskReturnHook+0x20>)
 800069e:	681b      	ldr	r3, [r3, #0]
 80006a0:	6878      	ldr	r0, [r7, #4]
 80006a2:	4798      	blx	r3
    }
#else
    (void)p_tcb;                                                /* Prevent compiler warning                             */
#endif
}
 80006a4:	bf00      	nop
 80006a6:	3708      	adds	r7, #8
 80006a8:	46bd      	mov	sp, r7
 80006aa:	bd80      	pop	{r7, pc}
 80006ac:	20000cf8 	.word	0x20000cf8

080006b0 <OSTaskStkInit>:
                         void          *p_arg,
                         CPU_STK       *p_stk_base,
                         CPU_STK       *p_stk_limit,
                         CPU_STK_SIZE   stk_size,
                         OS_OPT         opt)
{
 80006b0:	b480      	push	{r7}
 80006b2:	b087      	sub	sp, #28
 80006b4:	af00      	add	r7, sp, #0
 80006b6:	60f8      	str	r0, [r7, #12]
 80006b8:	60b9      	str	r1, [r7, #8]
 80006ba:	607a      	str	r2, [r7, #4]
 80006bc:	603b      	str	r3, [r7, #0]
    CPU_STK    *p_stk;


    (void)opt;                                                  /* 'opt' is not used, prevent warning                   */

    p_stk = &p_stk_base[stk_size];                              /* Load stack pointer                                   */
 80006be:	6a3b      	ldr	r3, [r7, #32]
 80006c0:	009b      	lsls	r3, r3, #2
 80006c2:	687a      	ldr	r2, [r7, #4]
 80006c4:	4413      	add	r3, r2
 80006c6:	617b      	str	r3, [r7, #20]
                                                                /* Align the stack to 8-bytes.                          */
    p_stk = (CPU_STK *)((CPU_STK)(p_stk) & 0xFFFFFFF8u);
 80006c8:	697b      	ldr	r3, [r7, #20]
 80006ca:	f023 0307 	bic.w	r3, r3, #7
 80006ce:	617b      	str	r3, [r7, #20]
                                                                /* Registers stacked as if auto-saved on exception      */
    *(--p_stk) = (CPU_STK)0x01000000u;                          /* xPSR                                                 */
 80006d0:	697b      	ldr	r3, [r7, #20]
 80006d2:	3b04      	subs	r3, #4
 80006d4:	617b      	str	r3, [r7, #20]
 80006d6:	697b      	ldr	r3, [r7, #20]
 80006d8:	f04f 7280 	mov.w	r2, #16777216	@ 0x1000000
 80006dc:	601a      	str	r2, [r3, #0]
    *(--p_stk) = (CPU_STK)p_task;                               /* Entry Point                                          */
 80006de:	697b      	ldr	r3, [r7, #20]
 80006e0:	3b04      	subs	r3, #4
 80006e2:	617b      	str	r3, [r7, #20]
 80006e4:	68fa      	ldr	r2, [r7, #12]
 80006e6:	697b      	ldr	r3, [r7, #20]
 80006e8:	601a      	str	r2, [r3, #0]
    *(--p_stk) = (CPU_STK)OS_TaskReturn;                        /* R14 (LR)                                             */
 80006ea:	697b      	ldr	r3, [r7, #20]
 80006ec:	3b04      	subs	r3, #4
 80006ee:	617b      	str	r3, [r7, #20]
 80006f0:	4a34      	ldr	r2, [pc, #208]	@ (80007c4 <OSTaskStkInit+0x114>)
 80006f2:	697b      	ldr	r3, [r7, #20]
 80006f4:	601a      	str	r2, [r3, #0]
    *(--p_stk) = (CPU_STK)0x12121212u;                          /* R12                                                  */
 80006f6:	697b      	ldr	r3, [r7, #20]
 80006f8:	3b04      	subs	r3, #4
 80006fa:	617b      	str	r3, [r7, #20]
 80006fc:	697b      	ldr	r3, [r7, #20]
 80006fe:	f04f 3212 	mov.w	r2, #303174162	@ 0x12121212
 8000702:	601a      	str	r2, [r3, #0]
    *(--p_stk) = (CPU_STK)0x03030303u;                          /* R3                                                   */
 8000704:	697b      	ldr	r3, [r7, #20]
 8000706:	3b04      	subs	r3, #4
 8000708:	617b      	str	r3, [r7, #20]
 800070a:	697b      	ldr	r3, [r7, #20]
 800070c:	f04f 3203 	mov.w	r2, #50529027	@ 0x3030303
 8000710:	601a      	str	r2, [r3, #0]
    *(--p_stk) = (CPU_STK)0x02020202u;                          /* R2                                                   */
 8000712:	697b      	ldr	r3, [r7, #20]
 8000714:	3b04      	subs	r3, #4
 8000716:	617b      	str	r3, [r7, #20]
 8000718:	697b      	ldr	r3, [r7, #20]
 800071a:	f04f 3202 	mov.w	r2, #33686018	@ 0x2020202
 800071e:	601a      	str	r2, [r3, #0]
    *(--p_stk) = (CPU_STK)p_stk_limit;                          /* R1                                                   */
 8000720:	697b      	ldr	r3, [r7, #20]
 8000722:	3b04      	subs	r3, #4
 8000724:	617b      	str	r3, [r7, #20]
 8000726:	683a      	ldr	r2, [r7, #0]
 8000728:	697b      	ldr	r3, [r7, #20]
 800072a:	601a      	str	r2, [r3, #0]
    *(--p_stk) = (CPU_STK)p_arg;                                /* R0 : argument                                        */
 800072c:	697b      	ldr	r3, [r7, #20]
 800072e:	3b04      	subs	r3, #4
 8000730:	617b      	str	r3, [r7, #20]
 8000732:	68ba      	ldr	r2, [r7, #8]
 8000734:	697b      	ldr	r3, [r7, #20]
 8000736:	601a      	str	r2, [r3, #0]
    *(--p_stk) = (CPU_STK)0xFFFFFFFDuL;                         /* R14: EXEC_RETURN; See Note 5                         */
 8000738:	697b      	ldr	r3, [r7, #20]
 800073a:	3b04      	subs	r3, #4
 800073c:	617b      	str	r3, [r7, #20]
 800073e:	697b      	ldr	r3, [r7, #20]
 8000740:	f06f 0202 	mvn.w	r2, #2
 8000744:	601a      	str	r2, [r3, #0]
                                                                /* Remaining registers saved on process stack           */
    *(--p_stk) = (CPU_STK)0x11111111uL;                         /* R11                                                  */
 8000746:	697b      	ldr	r3, [r7, #20]
 8000748:	3b04      	subs	r3, #4
 800074a:	617b      	str	r3, [r7, #20]
 800074c:	697b      	ldr	r3, [r7, #20]
 800074e:	f04f 3211 	mov.w	r2, #286331153	@ 0x11111111
 8000752:	601a      	str	r2, [r3, #0]
    *(--p_stk) = (CPU_STK)0x10101010uL;                         /* R10                                                  */
 8000754:	697b      	ldr	r3, [r7, #20]
 8000756:	3b04      	subs	r3, #4
 8000758:	617b      	str	r3, [r7, #20]
 800075a:	697b      	ldr	r3, [r7, #20]
 800075c:	f04f 3210 	mov.w	r2, #269488144	@ 0x10101010
 8000760:	601a      	str	r2, [r3, #0]
    *(--p_stk) = (CPU_STK)0x09090909uL;                         /* R9                                                   */
 8000762:	697b      	ldr	r3, [r7, #20]
 8000764:	3b04      	subs	r3, #4
 8000766:	617b      	str	r3, [r7, #20]
 8000768:	697b      	ldr	r3, [r7, #20]
 800076a:	f04f 3209 	mov.w	r2, #151587081	@ 0x9090909
 800076e:	601a      	str	r2, [r3, #0]
    *(--p_stk) = (CPU_STK)0x08080808uL;                         /* R8                                                   */
 8000770:	697b      	ldr	r3, [r7, #20]
 8000772:	3b04      	subs	r3, #4
 8000774:	617b      	str	r3, [r7, #20]
 8000776:	697b      	ldr	r3, [r7, #20]
 8000778:	f04f 3208 	mov.w	r2, #134744072	@ 0x8080808
 800077c:	601a      	str	r2, [r3, #0]
    *(--p_stk) = (CPU_STK)0x07070707uL;                         /* R7                                                   */
 800077e:	697b      	ldr	r3, [r7, #20]
 8000780:	3b04      	subs	r3, #4
 8000782:	617b      	str	r3, [r7, #20]
 8000784:	697b      	ldr	r3, [r7, #20]
 8000786:	f04f 3207 	mov.w	r2, #117901063	@ 0x7070707
 800078a:	601a      	str	r2, [r3, #0]
    *(--p_stk) = (CPU_STK)0x06060606uL;                         /* R6                                                   */
 800078c:	697b      	ldr	r3, [r7, #20]
 800078e:	3b04      	subs	r3, #4
 8000790:	617b      	str	r3, [r7, #20]
 8000792:	697b      	ldr	r3, [r7, #20]
 8000794:	f04f 3206 	mov.w	r2, #101058054	@ 0x6060606
 8000798:	601a      	str	r2, [r3, #0]
    *(--p_stk) = (CPU_STK)0x05050505uL;                         /* R5                                                   */
 800079a:	697b      	ldr	r3, [r7, #20]
 800079c:	3b04      	subs	r3, #4
 800079e:	617b      	str	r3, [r7, #20]
 80007a0:	697b      	ldr	r3, [r7, #20]
 80007a2:	f04f 3205 	mov.w	r2, #84215045	@ 0x5050505
 80007a6:	601a      	str	r2, [r3, #0]
    *(--p_stk) = (CPU_STK)0x04040404uL;                         /* R4                                                   */
 80007a8:	697b      	ldr	r3, [r7, #20]
 80007aa:	3b04      	subs	r3, #4
 80007ac:	617b      	str	r3, [r7, #20]
 80007ae:	697b      	ldr	r3, [r7, #20]
 80007b0:	f04f 3204 	mov.w	r2, #67372036	@ 0x4040404
 80007b4:	601a      	str	r2, [r3, #0]

    return (p_stk);
 80007b6:	697b      	ldr	r3, [r7, #20]
}
 80007b8:	4618      	mov	r0, r3
 80007ba:	371c      	adds	r7, #28
 80007bc:	46bd      	mov	sp, r7
 80007be:	f85d 7b04 	ldr.w	r7, [sp], #4
 80007c2:	4770      	bx	lr
 80007c4:	08002271 	.word	0x08002271

080007c8 <OSTaskSwHook>:
*                 to the task being switched out (i.e. the preempted task).
*********************************************************************************************************
*/

void  OSTaskSwHook (void)
{
 80007c8:	b580      	push	{r7, lr}
 80007ca:	b082      	sub	sp, #8
 80007cc:	af00      	add	r7, sp, #0
#if (OS_CFG_TASK_STK_REDZONE_EN > 0u)
    CPU_BOOLEAN  stk_status;
#endif

#if OS_CFG_APP_HOOKS_EN > 0u
    if (OS_AppTaskSwHookPtr != (OS_APP_HOOK_VOID)0) {
 80007ce:	4b17      	ldr	r3, [pc, #92]	@ (800082c <OSTaskSwHook+0x64>)
 80007d0:	681b      	ldr	r3, [r3, #0]
 80007d2:	2b00      	cmp	r3, #0
 80007d4:	d002      	beq.n	80007dc <OSTaskSwHook+0x14>
        (*OS_AppTaskSwHookPtr)();
 80007d6:	4b15      	ldr	r3, [pc, #84]	@ (800082c <OSTaskSwHook+0x64>)
 80007d8:	681b      	ldr	r3, [r3, #0]
 80007da:	4798      	blx	r3
#endif

    OS_TRACE_TASK_SWITCHED_IN(OSTCBHighRdyPtr);

#if OS_CFG_TASK_PROFILE_EN > 0u
    ts = OS_TS_GET();
 80007dc:	2300      	movs	r3, #0
 80007de:	607b      	str	r3, [r7, #4]
    if (OSTCBCurPtr != OSTCBHighRdyPtr) {
 80007e0:	4b13      	ldr	r3, [pc, #76]	@ (8000830 <OSTaskSwHook+0x68>)
 80007e2:	681a      	ldr	r2, [r3, #0]
 80007e4:	4b13      	ldr	r3, [pc, #76]	@ (8000834 <OSTaskSwHook+0x6c>)
 80007e6:	681b      	ldr	r3, [r3, #0]
 80007e8:	429a      	cmp	r2, r3
 80007ea:	d016      	beq.n	800081a <OSTaskSwHook+0x52>
        OSTCBCurPtr->CyclesDelta  = ts - OSTCBCurPtr->CyclesStart;
 80007ec:	4b10      	ldr	r3, [pc, #64]	@ (8000830 <OSTaskSwHook+0x68>)
 80007ee:	681b      	ldr	r3, [r3, #0]
 80007f0:	f8d3 208c 	ldr.w	r2, [r3, #140]	@ 0x8c
 80007f4:	4b0e      	ldr	r3, [pc, #56]	@ (8000830 <OSTaskSwHook+0x68>)
 80007f6:	681b      	ldr	r3, [r3, #0]
 80007f8:	6879      	ldr	r1, [r7, #4]
 80007fa:	1a8a      	subs	r2, r1, r2
 80007fc:	f8c3 2088 	str.w	r2, [r3, #136]	@ 0x88
        OSTCBCurPtr->CyclesTotal += (OS_CYCLES)OSTCBCurPtr->CyclesDelta;
 8000800:	4b0b      	ldr	r3, [pc, #44]	@ (8000830 <OSTaskSwHook+0x68>)
 8000802:	681b      	ldr	r3, [r3, #0]
 8000804:	f8d3 1090 	ldr.w	r1, [r3, #144]	@ 0x90
 8000808:	4b09      	ldr	r3, [pc, #36]	@ (8000830 <OSTaskSwHook+0x68>)
 800080a:	681b      	ldr	r3, [r3, #0]
 800080c:	f8d3 2088 	ldr.w	r2, [r3, #136]	@ 0x88
 8000810:	4b07      	ldr	r3, [pc, #28]	@ (8000830 <OSTaskSwHook+0x68>)
 8000812:	681b      	ldr	r3, [r3, #0]
 8000814:	440a      	add	r2, r1
 8000816:	f8c3 2090 	str.w	r2, [r3, #144]	@ 0x90
    }

    OSTCBHighRdyPtr->CyclesStart = ts;
 800081a:	4b06      	ldr	r3, [pc, #24]	@ (8000834 <OSTaskSwHook+0x6c>)
 800081c:	681b      	ldr	r3, [r3, #0]
 800081e:	687a      	ldr	r2, [r7, #4]
 8000820:	f8c3 208c 	str.w	r2, [r3, #140]	@ 0x8c
    stk_status = OSTaskStkRedzoneChk((OS_TCB *)0u);
    if (stk_status != OS_TRUE) {
        OSRedzoneHitHook(OSTCBCurPtr);
    }
#endif
}
 8000824:	bf00      	nop
 8000826:	3708      	adds	r7, #8
 8000828:	46bd      	mov	sp, r7
 800082a:	bd80      	pop	{r7, pc}
 800082c:	20000d04 	.word	0x20000d04
 8000830:	20001188 	.word	0x20001188
 8000834:	2000118c 	.word	0x2000118c

08000838 <OSTimeTickHook>:
* Note(s)    : 1) This function is assumed to be called from the Tick ISR.
*********************************************************************************************************
*/

void  OSTimeTickHook (void)
{
 8000838:	b580      	push	{r7, lr}
 800083a:	af00      	add	r7, sp, #0
#if OS_CFG_APP_HOOKS_EN > 0u
    if (OS_AppTimeTickHookPtr != (OS_APP_HOOK_VOID)0) {
 800083c:	4b04      	ldr	r3, [pc, #16]	@ (8000850 <OSTimeTickHook+0x18>)
 800083e:	681b      	ldr	r3, [r3, #0]
 8000840:	2b00      	cmp	r3, #0
 8000842:	d002      	beq.n	800084a <OSTimeTickHook+0x12>
        (*OS_AppTimeTickHookPtr)();
 8000844:	4b02      	ldr	r3, [pc, #8]	@ (8000850 <OSTimeTickHook+0x18>)
 8000846:	681b      	ldr	r3, [r3, #0]
 8000848:	4798      	blx	r3
    }
#endif
}
 800084a:	bf00      	nop
 800084c:	bd80      	pop	{r7, pc}
 800084e:	bf00      	nop
 8000850:	20000d08 	.word	0x20000d08

08000854 <OS_CPU_SysTickHandler>:
* Note(s)    : 1) This function MUST be placed on entry 15 of the Cortex-M vector table.
*********************************************************************************************************
*/

void  OS_CPU_SysTickHandler  (void)
{
 8000854:	b580      	push	{r7, lr}
 8000856:	b082      	sub	sp, #8
 8000858:	af00      	add	r7, sp, #0
    CPU_SR_ALLOC();
 800085a:	2300      	movs	r3, #0
 800085c:	607b      	str	r3, [r7, #4]


    CPU_CRITICAL_ENTER();
 800085e:	2040      	movs	r0, #64	@ 0x40
 8000860:	f7ff fcb6 	bl	80001d0 <CPU_SR_Save>
 8000864:	6078      	str	r0, [r7, #4]
    OSIntEnter();                                               /* Tell uC/OS-III that we are starting an ISR           */
 8000866:	f000 f8df 	bl	8000a28 <OSIntEnter>
    CPU_CRITICAL_EXIT();
 800086a:	6878      	ldr	r0, [r7, #4]
 800086c:	f7ff fcbe 	bl	80001ec <CPU_SR_Restore>

    OSTimeTick();                                               /* Call uC/OS-III's OSTimeTick()                        */
 8000870:	f002 f868 	bl	8002944 <OSTimeTick>

    OSIntExit();                                                /* Tell uC/OS-III that we are leaving the ISR           */
 8000874:	f000 f8f4 	bl	8000a60 <OSIntExit>
}
 8000878:	bf00      	nop
 800087a:	3708      	adds	r7, #8
 800087c:	46bd      	mov	sp, r7
 800087e:	bd80      	pop	{r7, pc}

08000880 <OSCfg_Init>:
*                  DOES NOT optimize out the 'const' variables above.
************************************************************************************************************************
*/

void  OSCfg_Init (void)
{
 8000880:	b480      	push	{r7}
 8000882:	af00      	add	r7, sp, #0
    (void)OSCfg_TmrTaskStkBasePtr;
    (void)OSCfg_TmrTaskStkLimit;
    (void)OSCfg_TmrTaskStkSize;
    (void)OSCfg_TmrTaskStkSizeRAM;
#endif
}
 8000884:	bf00      	nop
 8000886:	46bd      	mov	sp, r7
 8000888:	f85d 7b04 	ldr.w	r7, [sp], #4
 800088c:	4770      	bx	lr
	...

08000890 <OSInit>:
* Returns    : none
************************************************************************************************************************
*/

void  OSInit (OS_ERR  *p_err)
{
 8000890:	b580      	push	{r7, lr}
 8000892:	b084      	sub	sp, #16
 8000894:	af00      	add	r7, sp, #0
 8000896:	6078      	str	r0, [r7, #4]
        OS_SAFETY_CRITICAL_EXCEPTION();
        return;
    }
#endif

    OSInitHook();                                               /* Call port specific initialization code               */
 8000898:	f7ff fe96 	bl	80005c8 <OSInitHook>

    OSIntNestingCtr       =           0u;                       /* Clear the interrupt nesting counter                  */
 800089c:	4b4c      	ldr	r3, [pc, #304]	@ (80009d0 <OSInit+0x140>)
 800089e:	2200      	movs	r2, #0
 80008a0:	701a      	strb	r2, [r3, #0]

    OSRunning             =  OS_STATE_OS_STOPPED;               /* Indicate that multitasking has not started           */
 80008a2:	4b4c      	ldr	r3, [pc, #304]	@ (80009d4 <OSInit+0x144>)
 80008a4:	2200      	movs	r2, #0
 80008a6:	701a      	strb	r2, [r3, #0]

    OSSchedLockNestingCtr =           0u;                       /* Clear the scheduling lock counter                    */
 80008a8:	4b4b      	ldr	r3, [pc, #300]	@ (80009d8 <OSInit+0x148>)
 80008aa:	2200      	movs	r2, #0
 80008ac:	701a      	strb	r2, [r3, #0]

    OSTCBCurPtr           = (OS_TCB *)0;                        /* Initialize OS_TCB pointers to a known state          */
 80008ae:	4b4b      	ldr	r3, [pc, #300]	@ (80009dc <OSInit+0x14c>)
 80008b0:	2200      	movs	r2, #0
 80008b2:	601a      	str	r2, [r3, #0]
    OSTCBHighRdyPtr       = (OS_TCB *)0;
 80008b4:	4b4a      	ldr	r3, [pc, #296]	@ (80009e0 <OSInit+0x150>)
 80008b6:	2200      	movs	r2, #0
 80008b8:	601a      	str	r2, [r3, #0]

    OSPrioCur             =           0u;                       /* Initialize priority variables to a known state       */
 80008ba:	4b4a      	ldr	r3, [pc, #296]	@ (80009e4 <OSInit+0x154>)
 80008bc:	2200      	movs	r2, #0
 80008be:	701a      	strb	r2, [r3, #0]
    OSPrioHighRdy         =           0u;
 80008c0:	4b49      	ldr	r3, [pc, #292]	@ (80009e8 <OSInit+0x158>)
 80008c2:	2200      	movs	r2, #0
 80008c4:	701a      	strb	r2, [r3, #0]
#ifdef OS_SAFETY_CRITICAL_IEC61508
    OSSafetyCriticalStartFlag = OS_FALSE;
#endif

#if (OS_CFG_SCHED_ROUND_ROBIN_EN > 0u)
    OSSchedRoundRobinEn             = OS_FALSE;
 80008c6:	4b49      	ldr	r3, [pc, #292]	@ (80009ec <OSInit+0x15c>)
 80008c8:	2200      	movs	r2, #0
 80008ca:	701a      	strb	r2, [r3, #0]
    OSSchedRoundRobinDfltTimeQuanta = OSCfg_TickRate_Hz / 10u;
 80008cc:	4b48      	ldr	r3, [pc, #288]	@ (80009f0 <OSInit+0x160>)
 80008ce:	681b      	ldr	r3, [r3, #0]
 80008d0:	4a48      	ldr	r2, [pc, #288]	@ (80009f4 <OSInit+0x164>)
 80008d2:	fba2 2303 	umull	r2, r3, r2, r3
 80008d6:	08db      	lsrs	r3, r3, #3
 80008d8:	4a47      	ldr	r2, [pc, #284]	@ (80009f8 <OSInit+0x168>)
 80008da:	6013      	str	r3, [r2, #0]
#endif

#if (OS_CFG_ISR_STK_SIZE > 0u)
    p_stk = OSCfg_ISRStkBasePtr;                                /* Clear exception stack for stack checking.            */
 80008dc:	4b47      	ldr	r3, [pc, #284]	@ (80009fc <OSInit+0x16c>)
 80008de:	681b      	ldr	r3, [r3, #0]
 80008e0:	60fb      	str	r3, [r7, #12]
    if (p_stk != (CPU_STK *)0) {
 80008e2:	68fb      	ldr	r3, [r7, #12]
 80008e4:	2b00      	cmp	r3, #0
 80008e6:	d00f      	beq.n	8000908 <OSInit+0x78>
        size  = OSCfg_ISRStkSize;
 80008e8:	4b45      	ldr	r3, [pc, #276]	@ (8000a00 <OSInit+0x170>)
 80008ea:	681b      	ldr	r3, [r3, #0]
 80008ec:	60bb      	str	r3, [r7, #8]
        while (size > 0u) {
 80008ee:	e008      	b.n	8000902 <OSInit+0x72>
            size--;
 80008f0:	68bb      	ldr	r3, [r7, #8]
 80008f2:	3b01      	subs	r3, #1
 80008f4:	60bb      	str	r3, [r7, #8]
           *p_stk = 0u;
 80008f6:	68fb      	ldr	r3, [r7, #12]
 80008f8:	2200      	movs	r2, #0
 80008fa:	601a      	str	r2, [r3, #0]
            p_stk++;
 80008fc:	68fb      	ldr	r3, [r7, #12]
 80008fe:	3304      	adds	r3, #4
 8000900:	60fb      	str	r3, [r7, #12]
        while (size > 0u) {
 8000902:	68bb      	ldr	r3, [r7, #8]
 8000904:	2b00      	cmp	r3, #0
 8000906:	d1f3      	bne.n	80008f0 <OSInit+0x60>

#if (OS_CFG_APP_HOOKS_EN > 0u)                                  /* Clear application hook pointers                      */
#if (OS_CFG_TASK_STK_REDZONE_EN > 0u)
    OS_AppRedzoneHitHookPtr = (OS_APP_HOOK_TCB )0;
#endif
    OS_AppTaskCreateHookPtr = (OS_APP_HOOK_TCB )0;
 8000908:	4b3e      	ldr	r3, [pc, #248]	@ (8000a04 <OSInit+0x174>)
 800090a:	2200      	movs	r2, #0
 800090c:	601a      	str	r2, [r3, #0]
    OS_AppTaskDelHookPtr    = (OS_APP_HOOK_TCB )0;
 800090e:	4b3e      	ldr	r3, [pc, #248]	@ (8000a08 <OSInit+0x178>)
 8000910:	2200      	movs	r2, #0
 8000912:	601a      	str	r2, [r3, #0]
    OS_AppTaskReturnHookPtr = (OS_APP_HOOK_TCB )0;
 8000914:	4b3d      	ldr	r3, [pc, #244]	@ (8000a0c <OSInit+0x17c>)
 8000916:	2200      	movs	r2, #0
 8000918:	601a      	str	r2, [r3, #0]

    OS_AppIdleTaskHookPtr   = (OS_APP_HOOK_VOID)0;
 800091a:	4b3d      	ldr	r3, [pc, #244]	@ (8000a10 <OSInit+0x180>)
 800091c:	2200      	movs	r2, #0
 800091e:	601a      	str	r2, [r3, #0]
    OS_AppStatTaskHookPtr   = (OS_APP_HOOK_VOID)0;
 8000920:	4b3c      	ldr	r3, [pc, #240]	@ (8000a14 <OSInit+0x184>)
 8000922:	2200      	movs	r2, #0
 8000924:	601a      	str	r2, [r3, #0]
    OS_AppTaskSwHookPtr     = (OS_APP_HOOK_VOID)0;
 8000926:	4b3c      	ldr	r3, [pc, #240]	@ (8000a18 <OSInit+0x188>)
 8000928:	2200      	movs	r2, #0
 800092a:	601a      	str	r2, [r3, #0]
    OS_AppTimeTickHookPtr   = (OS_APP_HOOK_VOID)0;
 800092c:	4b3b      	ldr	r3, [pc, #236]	@ (8000a1c <OSInit+0x18c>)
 800092e:	2200      	movs	r2, #0
 8000930:	601a      	str	r2, [r3, #0]
#endif

#if (OS_CFG_TASK_REG_TBL_SIZE > 0u)
    OSTaskRegNextAvailID = 0u;
 8000932:	4b3b      	ldr	r3, [pc, #236]	@ (8000a20 <OSInit+0x190>)
 8000934:	2200      	movs	r2, #0
 8000936:	701a      	strb	r2, [r3, #0]
#endif

    OS_PrioInit();                                              /* Initialize the priority bitmap table                 */
 8000938:	f000 ffb4 	bl	80018a4 <OS_PrioInit>

    OS_RdyListInit();                                           /* Initialize the Ready List                            */
 800093c:	f000 fb6c 	bl	8001018 <OS_RdyListInit>
    OSFlagQty        =                0u;
#endif
#endif

#if (OS_CFG_MEM_EN > 0u)                                        /* Initialize the Memory Manager module                 */
    OS_MemInit(p_err);
 8000940:	6878      	ldr	r0, [r7, #4]
 8000942:	f000 fd27 	bl	8001394 <OS_MemInit>
    if (*p_err != OS_ERR_NONE) {
 8000946:	687b      	ldr	r3, [r7, #4]
 8000948:	881b      	ldrh	r3, [r3, #0]
 800094a:	2b00      	cmp	r3, #0
 800094c:	d12f      	bne.n	80009ae <OSInit+0x11e>
    }
#endif


#if (OS_MSG_EN > 0u)                                            /* Initialize the free list of OS_MSGs                  */
    OS_MsgPoolInit(p_err);
 800094e:	6878      	ldr	r0, [r7, #4]
 8000950:	f000 fd2e 	bl	80013b0 <OS_MsgPoolInit>
    if (*p_err != OS_ERR_NONE) {
 8000954:	687b      	ldr	r3, [r7, #4]
 8000956:	881b      	ldrh	r3, [r3, #0]
 8000958:	2b00      	cmp	r3, #0
 800095a:	d12a      	bne.n	80009b2 <OSInit+0x122>
        return;
    }
#endif


    OS_TaskInit(p_err);                                         /* Initialize the task manager                          */
 800095c:	6878      	ldr	r0, [r7, #4]
 800095e:	f001 fbc1 	bl	80020e4 <OS_TaskInit>
    if (*p_err != OS_ERR_NONE) {
 8000962:	687b      	ldr	r3, [r7, #4]
 8000964:	881b      	ldrh	r3, [r3, #0]
 8000966:	2b00      	cmp	r3, #0
 8000968:	d125      	bne.n	80009b6 <OSInit+0x126>
        return;
    }


#if (OS_CFG_TASK_IDLE_EN > 0u)
    OS_IdleTaskInit(p_err);                                     /* Initialize the Idle Task                             */
 800096a:	6878      	ldr	r0, [r7, #4]
 800096c:	f000 f9b2 	bl	8000cd4 <OS_IdleTaskInit>
    if (*p_err != OS_ERR_NONE) {
 8000970:	687b      	ldr	r3, [r7, #4]
 8000972:	881b      	ldrh	r3, [r3, #0]
 8000974:	2b00      	cmp	r3, #0
 8000976:	d120      	bne.n	80009ba <OSInit+0x12a>
    }
#endif


#if (OS_CFG_TICK_EN > 0u)
    OS_TickInit(p_err);
 8000978:	6878      	ldr	r0, [r7, #4]
 800097a:	f001 fd2b 	bl	80023d4 <OS_TickInit>
    if (*p_err != OS_ERR_NONE) {
 800097e:	687b      	ldr	r3, [r7, #4]
 8000980:	881b      	ldrh	r3, [r3, #0]
 8000982:	2b00      	cmp	r3, #0
 8000984:	d11b      	bne.n	80009be <OSInit+0x12e>
    }
#endif


#if (OS_CFG_STAT_TASK_EN > 0u)                                  /* Initialize the Statistic Task                        */
    OS_StatTaskInit(p_err);
 8000986:	6878      	ldr	r0, [r7, #4]
 8000988:	f001 f91e 	bl	8001bc8 <OS_StatTaskInit>
    if (*p_err != OS_ERR_NONE) {
 800098c:	687b      	ldr	r3, [r7, #4]
 800098e:	881b      	ldrh	r3, [r3, #0]
 8000990:	2b00      	cmp	r3, #0
 8000992:	d116      	bne.n	80009c2 <OSInit+0x132>
    }
#endif


#if (OS_CFG_TMR_EN > 0u)                                        /* Initialize the Timer Manager module                  */
    OS_TmrInit(p_err);
 8000994:	6878      	ldr	r0, [r7, #4]
 8000996:	f001 fff1 	bl	800297c <OS_TmrInit>
    if (*p_err != OS_ERR_NONE) {
 800099a:	687b      	ldr	r3, [r7, #4]
 800099c:	881b      	ldrh	r3, [r3, #0]
 800099e:	2b00      	cmp	r3, #0
 80009a0:	d111      	bne.n	80009c6 <OSInit+0x136>
#if (OS_CFG_DBG_EN > 0u)
    OS_Dbg_Init();
#endif


    OSCfg_Init();
 80009a2:	f7ff ff6d 	bl	8000880 <OSCfg_Init>

    OSInitialized = OS_TRUE;                                    /* Kernel is initialized                                */
 80009a6:	4b1f      	ldr	r3, [pc, #124]	@ (8000a24 <OSInit+0x194>)
 80009a8:	2201      	movs	r2, #1
 80009aa:	701a      	strb	r2, [r3, #0]
 80009ac:	e00c      	b.n	80009c8 <OSInit+0x138>
        return;
 80009ae:	bf00      	nop
 80009b0:	e00a      	b.n	80009c8 <OSInit+0x138>
        return;
 80009b2:	bf00      	nop
 80009b4:	e008      	b.n	80009c8 <OSInit+0x138>
        return;
 80009b6:	bf00      	nop
 80009b8:	e006      	b.n	80009c8 <OSInit+0x138>
        return;
 80009ba:	bf00      	nop
 80009bc:	e004      	b.n	80009c8 <OSInit+0x138>
        return;
 80009be:	bf00      	nop
 80009c0:	e002      	b.n	80009c8 <OSInit+0x138>
        return;
 80009c2:	bf00      	nop
 80009c4:	e000      	b.n	80009c8 <OSInit+0x138>
        return;
 80009c6:	bf00      	nop
}
 80009c8:	3710      	adds	r7, #16
 80009ca:	46bd      	mov	sp, r7
 80009cc:	bd80      	pop	{r7, pc}
 80009ce:	bf00      	nop
 80009d0:	20000db4 	.word	0x20000db4
 80009d4:	20000db5 	.word	0x20000db5
 80009d8:	20000fd4 	.word	0x20000fd4
 80009dc:	20001188 	.word	0x20001188
 80009e0:	2000118c 	.word	0x2000118c
 80009e4:	20000dc8 	.word	0x20000dc8
 80009e8:	20000dc9 	.word	0x20000dc9
 80009ec:	20000fdc 	.word	0x20000fdc
 80009f0:	08003f14 	.word	0x08003f14
 80009f4:	cccccccd 	.word	0xcccccccd
 80009f8:	20000fd8 	.word	0x20000fd8
 80009fc:	08003eec 	.word	0x08003eec
 8000a00:	08003ef0 	.word	0x08003ef0
 8000a04:	20000cf0 	.word	0x20000cf0
 8000a08:	20000cf4 	.word	0x20000cf4
 8000a0c:	20000cf8 	.word	0x20000cf8
 8000a10:	20000cfc 	.word	0x20000cfc
 8000a14:	20000d00 	.word	0x20000d00
 8000a18:	20000d04 	.word	0x20000d04
 8000a1c:	20000d08 	.word	0x20000d08
 8000a20:	200010a2 	.word	0x200010a2
 8000a24:	20000db6 	.word	0x20000db6

08000a28 <OSIntEnter>:
*              5) You are allowed to nest interrupts up to 250 levels deep.
************************************************************************************************************************
*/

void  OSIntEnter (void)
{
 8000a28:	b480      	push	{r7}
 8000a2a:	af00      	add	r7, sp, #0
    OS_TRACE_ISR_ENTER();

    if (OSRunning != OS_STATE_OS_RUNNING) {                     /* Is OS running?                                       */
 8000a2c:	4b0a      	ldr	r3, [pc, #40]	@ (8000a58 <OSIntEnter+0x30>)
 8000a2e:	781b      	ldrb	r3, [r3, #0]
 8000a30:	2b01      	cmp	r3, #1
 8000a32:	d10a      	bne.n	8000a4a <OSIntEnter+0x22>
        return;                                                 /* No                                                   */
    }

    if (OSIntNestingCtr >= 250u) {                              /* Have we nested past 250 levels?                      */
 8000a34:	4b09      	ldr	r3, [pc, #36]	@ (8000a5c <OSIntEnter+0x34>)
 8000a36:	781b      	ldrb	r3, [r3, #0]
 8000a38:	2bf9      	cmp	r3, #249	@ 0xf9
 8000a3a:	d808      	bhi.n	8000a4e <OSIntEnter+0x26>
        return;                                                 /* Yes                                                  */
    }

    OSIntNestingCtr++;                                          /* Increment ISR nesting level                          */
 8000a3c:	4b07      	ldr	r3, [pc, #28]	@ (8000a5c <OSIntEnter+0x34>)
 8000a3e:	781b      	ldrb	r3, [r3, #0]
 8000a40:	3301      	adds	r3, #1
 8000a42:	b2da      	uxtb	r2, r3
 8000a44:	4b05      	ldr	r3, [pc, #20]	@ (8000a5c <OSIntEnter+0x34>)
 8000a46:	701a      	strb	r2, [r3, #0]
 8000a48:	e002      	b.n	8000a50 <OSIntEnter+0x28>
        return;                                                 /* No                                                   */
 8000a4a:	bf00      	nop
 8000a4c:	e000      	b.n	8000a50 <OSIntEnter+0x28>
        return;                                                 /* Yes                                                  */
 8000a4e:	bf00      	nop
}
 8000a50:	46bd      	mov	sp, r7
 8000a52:	f85d 7b04 	ldr.w	r7, [sp], #4
 8000a56:	4770      	bx	lr
 8000a58:	20000db5 	.word	0x20000db5
 8000a5c:	20000db4 	.word	0x20000db4

08000a60 <OSIntExit>:
*              2) Rescheduling is prevented when the scheduler is locked (see OSSchedLock())
************************************************************************************************************************
*/

void  OSIntExit (void)
{
 8000a60:	b580      	push	{r7, lr}
 8000a62:	b082      	sub	sp, #8
 8000a64:	af00      	add	r7, sp, #0
#if (OS_CFG_TASK_STK_REDZONE_EN > 0u)
    CPU_BOOLEAN  stk_status;
#endif
    CPU_SR_ALLOC();
 8000a66:	2300      	movs	r3, #0
 8000a68:	607b      	str	r3, [r7, #4]



    if (OSRunning != OS_STATE_OS_RUNNING) {                     /* Has the OS started?                                  */
 8000a6a:	4b2a      	ldr	r3, [pc, #168]	@ (8000b14 <OSIntExit+0xb4>)
 8000a6c:	781b      	ldrb	r3, [r3, #0]
 8000a6e:	2b01      	cmp	r3, #1
 8000a70:	d14b      	bne.n	8000b0a <OSIntExit+0xaa>
        OS_TRACE_ISR_EXIT();
        return;                                                 /* No                                                   */
    }

    CPU_INT_DIS();
 8000a72:	2040      	movs	r0, #64	@ 0x40
 8000a74:	f7ff fbac 	bl	80001d0 <CPU_SR_Save>
 8000a78:	6078      	str	r0, [r7, #4]
    if (OSIntNestingCtr == 0u) {                                /* Prevent OSIntNestingCtr from wrapping                */
 8000a7a:	4b27      	ldr	r3, [pc, #156]	@ (8000b18 <OSIntExit+0xb8>)
 8000a7c:	781b      	ldrb	r3, [r3, #0]
 8000a7e:	2b00      	cmp	r3, #0
 8000a80:	d103      	bne.n	8000a8a <OSIntExit+0x2a>
        OS_TRACE_ISR_EXIT();
        CPU_INT_EN();
 8000a82:	6878      	ldr	r0, [r7, #4]
 8000a84:	f7ff fbb2 	bl	80001ec <CPU_SR_Restore>
        return;
 8000a88:	e040      	b.n	8000b0c <OSIntExit+0xac>
    }
    OSIntNestingCtr--;
 8000a8a:	4b23      	ldr	r3, [pc, #140]	@ (8000b18 <OSIntExit+0xb8>)
 8000a8c:	781b      	ldrb	r3, [r3, #0]
 8000a8e:	3b01      	subs	r3, #1
 8000a90:	b2da      	uxtb	r2, r3
 8000a92:	4b21      	ldr	r3, [pc, #132]	@ (8000b18 <OSIntExit+0xb8>)
 8000a94:	701a      	strb	r2, [r3, #0]
    if (OSIntNestingCtr > 0u) {                                 /* ISRs still nested?                                   */
 8000a96:	4b20      	ldr	r3, [pc, #128]	@ (8000b18 <OSIntExit+0xb8>)
 8000a98:	781b      	ldrb	r3, [r3, #0]
 8000a9a:	2b00      	cmp	r3, #0
 8000a9c:	d003      	beq.n	8000aa6 <OSIntExit+0x46>
        OS_TRACE_ISR_EXIT();
        CPU_INT_EN();                                           /* Yes                                                  */
 8000a9e:	6878      	ldr	r0, [r7, #4]
 8000aa0:	f7ff fba4 	bl	80001ec <CPU_SR_Restore>
        return;
 8000aa4:	e032      	b.n	8000b0c <OSIntExit+0xac>
    }

    if (OSSchedLockNestingCtr > 0u) {                           /* Scheduler still locked?                              */
 8000aa6:	4b1d      	ldr	r3, [pc, #116]	@ (8000b1c <OSIntExit+0xbc>)
 8000aa8:	781b      	ldrb	r3, [r3, #0]
 8000aaa:	2b00      	cmp	r3, #0
 8000aac:	d003      	beq.n	8000ab6 <OSIntExit+0x56>
        OS_TRACE_ISR_EXIT();
        CPU_INT_EN();                                           /* Yes                                                  */
 8000aae:	6878      	ldr	r0, [r7, #4]
 8000ab0:	f7ff fb9c 	bl	80001ec <CPU_SR_Restore>
        return;
 8000ab4:	e02a      	b.n	8000b0c <OSIntExit+0xac>
        OSRedzoneHitHook((OS_TCB *)0);
    }
#endif
#endif

    OSPrioHighRdy   = OS_PrioGetHighest();                      /* Find highest priority                                */
 8000ab6:	f000 ff0f 	bl	80018d8 <OS_PrioGetHighest>
 8000aba:	4603      	mov	r3, r0
 8000abc:	461a      	mov	r2, r3
 8000abe:	4b18      	ldr	r3, [pc, #96]	@ (8000b20 <OSIntExit+0xc0>)
 8000ac0:	701a      	strb	r2, [r3, #0]
#if (OS_CFG_TASK_IDLE_EN > 0u)
    OSTCBHighRdyPtr = OSRdyList[OSPrioHighRdy].HeadPtr;         /* Get highest priority task ready-to-run               */
 8000ac2:	4b17      	ldr	r3, [pc, #92]	@ (8000b20 <OSIntExit+0xc0>)
 8000ac4:	781b      	ldrb	r3, [r3, #0]
 8000ac6:	461a      	mov	r2, r3
 8000ac8:	4b16      	ldr	r3, [pc, #88]	@ (8000b24 <OSIntExit+0xc4>)
 8000aca:	f853 3032 	ldr.w	r3, [r3, r2, lsl #3]
 8000ace:	4a16      	ldr	r2, [pc, #88]	@ (8000b28 <OSIntExit+0xc8>)
 8000ad0:	6013      	str	r3, [r2, #0]
    if (OSTCBHighRdyPtr == OSTCBCurPtr) {                       /* Current task still the highest priority?             */
 8000ad2:	4b15      	ldr	r3, [pc, #84]	@ (8000b28 <OSIntExit+0xc8>)
 8000ad4:	681a      	ldr	r2, [r3, #0]
 8000ad6:	4b15      	ldr	r3, [pc, #84]	@ (8000b2c <OSIntExit+0xcc>)
 8000ad8:	681b      	ldr	r3, [r3, #0]
 8000ada:	429a      	cmp	r2, r3
 8000adc:	d103      	bne.n	8000ae6 <OSIntExit+0x86>
        if (stk_status != OS_TRUE) {
            OSRedzoneHitHook(OSTCBCurPtr);
        }
#endif
        OS_TRACE_ISR_EXIT();
        CPU_INT_EN();
 8000ade:	6878      	ldr	r0, [r7, #4]
 8000ae0:	f7ff fb84 	bl	80001ec <CPU_SR_Restore>
        OS_TRACE_TASK_SWITCHED_IN(OSTCBHighRdyPtr);             /* Do this here because we don't execute OSIntCtxSw().  */
        return;
 8000ae4:	e012      	b.n	8000b0c <OSIntExit+0xac>
        }
    }
#endif

#if (OS_CFG_TASK_PROFILE_EN > 0u)
    OSTCBHighRdyPtr->CtxSwCtr++;                                /* Inc. # of context switches for this new task         */
 8000ae6:	4b10      	ldr	r3, [pc, #64]	@ (8000b28 <OSIntExit+0xc8>)
 8000ae8:	681b      	ldr	r3, [r3, #0]
 8000aea:	f8d3 2084 	ldr.w	r2, [r3, #132]	@ 0x84
 8000aee:	3201      	adds	r2, #1
 8000af0:	f8c3 2084 	str.w	r2, [r3, #132]	@ 0x84
#endif
#if ((OS_CFG_TASK_PROFILE_EN > 0u) || (OS_CFG_DBG_EN > 0u))
    OSTaskCtxSwCtr++;                                           /* Keep track of the total number of ctx switches       */
 8000af4:	4b0e      	ldr	r3, [pc, #56]	@ (8000b30 <OSIntExit+0xd0>)
 8000af6:	681b      	ldr	r3, [r3, #0]
 8000af8:	3301      	adds	r3, #1
 8000afa:	4a0d      	ldr	r2, [pc, #52]	@ (8000b30 <OSIntExit+0xd0>)
 8000afc:	6013      	str	r3, [r2, #0]
    OS_TLS_TaskSw();
#endif

    OS_TRACE_ISR_EXIT_TO_SCHEDULER();

    OSIntCtxSw();                                               /* Perform interrupt level ctx switch                   */
 8000afe:	f7ff fbcc 	bl	800029a <OSCtxSw>

    CPU_INT_EN();
 8000b02:	6878      	ldr	r0, [r7, #4]
 8000b04:	f7ff fb72 	bl	80001ec <CPU_SR_Restore>
 8000b08:	e000      	b.n	8000b0c <OSIntExit+0xac>
        return;                                                 /* No                                                   */
 8000b0a:	bf00      	nop
}
 8000b0c:	3708      	adds	r7, #8
 8000b0e:	46bd      	mov	sp, r7
 8000b10:	bd80      	pop	{r7, pc}
 8000b12:	bf00      	nop
 8000b14:	20000db5 	.word	0x20000db5
 8000b18:	20000db4 	.word	0x20000db4
 8000b1c:	20000fd4 	.word	0x20000fd4
 8000b20:	20000dc9 	.word	0x20000dc9
 8000b24:	20000dd4 	.word	0x20000dd4
 8000b28:	2000118c 	.word	0x2000118c
 8000b2c:	20001188 	.word	0x20001188
 8000b30:	2000109c 	.word	0x2000109c

08000b34 <OSSched>:
* Note(s)    : 1) Rescheduling is prevented when the scheduler is locked (see OSSchedLock())
************************************************************************************************************************
*/

void  OSSched (void)
{
 8000b34:	b580      	push	{r7, lr}
 8000b36:	b082      	sub	sp, #8
 8000b38:	af00      	add	r7, sp, #0
    CPU_SR_ALLOC();
 8000b3a:	2300      	movs	r3, #0
 8000b3c:	607b      	str	r3, [r7, #4]


#if (OS_CFG_INVALID_OS_CALLS_CHK_EN > 0u)                       /* Can't schedule when the kernel is stopped.           */
    if (OSRunning != OS_STATE_OS_RUNNING) {
 8000b3e:	4b22      	ldr	r3, [pc, #136]	@ (8000bc8 <OSSched+0x94>)
 8000b40:	781b      	ldrb	r3, [r3, #0]
 8000b42:	2b01      	cmp	r3, #1
 8000b44:	d137      	bne.n	8000bb6 <OSSched+0x82>
        return;
    }
#endif

    if (OSIntNestingCtr > 0u) {                                 /* ISRs still nested?                                   */
 8000b46:	4b21      	ldr	r3, [pc, #132]	@ (8000bcc <OSSched+0x98>)
 8000b48:	781b      	ldrb	r3, [r3, #0]
 8000b4a:	2b00      	cmp	r3, #0
 8000b4c:	d135      	bne.n	8000bba <OSSched+0x86>
        return;                                                 /* Yes ... only schedule when no nested ISRs            */
    }

    if (OSSchedLockNestingCtr > 0u) {                           /* Scheduler locked?                                    */
 8000b4e:	4b20      	ldr	r3, [pc, #128]	@ (8000bd0 <OSSched+0x9c>)
 8000b50:	781b      	ldrb	r3, [r3, #0]
 8000b52:	2b00      	cmp	r3, #0
 8000b54:	d133      	bne.n	8000bbe <OSSched+0x8a>
        return;                                                 /* Yes                                                  */
    }

    CPU_INT_DIS();
 8000b56:	2040      	movs	r0, #64	@ 0x40
 8000b58:	f7ff fb3a 	bl	80001d0 <CPU_SR_Save>
 8000b5c:	6078      	str	r0, [r7, #4]
    OSPrioHighRdy   = OS_PrioGetHighest();                      /* Find the highest priority ready                      */
 8000b5e:	f000 febb 	bl	80018d8 <OS_PrioGetHighest>
 8000b62:	4603      	mov	r3, r0
 8000b64:	461a      	mov	r2, r3
 8000b66:	4b1b      	ldr	r3, [pc, #108]	@ (8000bd4 <OSSched+0xa0>)
 8000b68:	701a      	strb	r2, [r3, #0]
#if (OS_CFG_TASK_IDLE_EN > 0u)
    OSTCBHighRdyPtr = OSRdyList[OSPrioHighRdy].HeadPtr;         /* Get highest priority task ready-to-run               */
 8000b6a:	4b1a      	ldr	r3, [pc, #104]	@ (8000bd4 <OSSched+0xa0>)
 8000b6c:	781b      	ldrb	r3, [r3, #0]
 8000b6e:	461a      	mov	r2, r3
 8000b70:	4b19      	ldr	r3, [pc, #100]	@ (8000bd8 <OSSched+0xa4>)
 8000b72:	f853 3032 	ldr.w	r3, [r3, r2, lsl #3]
 8000b76:	4a19      	ldr	r2, [pc, #100]	@ (8000bdc <OSSched+0xa8>)
 8000b78:	6013      	str	r3, [r2, #0]
    if (OSTCBHighRdyPtr == OSTCBCurPtr) {                       /* Current task still the highest priority?             */
 8000b7a:	4b18      	ldr	r3, [pc, #96]	@ (8000bdc <OSSched+0xa8>)
 8000b7c:	681a      	ldr	r2, [r3, #0]
 8000b7e:	4b18      	ldr	r3, [pc, #96]	@ (8000be0 <OSSched+0xac>)
 8000b80:	681b      	ldr	r3, [r3, #0]
 8000b82:	429a      	cmp	r2, r3
 8000b84:	d103      	bne.n	8000b8e <OSSched+0x5a>
        CPU_INT_EN();                                           /* Yes                                                  */
 8000b86:	6878      	ldr	r0, [r7, #4]
 8000b88:	f7ff fb30 	bl	80001ec <CPU_SR_Restore>
        return;
 8000b8c:	e018      	b.n	8000bc0 <OSSched+0x8c>
#endif

    OS_TRACE_TASK_PREEMPT(OSTCBCurPtr);

#if (OS_CFG_TASK_PROFILE_EN > 0u)
    OSTCBHighRdyPtr->CtxSwCtr++;                                /* Inc. # of context switches to this task              */
 8000b8e:	4b13      	ldr	r3, [pc, #76]	@ (8000bdc <OSSched+0xa8>)
 8000b90:	681b      	ldr	r3, [r3, #0]
 8000b92:	f8d3 2084 	ldr.w	r2, [r3, #132]	@ 0x84
 8000b96:	3201      	adds	r2, #1
 8000b98:	f8c3 2084 	str.w	r2, [r3, #132]	@ 0x84
#endif

#if ((OS_CFG_TASK_PROFILE_EN > 0u) || (OS_CFG_DBG_EN > 0u))
    OSTaskCtxSwCtr++;                                           /* Increment context switch counter                     */
 8000b9c:	4b11      	ldr	r3, [pc, #68]	@ (8000be4 <OSSched+0xb0>)
 8000b9e:	681b      	ldr	r3, [r3, #0]
 8000ba0:	3301      	adds	r3, #1
 8000ba2:	4a10      	ldr	r2, [pc, #64]	@ (8000be4 <OSSched+0xb0>)
 8000ba4:	6013      	str	r3, [r2, #0]
#if defined(OS_CFG_TLS_TBL_SIZE) && (OS_CFG_TLS_TBL_SIZE > 0u)
    OS_TLS_TaskSw();
#endif

#if (OS_CFG_TASK_IDLE_EN > 0u)
    OS_TASK_SW();                                               /* Perform a task level context switch                  */
 8000ba6:	f7ff fb78 	bl	800029a <OSCtxSw>
    CPU_INT_EN();
 8000baa:	6878      	ldr	r0, [r7, #4]
 8000bac:	f7ff fb1e 	bl	80001ec <CPU_SR_Restore>
        }
    }
#endif

#ifdef OS_TASK_SW_SYNC
    OS_TASK_SW_SYNC();
 8000bb0:	f3bf 8f6f 	isb	sy
 8000bb4:	e004      	b.n	8000bc0 <OSSched+0x8c>
        return;
 8000bb6:	bf00      	nop
 8000bb8:	e002      	b.n	8000bc0 <OSSched+0x8c>
        return;                                                 /* Yes ... only schedule when no nested ISRs            */
 8000bba:	bf00      	nop
 8000bbc:	e000      	b.n	8000bc0 <OSSched+0x8c>
        return;                                                 /* Yes                                                  */
 8000bbe:	bf00      	nop
#endif
}
 8000bc0:	3708      	adds	r7, #8
 8000bc2:	46bd      	mov	sp, r7
 8000bc4:	bd80      	pop	{r7, pc}
 8000bc6:	bf00      	nop
 8000bc8:	20000db5 	.word	0x20000db5
 8000bcc:	20000db4 	.word	0x20000db4
 8000bd0:	20000fd4 	.word	0x20000fd4
 8000bd4:	20000dc9 	.word	0x20000dc9
 8000bd8:	20000dd4 	.word	0x20000dd4
 8000bdc:	2000118c 	.word	0x2000118c
 8000be0:	20001188 	.word	0x20001188
 8000be4:	2000109c 	.word	0x2000109c

08000be8 <OSStart>:
*              2) OSStart() is not supposed to return.  If it does, that would be considered a fatal error.
************************************************************************************************************************
*/

void  OSStart (OS_ERR  *p_err)
{
 8000be8:	b580      	push	{r7, lr}
 8000bea:	b084      	sub	sp, #16
 8000bec:	af00      	add	r7, sp, #0
 8000bee:	6078      	str	r0, [r7, #4]
        OS_SAFETY_CRITICAL_EXCEPTION();
        return;
    }
#endif

    if (OSInitialized != OS_TRUE) {
 8000bf0:	4b24      	ldr	r3, [pc, #144]	@ (8000c84 <OSStart+0x9c>)
 8000bf2:	781b      	ldrb	r3, [r3, #0]
 8000bf4:	2b01      	cmp	r3, #1
 8000bf6:	d004      	beq.n	8000c02 <OSStart+0x1a>
       *p_err = OS_ERR_OS_NOT_INIT;
 8000bf8:	687b      	ldr	r3, [r7, #4]
 8000bfa:	f645 628b 	movw	r2, #24203	@ 0x5e8b
 8000bfe:	801a      	strh	r2, [r3, #0]
        return;
 8000c00:	e03c      	b.n	8000c7c <OSStart+0x94>
    }

    kernel_task_cnt = 0u;                                       /* Calculate the number of kernel tasks                 */
 8000c02:	2300      	movs	r3, #0
 8000c04:	81fb      	strh	r3, [r7, #14]
#if (OS_CFG_STAT_TASK_EN > 0u)
    kernel_task_cnt++;
 8000c06:	89fb      	ldrh	r3, [r7, #14]
 8000c08:	3301      	adds	r3, #1
 8000c0a:	81fb      	strh	r3, [r7, #14]
#endif
#if (OS_CFG_TMR_EN > 0u)
    kernel_task_cnt++;
 8000c0c:	89fb      	ldrh	r3, [r7, #14]
 8000c0e:	3301      	adds	r3, #1
 8000c10:	81fb      	strh	r3, [r7, #14]
#endif
#if (OS_CFG_TASK_IDLE_EN > 0u)
    kernel_task_cnt++;
 8000c12:	89fb      	ldrh	r3, [r7, #14]
 8000c14:	3301      	adds	r3, #1
 8000c16:	81fb      	strh	r3, [r7, #14]
#endif

    if (OSTaskQty <= kernel_task_cnt) {                         /* No application task created                          */
 8000c18:	4b1b      	ldr	r3, [pc, #108]	@ (8000c88 <OSStart+0xa0>)
 8000c1a:	881b      	ldrh	r3, [r3, #0]
 8000c1c:	89fa      	ldrh	r2, [r7, #14]
 8000c1e:	429a      	cmp	r2, r3
 8000c20:	d304      	bcc.n	8000c2c <OSStart+0x44>
        *p_err = OS_ERR_OS_NO_APP_TASK;
 8000c22:	687b      	ldr	r3, [r7, #4]
 8000c24:	f645 628c 	movw	r2, #24204	@ 0x5e8c
 8000c28:	801a      	strh	r2, [r3, #0]
         return;
 8000c2a:	e027      	b.n	8000c7c <OSStart+0x94>
    }

    if (OSRunning == OS_STATE_OS_STOPPED) {
 8000c2c:	4b17      	ldr	r3, [pc, #92]	@ (8000c8c <OSStart+0xa4>)
 8000c2e:	781b      	ldrb	r3, [r3, #0]
 8000c30:	2b00      	cmp	r3, #0
 8000c32:	d11f      	bne.n	8000c74 <OSStart+0x8c>
        OSPrioHighRdy   = OS_PrioGetHighest();                  /* Find the highest priority                            */
 8000c34:	f000 fe50 	bl	80018d8 <OS_PrioGetHighest>
 8000c38:	4603      	mov	r3, r0
 8000c3a:	461a      	mov	r2, r3
 8000c3c:	4b14      	ldr	r3, [pc, #80]	@ (8000c90 <OSStart+0xa8>)
 8000c3e:	701a      	strb	r2, [r3, #0]
        OSPrioCur       = OSPrioHighRdy;
 8000c40:	4b13      	ldr	r3, [pc, #76]	@ (8000c90 <OSStart+0xa8>)
 8000c42:	781a      	ldrb	r2, [r3, #0]
 8000c44:	4b13      	ldr	r3, [pc, #76]	@ (8000c94 <OSStart+0xac>)
 8000c46:	701a      	strb	r2, [r3, #0]
        OSTCBHighRdyPtr = OSRdyList[OSPrioHighRdy].HeadPtr;
 8000c48:	4b11      	ldr	r3, [pc, #68]	@ (8000c90 <OSStart+0xa8>)
 8000c4a:	781b      	ldrb	r3, [r3, #0]
 8000c4c:	461a      	mov	r2, r3
 8000c4e:	4b12      	ldr	r3, [pc, #72]	@ (8000c98 <OSStart+0xb0>)
 8000c50:	f853 3032 	ldr.w	r3, [r3, r2, lsl #3]
 8000c54:	4a11      	ldr	r2, [pc, #68]	@ (8000c9c <OSStart+0xb4>)
 8000c56:	6013      	str	r3, [r2, #0]
        OSTCBCurPtr     = OSTCBHighRdyPtr;
 8000c58:	4b10      	ldr	r3, [pc, #64]	@ (8000c9c <OSStart+0xb4>)
 8000c5a:	681b      	ldr	r3, [r3, #0]
 8000c5c:	4a10      	ldr	r2, [pc, #64]	@ (8000ca0 <OSStart+0xb8>)
 8000c5e:	6013      	str	r3, [r2, #0]
        OSRunning       = OS_STATE_OS_RUNNING;
 8000c60:	4b0a      	ldr	r3, [pc, #40]	@ (8000c8c <OSStart+0xa4>)
 8000c62:	2201      	movs	r2, #1
 8000c64:	701a      	strb	r2, [r3, #0]
        OSStartHighRdy();                                       /* Execute target specific code to start task           */
 8000c66:	f7ff fad9 	bl	800021c <OSStartHighRdy>
       *p_err           = OS_ERR_FATAL_RETURN;                  /* OSStart() is not supposed to return                  */
 8000c6a:	687b      	ldr	r3, [r7, #4]
 8000c6c:	f643 2299 	movw	r2, #15001	@ 0x3a99
 8000c70:	801a      	strh	r2, [r3, #0]
 8000c72:	e003      	b.n	8000c7c <OSStart+0x94>
    } else {
       *p_err           = OS_ERR_OS_RUNNING;                    /* OS is already running                                */
 8000c74:	687b      	ldr	r3, [r7, #4]
 8000c76:	f645 628a 	movw	r2, #24202	@ 0x5e8a
 8000c7a:	801a      	strh	r2, [r3, #0]
    }
}
 8000c7c:	3710      	adds	r7, #16
 8000c7e:	46bd      	mov	sp, r7
 8000c80:	bd80      	pop	{r7, pc}
 8000c82:	bf00      	nop
 8000c84:	20000db6 	.word	0x20000db6
 8000c88:	200010a0 	.word	0x200010a0
 8000c8c:	20000db5 	.word	0x20000db5
 8000c90:	20000dc9 	.word	0x20000dc9
 8000c94:	20000dc8 	.word	0x20000dc8
 8000c98:	20000dd4 	.word	0x20000dd4
 8000c9c:	2000118c 	.word	0x2000118c
 8000ca0:	20001188 	.word	0x20001188

08000ca4 <OS_IdleTask>:
*              3) This hook has been added to allow you to do such things as STOP the CPU to conserve power.
************************************************************************************************************************
*/
#if (OS_CFG_TASK_IDLE_EN > 0u)
void  OS_IdleTask (void  *p_arg)
{
 8000ca4:	b580      	push	{r7, lr}
 8000ca6:	b084      	sub	sp, #16
 8000ca8:	af00      	add	r7, sp, #0
 8000caa:	6078      	str	r0, [r7, #4]
#if ((OS_CFG_DBG_EN > 0u) || (OS_CFG_STAT_TASK_EN > 0u))
    CPU_SR_ALLOC();
 8000cac:	2300      	movs	r3, #0
 8000cae:	60fb      	str	r3, [r7, #12]

    (void)p_arg;                                                /* Prevent compiler warning for not using 'p_arg'       */

    for (;;) {
#if ((OS_CFG_DBG_EN > 0u) || (OS_CFG_STAT_TASK_EN > 0u))
        CPU_CRITICAL_ENTER();
 8000cb0:	2040      	movs	r0, #64	@ 0x40
 8000cb2:	f7ff fa8d 	bl	80001d0 <CPU_SR_Save>
 8000cb6:	60f8      	str	r0, [r7, #12]
#if (OS_CFG_DBG_EN > 0u)
        OSIdleTaskCtr++;
#endif
#if (OS_CFG_STAT_TASK_EN > 0u)
        OSStatTaskCtr++;
 8000cb8:	4b05      	ldr	r3, [pc, #20]	@ (8000cd0 <OS_IdleTask+0x2c>)
 8000cba:	681b      	ldr	r3, [r3, #0]
 8000cbc:	3301      	adds	r3, #1
 8000cbe:	4a04      	ldr	r2, [pc, #16]	@ (8000cd0 <OS_IdleTask+0x2c>)
 8000cc0:	6013      	str	r3, [r2, #0]
#endif
        CPU_CRITICAL_EXIT();
 8000cc2:	68f8      	ldr	r0, [r7, #12]
 8000cc4:	f7ff fa92 	bl	80001ec <CPU_SR_Restore>
#endif

#if (OS_CFG_APP_HOOKS_EN > 0u)
        OSIdleTaskHook();                                       /* Call user definable HOOK                             */
 8000cc8:	f7ff fc70 	bl	80005ac <OSIdleTaskHook>
        CPU_CRITICAL_ENTER();
 8000ccc:	bf00      	nop
 8000cce:	e7ef      	b.n	8000cb0 <OS_IdleTask+0xc>
 8000cd0:	20000fe4 	.word	0x20000fe4

08000cd4 <OS_IdleTaskInit>:
* Note(s)    : 1) This function is INTERNAL to uC/OS-III and your application MUST NOT call it.
************************************************************************************************************************
*/
#if (OS_CFG_TASK_IDLE_EN > 0u)
void  OS_IdleTaskInit (OS_ERR  *p_err)
{
 8000cd4:	b580      	push	{r7, lr}
 8000cd6:	b08c      	sub	sp, #48	@ 0x30
 8000cd8:	af0a      	add	r7, sp, #40	@ 0x28
 8000cda:	6078      	str	r0, [r7, #4]
#if (OS_CFG_DBG_EN > 0u)
    OSIdleTaskCtr = 0u;
#endif
                                                                /* --------------- CREATE THE IDLE TASK --------------- */
    OSTaskCreate(&OSIdleTaskTCB,
 8000cdc:	4b0f      	ldr	r3, [pc, #60]	@ (8000d1c <OS_IdleTaskInit+0x48>)
 8000cde:	681b      	ldr	r3, [r3, #0]
 8000ce0:	4a0f      	ldr	r2, [pc, #60]	@ (8000d20 <OS_IdleTaskInit+0x4c>)
 8000ce2:	6812      	ldr	r2, [r2, #0]
 8000ce4:	490f      	ldr	r1, [pc, #60]	@ (8000d24 <OS_IdleTaskInit+0x50>)
 8000ce6:	6809      	ldr	r1, [r1, #0]
 8000ce8:	6878      	ldr	r0, [r7, #4]
 8000cea:	9008      	str	r0, [sp, #32]
 8000cec:	200b      	movs	r0, #11
 8000cee:	9007      	str	r0, [sp, #28]
 8000cf0:	2000      	movs	r0, #0
 8000cf2:	9006      	str	r0, [sp, #24]
 8000cf4:	2000      	movs	r0, #0
 8000cf6:	9005      	str	r0, [sp, #20]
 8000cf8:	2000      	movs	r0, #0
 8000cfa:	9004      	str	r0, [sp, #16]
 8000cfc:	9103      	str	r1, [sp, #12]
 8000cfe:	9202      	str	r2, [sp, #8]
 8000d00:	9301      	str	r3, [sp, #4]
 8000d02:	233f      	movs	r3, #63	@ 0x3f
 8000d04:	9300      	str	r3, [sp, #0]
 8000d06:	2300      	movs	r3, #0
 8000d08:	4a07      	ldr	r2, [pc, #28]	@ (8000d28 <OS_IdleTaskInit+0x54>)
 8000d0a:	2100      	movs	r1, #0
 8000d0c:	4807      	ldr	r0, [pc, #28]	@ (8000d2c <OS_IdleTaskInit+0x58>)
 8000d0e:	f000 ffcd 	bl	8001cac <OSTaskCreate>
                  0u,
                  0u,
                 (void       *)0,
                 (OS_OPT_TASK_STK_CHK | (OS_OPT)(OS_OPT_TASK_STK_CLR | OS_OPT_TASK_NO_TLS)),
                  p_err);
}
 8000d12:	bf00      	nop
 8000d14:	3708      	adds	r7, #8
 8000d16:	46bd      	mov	sp, r7
 8000d18:	bd80      	pop	{r7, pc}
 8000d1a:	bf00      	nop
 8000d1c:	08003ee0 	.word	0x08003ee0
 8000d20:	08003ee4 	.word	0x08003ee4
 8000d24:	08003ee8 	.word	0x08003ee8
 8000d28:	08000ca5 	.word	0x08000ca5
 8000d2c:	20000d0c 	.word	0x20000d0c

08000d30 <OS_Pend>:

void  OS_Pend (OS_PEND_OBJ  *p_obj,
               OS_TCB       *p_tcb,
               OS_STATE      pending_on,
               OS_TICK       timeout)
{
 8000d30:	b580      	push	{r7, lr}
 8000d32:	b086      	sub	sp, #24
 8000d34:	af00      	add	r7, sp, #0
 8000d36:	60f8      	str	r0, [r7, #12]
 8000d38:	60b9      	str	r1, [r7, #8]
 8000d3a:	603b      	str	r3, [r7, #0]
 8000d3c:	4613      	mov	r3, r2
 8000d3e:	71fb      	strb	r3, [r7, #7]
    OS_PEND_LIST  *p_pend_list;


    p_tcb->PendOn     = pending_on;                             /* Resource not available, wait until it is             */
 8000d40:	68bb      	ldr	r3, [r7, #8]
 8000d42:	79fa      	ldrb	r2, [r7, #7]
 8000d44:	f883 202c 	strb.w	r2, [r3, #44]	@ 0x2c
    p_tcb->PendStatus = OS_STATUS_PEND_OK;
 8000d48:	68bb      	ldr	r3, [r7, #8]
 8000d4a:	2200      	movs	r2, #0
 8000d4c:	f883 202d 	strb.w	r2, [r3, #45]	@ 0x2d

    OS_TaskBlock(p_tcb,                                         /* Block the task and add it to the tick list if needed */
 8000d50:	6839      	ldr	r1, [r7, #0]
 8000d52:	68b8      	ldr	r0, [r7, #8]
 8000d54:	f000 fafc 	bl	8001350 <OS_TaskBlock>
                 timeout);

    if (p_obj != (OS_PEND_OBJ *)0) {                            /* Add the current task to the pend list ...            */
 8000d58:	68fb      	ldr	r3, [r7, #12]
 8000d5a:	2b00      	cmp	r3, #0
 8000d5c:	d00a      	beq.n	8000d74 <OS_Pend+0x44>
        p_pend_list             = &p_obj->PendList;             /* ... if there is an object to pend on                 */
 8000d5e:	68fb      	ldr	r3, [r7, #12]
 8000d60:	3304      	adds	r3, #4
 8000d62:	617b      	str	r3, [r7, #20]
        p_tcb->PendObjPtr =  p_obj;                             /* Save the pointer to the object pending on            */
 8000d64:	68bb      	ldr	r3, [r7, #8]
 8000d66:	68fa      	ldr	r2, [r7, #12]
 8000d68:	629a      	str	r2, [r3, #40]	@ 0x28
        OS_PendListInsertPrio(p_pend_list,                      /* Insert in the pend list in priority order            */
 8000d6a:	68b9      	ldr	r1, [r7, #8]
 8000d6c:	6978      	ldr	r0, [r7, #20]
 8000d6e:	f000 f835 	bl	8000ddc <OS_PendListInsertPrio>
    }
#if (OS_CFG_DBG_EN > 0u)
    OS_PendDbgNameAdd(p_obj,
                      p_tcb);
#endif
}
 8000d72:	e002      	b.n	8000d7a <OS_Pend+0x4a>
        p_tcb->PendObjPtr = (OS_PEND_OBJ *)0;                   /* If no object being pended on, clear the pend object  */
 8000d74:	68bb      	ldr	r3, [r7, #8]
 8000d76:	2200      	movs	r2, #0
 8000d78:	629a      	str	r2, [r3, #40]	@ 0x28
}
 8000d7a:	bf00      	nop
 8000d7c:	3718      	adds	r7, #24
 8000d7e:	46bd      	mov	sp, r7
 8000d80:	bd80      	pop	{r7, pc}

08000d82 <OS_PendListChangePrio>:
*              2) It's assumed that the TCB contains the NEW priority in its .Prio field.
************************************************************************************************************************
*/

void  OS_PendListChangePrio (OS_TCB  *p_tcb)
{
 8000d82:	b580      	push	{r7, lr}
 8000d84:	b084      	sub	sp, #16
 8000d86:	af00      	add	r7, sp, #0
 8000d88:	6078      	str	r0, [r7, #4]
    OS_PEND_LIST  *p_pend_list;
    OS_PEND_OBJ   *p_obj;

    p_obj       =  p_tcb->PendObjPtr;                           /* Get pointer to pend list                             */
 8000d8a:	687b      	ldr	r3, [r7, #4]
 8000d8c:	6a9b      	ldr	r3, [r3, #40]	@ 0x28
 8000d8e:	60fb      	str	r3, [r7, #12]
    p_pend_list = &p_obj->PendList;
 8000d90:	68fb      	ldr	r3, [r7, #12]
 8000d92:	3304      	adds	r3, #4
 8000d94:	60bb      	str	r3, [r7, #8]

    if (p_pend_list->HeadPtr->PendNextPtr != (OS_TCB *)0) {     /* Only move if multiple entries in the list            */
 8000d96:	68bb      	ldr	r3, [r7, #8]
 8000d98:	681b      	ldr	r3, [r3, #0]
 8000d9a:	6a1b      	ldr	r3, [r3, #32]
 8000d9c:	2b00      	cmp	r3, #0
 8000d9e:	d009      	beq.n	8000db4 <OS_PendListChangePrio+0x32>
            OS_PendListRemove(p_tcb);                           /* Remove entry from current position                   */
 8000da0:	6878      	ldr	r0, [r7, #4]
 8000da2:	f000 f87e 	bl	8000ea2 <OS_PendListRemove>
            p_tcb->PendObjPtr = p_obj;
 8000da6:	687b      	ldr	r3, [r7, #4]
 8000da8:	68fa      	ldr	r2, [r7, #12]
 8000daa:	629a      	str	r2, [r3, #40]	@ 0x28
            OS_PendListInsertPrio(p_pend_list,                  /* INSERT it back in the list                           */
 8000dac:	6879      	ldr	r1, [r7, #4]
 8000dae:	68b8      	ldr	r0, [r7, #8]
 8000db0:	f000 f814 	bl	8000ddc <OS_PendListInsertPrio>
                                  p_tcb);
    }
}
 8000db4:	bf00      	nop
 8000db6:	3710      	adds	r7, #16
 8000db8:	46bd      	mov	sp, r7
 8000dba:	bd80      	pop	{r7, pc}

08000dbc <OS_PendListInit>:
* Note(s)    : 1) This function is INTERNAL to uC/OS-III and your application must not call it.
************************************************************************************************************************
*/

void  OS_PendListInit (OS_PEND_LIST  *p_pend_list)
{
 8000dbc:	b480      	push	{r7}
 8000dbe:	b083      	sub	sp, #12
 8000dc0:	af00      	add	r7, sp, #0
 8000dc2:	6078      	str	r0, [r7, #4]
    p_pend_list->HeadPtr    = (OS_TCB *)0;
 8000dc4:	687b      	ldr	r3, [r7, #4]
 8000dc6:	2200      	movs	r2, #0
 8000dc8:	601a      	str	r2, [r3, #0]
    p_pend_list->TailPtr    = (OS_TCB *)0;
 8000dca:	687b      	ldr	r3, [r7, #4]
 8000dcc:	2200      	movs	r2, #0
 8000dce:	605a      	str	r2, [r3, #4]
#if (OS_CFG_DBG_EN > 0u)
    p_pend_list->NbrEntries =           0u;
#endif
}
 8000dd0:	bf00      	nop
 8000dd2:	370c      	adds	r7, #12
 8000dd4:	46bd      	mov	sp, r7
 8000dd6:	f85d 7b04 	ldr.w	r7, [sp], #4
 8000dda:	4770      	bx	lr

08000ddc <OS_PendListInsertPrio>:
************************************************************************************************************************
*/

void  OS_PendListInsertPrio (OS_PEND_LIST  *p_pend_list,
                             OS_TCB        *p_tcb)
{
 8000ddc:	b480      	push	{r7}
 8000dde:	b085      	sub	sp, #20
 8000de0:	af00      	add	r7, sp, #0
 8000de2:	6078      	str	r0, [r7, #4]
 8000de4:	6039      	str	r1, [r7, #0]
    OS_PRIO   prio;
    OS_TCB   *p_tcb_next;


    prio  = p_tcb->Prio;                                        /* Obtain the priority of the task to insert            */
 8000de6:	683b      	ldr	r3, [r7, #0]
 8000de8:	f893 302f 	ldrb.w	r3, [r3, #47]	@ 0x2f
 8000dec:	72fb      	strb	r3, [r7, #11]

    if (p_pend_list->HeadPtr == (OS_TCB *)0) {                  /* CASE 0: Insert when there are no entries             */
 8000dee:	687b      	ldr	r3, [r7, #4]
 8000df0:	681b      	ldr	r3, [r3, #0]
 8000df2:	2b00      	cmp	r3, #0
 8000df4:	d10c      	bne.n	8000e10 <OS_PendListInsertPrio+0x34>
#if (OS_CFG_DBG_EN > 0u)
        p_pend_list->NbrEntries = 1u;                           /* This is the first entry                              */
#endif
        p_tcb->PendNextPtr   = (OS_TCB *)0;                     /* No other OS_TCBs in the list                         */
 8000df6:	683b      	ldr	r3, [r7, #0]
 8000df8:	2200      	movs	r2, #0
 8000dfa:	621a      	str	r2, [r3, #32]
        p_tcb->PendPrevPtr   = (OS_TCB *)0;
 8000dfc:	683b      	ldr	r3, [r7, #0]
 8000dfe:	2200      	movs	r2, #0
 8000e00:	625a      	str	r2, [r3, #36]	@ 0x24
        p_pend_list->HeadPtr =  p_tcb;
 8000e02:	687b      	ldr	r3, [r7, #4]
 8000e04:	683a      	ldr	r2, [r7, #0]
 8000e06:	601a      	str	r2, [r3, #0]
        p_pend_list->TailPtr =  p_tcb;
 8000e08:	687b      	ldr	r3, [r7, #4]
 8000e0a:	683a      	ldr	r2, [r7, #0]
 8000e0c:	605a      	str	r2, [r3, #4]
                p_tcb->PendPrevPtr->PendNextPtr = p_tcb;
                p_tcb_next->PendPrevPtr         = p_tcb;
            }
        }
    }
}
 8000e0e:	e042      	b.n	8000e96 <OS_PendListInsertPrio+0xba>
        p_tcb_next = p_pend_list->HeadPtr;
 8000e10:	687b      	ldr	r3, [r7, #4]
 8000e12:	681b      	ldr	r3, [r3, #0]
 8000e14:	60fb      	str	r3, [r7, #12]
        while (p_tcb_next != (OS_TCB *)0) {                     /* Find the position where to insert                    */
 8000e16:	e008      	b.n	8000e2a <OS_PendListInsertPrio+0x4e>
            if (prio < p_tcb_next->Prio) {
 8000e18:	68fb      	ldr	r3, [r7, #12]
 8000e1a:	f893 302f 	ldrb.w	r3, [r3, #47]	@ 0x2f
 8000e1e:	7afa      	ldrb	r2, [r7, #11]
 8000e20:	429a      	cmp	r2, r3
 8000e22:	d306      	bcc.n	8000e32 <OS_PendListInsertPrio+0x56>
                p_tcb_next = p_tcb_next->PendNextPtr;           /* Not Found, follow the list                           */
 8000e24:	68fb      	ldr	r3, [r7, #12]
 8000e26:	6a1b      	ldr	r3, [r3, #32]
 8000e28:	60fb      	str	r3, [r7, #12]
        while (p_tcb_next != (OS_TCB *)0) {                     /* Find the position where to insert                    */
 8000e2a:	68fb      	ldr	r3, [r7, #12]
 8000e2c:	2b00      	cmp	r3, #0
 8000e2e:	d1f3      	bne.n	8000e18 <OS_PendListInsertPrio+0x3c>
 8000e30:	e000      	b.n	8000e34 <OS_PendListInsertPrio+0x58>
                break;                                          /* Found! ... insert BEFORE current                     */
 8000e32:	bf00      	nop
        if (p_tcb_next == (OS_TCB *)0) {                        /* TCB to insert is lowest in priority                  */
 8000e34:	68fb      	ldr	r3, [r7, #12]
 8000e36:	2b00      	cmp	r3, #0
 8000e38:	d10e      	bne.n	8000e58 <OS_PendListInsertPrio+0x7c>
            p_tcb->PendNextPtr              = (OS_TCB *)0;      /* ... insert at the tail.                              */
 8000e3a:	683b      	ldr	r3, [r7, #0]
 8000e3c:	2200      	movs	r2, #0
 8000e3e:	621a      	str	r2, [r3, #32]
            p_tcb->PendPrevPtr              =  p_pend_list->TailPtr;
 8000e40:	687b      	ldr	r3, [r7, #4]
 8000e42:	685a      	ldr	r2, [r3, #4]
 8000e44:	683b      	ldr	r3, [r7, #0]
 8000e46:	625a      	str	r2, [r3, #36]	@ 0x24
            p_tcb->PendPrevPtr->PendNextPtr =  p_tcb;
 8000e48:	683b      	ldr	r3, [r7, #0]
 8000e4a:	6a5b      	ldr	r3, [r3, #36]	@ 0x24
 8000e4c:	683a      	ldr	r2, [r7, #0]
 8000e4e:	621a      	str	r2, [r3, #32]
            p_pend_list->TailPtr            =  p_tcb;
 8000e50:	687b      	ldr	r3, [r7, #4]
 8000e52:	683a      	ldr	r2, [r7, #0]
 8000e54:	605a      	str	r2, [r3, #4]
}
 8000e56:	e01e      	b.n	8000e96 <OS_PendListInsertPrio+0xba>
            if (p_tcb_next->PendPrevPtr == (OS_TCB *)0) {       /* Is new TCB highest priority?                         */
 8000e58:	68fb      	ldr	r3, [r7, #12]
 8000e5a:	6a5b      	ldr	r3, [r3, #36]	@ 0x24
 8000e5c:	2b00      	cmp	r3, #0
 8000e5e:	d10c      	bne.n	8000e7a <OS_PendListInsertPrio+0x9e>
                p_tcb->PendNextPtr      =  p_tcb_next;          /* Yes, insert as new Head of list                      */
 8000e60:	683b      	ldr	r3, [r7, #0]
 8000e62:	68fa      	ldr	r2, [r7, #12]
 8000e64:	621a      	str	r2, [r3, #32]
                p_tcb->PendPrevPtr      = (OS_TCB *)0;
 8000e66:	683b      	ldr	r3, [r7, #0]
 8000e68:	2200      	movs	r2, #0
 8000e6a:	625a      	str	r2, [r3, #36]	@ 0x24
                p_tcb_next->PendPrevPtr =  p_tcb;
 8000e6c:	68fb      	ldr	r3, [r7, #12]
 8000e6e:	683a      	ldr	r2, [r7, #0]
 8000e70:	625a      	str	r2, [r3, #36]	@ 0x24
                p_pend_list->HeadPtr    =  p_tcb;
 8000e72:	687b      	ldr	r3, [r7, #4]
 8000e74:	683a      	ldr	r2, [r7, #0]
 8000e76:	601a      	str	r2, [r3, #0]
}
 8000e78:	e00d      	b.n	8000e96 <OS_PendListInsertPrio+0xba>
                p_tcb->PendNextPtr              = p_tcb_next;
 8000e7a:	683b      	ldr	r3, [r7, #0]
 8000e7c:	68fa      	ldr	r2, [r7, #12]
 8000e7e:	621a      	str	r2, [r3, #32]
                p_tcb->PendPrevPtr              = p_tcb_next->PendPrevPtr;
 8000e80:	68fb      	ldr	r3, [r7, #12]
 8000e82:	6a5a      	ldr	r2, [r3, #36]	@ 0x24
 8000e84:	683b      	ldr	r3, [r7, #0]
 8000e86:	625a      	str	r2, [r3, #36]	@ 0x24
                p_tcb->PendPrevPtr->PendNextPtr = p_tcb;
 8000e88:	683b      	ldr	r3, [r7, #0]
 8000e8a:	6a5b      	ldr	r3, [r3, #36]	@ 0x24
 8000e8c:	683a      	ldr	r2, [r7, #0]
 8000e8e:	621a      	str	r2, [r3, #32]
                p_tcb_next->PendPrevPtr         = p_tcb;
 8000e90:	68fb      	ldr	r3, [r7, #12]
 8000e92:	683a      	ldr	r2, [r7, #0]
 8000e94:	625a      	str	r2, [r3, #36]	@ 0x24
}
 8000e96:	bf00      	nop
 8000e98:	3714      	adds	r7, #20
 8000e9a:	46bd      	mov	sp, r7
 8000e9c:	f85d 7b04 	ldr.w	r7, [sp], #4
 8000ea0:	4770      	bx	lr

08000ea2 <OS_PendListRemove>:
* Note(s)    : 1) This function is INTERNAL to uC/OS-III and your application MUST NOT call it.
************************************************************************************************************************
*/

void  OS_PendListRemove (OS_TCB  *p_tcb)
{
 8000ea2:	b480      	push	{r7}
 8000ea4:	b087      	sub	sp, #28
 8000ea6:	af00      	add	r7, sp, #0
 8000ea8:	6078      	str	r0, [r7, #4]
    OS_PEND_LIST  *p_pend_list;
    OS_TCB        *p_next;
    OS_TCB        *p_prev;


    if (p_tcb->PendObjPtr != (OS_PEND_OBJ *)0) {                /* Only remove if object has a pend list.               */
 8000eaa:	687b      	ldr	r3, [r7, #4]
 8000eac:	6a9b      	ldr	r3, [r3, #40]	@ 0x28
 8000eae:	2b00      	cmp	r3, #0
 8000eb0:	d040      	beq.n	8000f34 <OS_PendListRemove+0x92>
        p_pend_list = &p_tcb->PendObjPtr->PendList;             /* Get pointer to pend list                             */
 8000eb2:	687b      	ldr	r3, [r7, #4]
 8000eb4:	6a9b      	ldr	r3, [r3, #40]	@ 0x28
 8000eb6:	3304      	adds	r3, #4
 8000eb8:	617b      	str	r3, [r7, #20]

                                                                /* Remove TCB from the pend list.                       */
        if (p_pend_list->HeadPtr->PendNextPtr == (OS_TCB *)0) {
 8000eba:	697b      	ldr	r3, [r7, #20]
 8000ebc:	681b      	ldr	r3, [r3, #0]
 8000ebe:	6a1b      	ldr	r3, [r3, #32]
 8000ec0:	2b00      	cmp	r3, #0
 8000ec2:	d106      	bne.n	8000ed2 <OS_PendListRemove+0x30>
            p_pend_list->HeadPtr = (OS_TCB *)0;                 /* Only one entry in the pend list                      */
 8000ec4:	697b      	ldr	r3, [r7, #20]
 8000ec6:	2200      	movs	r2, #0
 8000ec8:	601a      	str	r2, [r3, #0]
            p_pend_list->TailPtr = (OS_TCB *)0;
 8000eca:	697b      	ldr	r3, [r7, #20]
 8000ecc:	2200      	movs	r2, #0
 8000ece:	605a      	str	r2, [r3, #4]
 8000ed0:	e027      	b.n	8000f22 <OS_PendListRemove+0x80>
        } else if (p_tcb->PendPrevPtr == (OS_TCB *)0) {         /* See if entry is at the head of the list              */
 8000ed2:	687b      	ldr	r3, [r7, #4]
 8000ed4:	6a5b      	ldr	r3, [r3, #36]	@ 0x24
 8000ed6:	2b00      	cmp	r3, #0
 8000ed8:	d109      	bne.n	8000eee <OS_PendListRemove+0x4c>
            p_next               =  p_tcb->PendNextPtr;         /* Yes                                                  */
 8000eda:	687b      	ldr	r3, [r7, #4]
 8000edc:	6a1b      	ldr	r3, [r3, #32]
 8000ede:	60fb      	str	r3, [r7, #12]
            p_next->PendPrevPtr  = (OS_TCB *)0;
 8000ee0:	68fb      	ldr	r3, [r7, #12]
 8000ee2:	2200      	movs	r2, #0
 8000ee4:	625a      	str	r2, [r3, #36]	@ 0x24
            p_pend_list->HeadPtr =  p_next;
 8000ee6:	697b      	ldr	r3, [r7, #20]
 8000ee8:	68fa      	ldr	r2, [r7, #12]
 8000eea:	601a      	str	r2, [r3, #0]
 8000eec:	e019      	b.n	8000f22 <OS_PendListRemove+0x80>

        } else if (p_tcb->PendNextPtr == (OS_TCB *)0) {         /* See if entry is at the tail of the list              */
 8000eee:	687b      	ldr	r3, [r7, #4]
 8000ef0:	6a1b      	ldr	r3, [r3, #32]
 8000ef2:	2b00      	cmp	r3, #0
 8000ef4:	d109      	bne.n	8000f0a <OS_PendListRemove+0x68>
            p_prev               =  p_tcb->PendPrevPtr;         /* Yes                                                  */
 8000ef6:	687b      	ldr	r3, [r7, #4]
 8000ef8:	6a5b      	ldr	r3, [r3, #36]	@ 0x24
 8000efa:	613b      	str	r3, [r7, #16]
            p_prev->PendNextPtr  = (OS_TCB *)0;
 8000efc:	693b      	ldr	r3, [r7, #16]
 8000efe:	2200      	movs	r2, #0
 8000f00:	621a      	str	r2, [r3, #32]
            p_pend_list->TailPtr =  p_prev;
 8000f02:	697b      	ldr	r3, [r7, #20]
 8000f04:	693a      	ldr	r2, [r7, #16]
 8000f06:	605a      	str	r2, [r3, #4]
 8000f08:	e00b      	b.n	8000f22 <OS_PendListRemove+0x80>

        } else {
            p_prev               = p_tcb->PendPrevPtr;          /* Remove from inside the list                          */
 8000f0a:	687b      	ldr	r3, [r7, #4]
 8000f0c:	6a5b      	ldr	r3, [r3, #36]	@ 0x24
 8000f0e:	613b      	str	r3, [r7, #16]
            p_next               = p_tcb->PendNextPtr;
 8000f10:	687b      	ldr	r3, [r7, #4]
 8000f12:	6a1b      	ldr	r3, [r3, #32]
 8000f14:	60fb      	str	r3, [r7, #12]
            p_prev->PendNextPtr  = p_next;
 8000f16:	693b      	ldr	r3, [r7, #16]
 8000f18:	68fa      	ldr	r2, [r7, #12]
 8000f1a:	621a      	str	r2, [r3, #32]
            p_next->PendPrevPtr  = p_prev;
 8000f1c:	68fb      	ldr	r3, [r7, #12]
 8000f1e:	693a      	ldr	r2, [r7, #16]
 8000f20:	625a      	str	r2, [r3, #36]	@ 0x24
        }
#if (OS_CFG_DBG_EN > 0u)
        p_pend_list->NbrEntries--;                              /* One less entry in the list                           */
#endif
        p_tcb->PendNextPtr = (OS_TCB      *)0;
 8000f22:	687b      	ldr	r3, [r7, #4]
 8000f24:	2200      	movs	r2, #0
 8000f26:	621a      	str	r2, [r3, #32]
        p_tcb->PendPrevPtr = (OS_TCB      *)0;
 8000f28:	687b      	ldr	r3, [r7, #4]
 8000f2a:	2200      	movs	r2, #0
 8000f2c:	625a      	str	r2, [r3, #36]	@ 0x24
        p_tcb->PendObjPtr  = (OS_PEND_OBJ *)0;
 8000f2e:	687b      	ldr	r3, [r7, #4]
 8000f30:	2200      	movs	r2, #0
 8000f32:	629a      	str	r2, [r3, #40]	@ 0x28
    }
}
 8000f34:	bf00      	nop
 8000f36:	371c      	adds	r7, #28
 8000f38:	46bd      	mov	sp, r7
 8000f3a:	f85d 7b04 	ldr.w	r7, [sp], #4
 8000f3e:	4770      	bx	lr

08000f40 <OS_Post>:
void  OS_Post (OS_PEND_OBJ  *p_obj,
               OS_TCB       *p_tcb,
               void         *p_void,
               OS_MSG_SIZE   msg_size,
               CPU_TS        ts)
{
 8000f40:	b580      	push	{r7, lr}
 8000f42:	b084      	sub	sp, #16
 8000f44:	af00      	add	r7, sp, #0
 8000f46:	60f8      	str	r0, [r7, #12]
 8000f48:	60b9      	str	r1, [r7, #8]
 8000f4a:	607a      	str	r2, [r7, #4]
 8000f4c:	807b      	strh	r3, [r7, #2]
#if (OS_MSG_EN == 0u)
    (void)p_void;
    (void)msg_size;
#endif

    switch (p_tcb->TaskState) {
 8000f4e:	68bb      	ldr	r3, [r7, #8]
 8000f50:	f893 302e 	ldrb.w	r3, [r3, #46]	@ 0x2e
 8000f54:	2b07      	cmp	r3, #7
 8000f56:	d85a      	bhi.n	800100e <OS_Post+0xce>
 8000f58:	a201      	add	r2, pc, #4	@ (adr r2, 8000f60 <OS_Post+0x20>)
 8000f5a:	f852 f023 	ldr.w	pc, [r2, r3, lsl #2]
 8000f5e:	bf00      	nop
 8000f60:	0800100f 	.word	0x0800100f
 8000f64:	0800100f 	.word	0x0800100f
 8000f68:	08000f81 	.word	0x08000f81
 8000f6c:	08000f81 	.word	0x08000f81
 8000f70:	0800100f 	.word	0x0800100f
 8000f74:	0800100f 	.word	0x0800100f
 8000f78:	08000fcb 	.word	0x08000fcb
 8000f7c:	08000fcb 	.word	0x08000fcb
             break;

        case OS_TASK_STATE_PEND:
        case OS_TASK_STATE_PEND_TIMEOUT:
#if (OS_MSG_EN > 0u)
             p_tcb->MsgPtr  = p_void;                           /* Deposit message in OS_TCB of task waiting            */
 8000f80:	68bb      	ldr	r3, [r7, #8]
 8000f82:	687a      	ldr	r2, [r7, #4]
 8000f84:	655a      	str	r2, [r3, #84]	@ 0x54
             p_tcb->MsgSize = msg_size;                         /* ... assuming posting a message                       */
 8000f86:	68bb      	ldr	r3, [r7, #8]
 8000f88:	887a      	ldrh	r2, [r7, #2]
 8000f8a:	f8a3 2058 	strh.w	r2, [r3, #88]	@ 0x58
#endif
#if (OS_CFG_TS_EN > 0u)
                 p_tcb->TS      = ts;
#endif
             if (p_obj != (OS_PEND_OBJ *)0) {
 8000f8e:	68fb      	ldr	r3, [r7, #12]
 8000f90:	2b00      	cmp	r3, #0
 8000f92:	d002      	beq.n	8000f9a <OS_Post+0x5a>
                 OS_PendListRemove(p_tcb);                      /* Remove task from pend list                           */
 8000f94:	68b8      	ldr	r0, [r7, #8]
 8000f96:	f7ff ff84 	bl	8000ea2 <OS_PendListRemove>
#if (OS_CFG_DBG_EN > 0u)
             OS_PendDbgNameRemove(p_obj,
                                  p_tcb);
#endif
#if (OS_CFG_TICK_EN > 0u)
             if (p_tcb->TaskState == OS_TASK_STATE_PEND_TIMEOUT) {
 8000f9a:	68bb      	ldr	r3, [r7, #8]
 8000f9c:	f893 302e 	ldrb.w	r3, [r3, #46]	@ 0x2e
 8000fa0:	2b03      	cmp	r3, #3
 8000fa2:	d102      	bne.n	8000faa <OS_Post+0x6a>
                 OS_TickListRemove(p_tcb);                      /* Remove from tick list                                */
 8000fa4:	68b8      	ldr	r0, [r7, #8]
 8000fa6:	f001 fb53 	bl	8002650 <OS_TickListRemove>
             }
#endif
             OS_RdyListInsert(p_tcb);                           /* Insert the task in the ready list                    */
 8000faa:	68b8      	ldr	r0, [r7, #8]
 8000fac:	f000 f854 	bl	8001058 <OS_RdyListInsert>
             p_tcb->TaskState  = OS_TASK_STATE_RDY;
 8000fb0:	68bb      	ldr	r3, [r7, #8]
 8000fb2:	2200      	movs	r2, #0
 8000fb4:	f883 202e 	strb.w	r2, [r3, #46]	@ 0x2e
             p_tcb->PendStatus = OS_STATUS_PEND_OK;             /* Clear pend status                                    */
 8000fb8:	68bb      	ldr	r3, [r7, #8]
 8000fba:	2200      	movs	r2, #0
 8000fbc:	f883 202d 	strb.w	r2, [r3, #45]	@ 0x2d
             p_tcb->PendOn     = OS_TASK_PEND_ON_NOTHING;       /* Indicate no longer pending                           */
 8000fc0:	68bb      	ldr	r3, [r7, #8]
 8000fc2:	2200      	movs	r2, #0
 8000fc4:	f883 202c 	strb.w	r2, [r3, #44]	@ 0x2c
             break;
 8000fc8:	e022      	b.n	8001010 <OS_Post+0xd0>

        case OS_TASK_STATE_PEND_SUSPENDED:
        case OS_TASK_STATE_PEND_TIMEOUT_SUSPENDED:
#if (OS_MSG_EN > 0u)
             p_tcb->MsgPtr  = p_void;                           /* Deposit message in OS_TCB of task waiting            */
 8000fca:	68bb      	ldr	r3, [r7, #8]
 8000fcc:	687a      	ldr	r2, [r7, #4]
 8000fce:	655a      	str	r2, [r3, #84]	@ 0x54
             p_tcb->MsgSize = msg_size;                         /* ... assuming posting a message                       */
 8000fd0:	68bb      	ldr	r3, [r7, #8]
 8000fd2:	887a      	ldrh	r2, [r7, #2]
 8000fd4:	f8a3 2058 	strh.w	r2, [r3, #88]	@ 0x58
#endif
#if (OS_CFG_TS_EN > 0u)
             p_tcb->TS      = ts;
#endif
             if (p_obj != (OS_PEND_OBJ *)0) {
 8000fd8:	68fb      	ldr	r3, [r7, #12]
 8000fda:	2b00      	cmp	r3, #0
 8000fdc:	d002      	beq.n	8000fe4 <OS_Post+0xa4>
                 OS_PendListRemove(p_tcb);                      /* Remove from pend list                                */
 8000fde:	68b8      	ldr	r0, [r7, #8]
 8000fe0:	f7ff ff5f 	bl	8000ea2 <OS_PendListRemove>
#if (OS_CFG_DBG_EN > 0u)
             OS_PendDbgNameRemove(p_obj,
                                  p_tcb);
#endif
#if (OS_CFG_TICK_EN > 0u)
             if (p_tcb->TaskState == OS_TASK_STATE_PEND_TIMEOUT_SUSPENDED) {
 8000fe4:	68bb      	ldr	r3, [r7, #8]
 8000fe6:	f893 302e 	ldrb.w	r3, [r3, #46]	@ 0x2e
 8000fea:	2b07      	cmp	r3, #7
 8000fec:	d102      	bne.n	8000ff4 <OS_Post+0xb4>
                 OS_TickListRemove(p_tcb);                      /* Cancel any timeout                                   */
 8000fee:	68b8      	ldr	r0, [r7, #8]
 8000ff0:	f001 fb2e 	bl	8002650 <OS_TickListRemove>
             }
#endif
             p_tcb->TaskState  = OS_TASK_STATE_SUSPENDED;
 8000ff4:	68bb      	ldr	r3, [r7, #8]
 8000ff6:	2204      	movs	r2, #4
 8000ff8:	f883 202e 	strb.w	r2, [r3, #46]	@ 0x2e
             p_tcb->PendStatus = OS_STATUS_PEND_OK;             /* Clear pend status                                    */
 8000ffc:	68bb      	ldr	r3, [r7, #8]
 8000ffe:	2200      	movs	r2, #0
 8001000:	f883 202d 	strb.w	r2, [r3, #45]	@ 0x2d
             p_tcb->PendOn     = OS_TASK_PEND_ON_NOTHING;       /* Indicate no longer pending                           */
 8001004:	68bb      	ldr	r3, [r7, #8]
 8001006:	2200      	movs	r2, #0
 8001008:	f883 202c 	strb.w	r2, [r3, #44]	@ 0x2c
             break;
 800100c:	e000      	b.n	8001010 <OS_Post+0xd0>

        default:
                                                                /* Default case.                                        */
             break;
 800100e:	bf00      	nop
    }
}
 8001010:	bf00      	nop
 8001012:	3710      	adds	r7, #16
 8001014:	46bd      	mov	sp, r7
 8001016:	bd80      	pop	{r7, pc}

08001018 <OS_RdyListInit>:
* Note(s)    : This function is INTERNAL to uC/OS-III and your application should not call it.
************************************************************************************************************************
*/

void  OS_RdyListInit (void)
{
 8001018:	b480      	push	{r7}
 800101a:	b083      	sub	sp, #12
 800101c:	af00      	add	r7, sp, #0
    CPU_INT32U    i;
    OS_RDY_LIST  *p_rdy_list;



    for (i = 0u; i < OS_CFG_PRIO_MAX; i++) {                    /* Initialize the array of OS_RDY_LIST at each priority */
 800101e:	2300      	movs	r3, #0
 8001020:	607b      	str	r3, [r7, #4]
 8001022:	e00d      	b.n	8001040 <OS_RdyListInit+0x28>
        p_rdy_list = &OSRdyList[i];
 8001024:	687b      	ldr	r3, [r7, #4]
 8001026:	00db      	lsls	r3, r3, #3
 8001028:	4a0a      	ldr	r2, [pc, #40]	@ (8001054 <OS_RdyListInit+0x3c>)
 800102a:	4413      	add	r3, r2
 800102c:	603b      	str	r3, [r7, #0]
#if (OS_CFG_DBG_EN > 0u)
        p_rdy_list->NbrEntries =           0u;
#endif
        p_rdy_list->HeadPtr    = (OS_TCB *)0;
 800102e:	683b      	ldr	r3, [r7, #0]
 8001030:	2200      	movs	r2, #0
 8001032:	601a      	str	r2, [r3, #0]
        p_rdy_list->TailPtr    = (OS_TCB *)0;
 8001034:	683b      	ldr	r3, [r7, #0]
 8001036:	2200      	movs	r2, #0
 8001038:	605a      	str	r2, [r3, #4]
    for (i = 0u; i < OS_CFG_PRIO_MAX; i++) {                    /* Initialize the array of OS_RDY_LIST at each priority */
 800103a:	687b      	ldr	r3, [r7, #4]
 800103c:	3301      	adds	r3, #1
 800103e:	607b      	str	r3, [r7, #4]
 8001040:	687b      	ldr	r3, [r7, #4]
 8001042:	2b3f      	cmp	r3, #63	@ 0x3f
 8001044:	d9ee      	bls.n	8001024 <OS_RdyListInit+0xc>
    }
}
 8001046:	bf00      	nop
 8001048:	bf00      	nop
 800104a:	370c      	adds	r7, #12
 800104c:	46bd      	mov	sp, r7
 800104e:	f85d 7b04 	ldr.w	r7, [sp], #4
 8001052:	4770      	bx	lr
 8001054:	20000dd4 	.word	0x20000dd4

08001058 <OS_RdyListInsert>:
* Note(s)    : This function is INTERNAL to uC/OS-III and your application should not call it.
************************************************************************************************************************
*/

void  OS_RdyListInsert (OS_TCB  *p_tcb)
{
 8001058:	b580      	push	{r7, lr}
 800105a:	b082      	sub	sp, #8
 800105c:	af00      	add	r7, sp, #0
 800105e:	6078      	str	r0, [r7, #4]
    OS_PrioInsert(p_tcb->Prio);
 8001060:	687b      	ldr	r3, [r7, #4]
 8001062:	f893 302f 	ldrb.w	r3, [r3, #47]	@ 0x2f
 8001066:	4618      	mov	r0, r3
 8001068:	f000 fc52 	bl	8001910 <OS_PrioInsert>
    if (p_tcb->Prio == OSPrioCur) {                             /* Are we readying a task at the same prio?             */
 800106c:	687b      	ldr	r3, [r7, #4]
 800106e:	f893 202f 	ldrb.w	r2, [r3, #47]	@ 0x2f
 8001072:	4b07      	ldr	r3, [pc, #28]	@ (8001090 <OS_RdyListInsert+0x38>)
 8001074:	781b      	ldrb	r3, [r3, #0]
 8001076:	429a      	cmp	r2, r3
 8001078:	d103      	bne.n	8001082 <OS_RdyListInsert+0x2a>
        OS_RdyListInsertTail(p_tcb);                            /* Yes, insert readied task at the end of the list      */
 800107a:	6878      	ldr	r0, [r7, #4]
 800107c:	f000 f83e 	bl	80010fc <OS_RdyListInsertTail>
    } else {
        OS_RdyListInsertHead(p_tcb);                            /* No,  insert readied task at the beginning of the list*/
    }

    OS_TRACE_TASK_READY(p_tcb);
}
 8001080:	e002      	b.n	8001088 <OS_RdyListInsert+0x30>
        OS_RdyListInsertHead(p_tcb);                            /* No,  insert readied task at the beginning of the list*/
 8001082:	6878      	ldr	r0, [r7, #4]
 8001084:	f000 f806 	bl	8001094 <OS_RdyListInsertHead>
}
 8001088:	bf00      	nop
 800108a:	3708      	adds	r7, #8
 800108c:	46bd      	mov	sp, r7
 800108e:	bd80      	pop	{r7, pc}
 8001090:	20000dc8 	.word	0x20000dc8

08001094 <OS_RdyListInsertHead>:
* Note(s)    : 1) This function is INTERNAL to uC/OS-III and your application MUST NOT call it.
************************************************************************************************************************
*/

void  OS_RdyListInsertHead (OS_TCB  *p_tcb)
{
 8001094:	b480      	push	{r7}
 8001096:	b085      	sub	sp, #20
 8001098:	af00      	add	r7, sp, #0
 800109a:	6078      	str	r0, [r7, #4]
    OS_RDY_LIST  *p_rdy_list;
    OS_TCB       *p_tcb2;



    p_rdy_list = &OSRdyList[p_tcb->Prio];
 800109c:	687b      	ldr	r3, [r7, #4]
 800109e:	f893 302f 	ldrb.w	r3, [r3, #47]	@ 0x2f
 80010a2:	00db      	lsls	r3, r3, #3
 80010a4:	4a14      	ldr	r2, [pc, #80]	@ (80010f8 <OS_RdyListInsertHead+0x64>)
 80010a6:	4413      	add	r3, r2
 80010a8:	60fb      	str	r3, [r7, #12]
    if (p_rdy_list->HeadPtr == (OS_TCB *)0) {                   /* CASE 0: Insert when there are no entries             */
 80010aa:	68fb      	ldr	r3, [r7, #12]
 80010ac:	681b      	ldr	r3, [r3, #0]
 80010ae:	2b00      	cmp	r3, #0
 80010b0:	d10c      	bne.n	80010cc <OS_RdyListInsertHead+0x38>
#if (OS_CFG_DBG_EN > 0u)
        p_rdy_list->NbrEntries =           1u;                  /* This is the first entry                              */
#endif
        p_tcb->NextPtr         = (OS_TCB *)0;                   /* No other OS_TCBs in the list                         */
 80010b2:	687b      	ldr	r3, [r7, #4]
 80010b4:	2200      	movs	r2, #0
 80010b6:	60da      	str	r2, [r3, #12]
        p_tcb->PrevPtr         = (OS_TCB *)0;
 80010b8:	687b      	ldr	r3, [r7, #4]
 80010ba:	2200      	movs	r2, #0
 80010bc:	611a      	str	r2, [r3, #16]
        p_rdy_list->HeadPtr    =  p_tcb;                        /* Both list pointers point to this OS_TCB              */
 80010be:	68fb      	ldr	r3, [r7, #12]
 80010c0:	687a      	ldr	r2, [r7, #4]
 80010c2:	601a      	str	r2, [r3, #0]
        p_rdy_list->TailPtr    =  p_tcb;
 80010c4:	68fb      	ldr	r3, [r7, #12]
 80010c6:	687a      	ldr	r2, [r7, #4]
 80010c8:	605a      	str	r2, [r3, #4]
        p_tcb->PrevPtr         = (OS_TCB *)0;
        p_tcb2                 =  p_rdy_list->HeadPtr;          /* Adjust old head of list's links                      */
        p_tcb2->PrevPtr        =  p_tcb;
        p_rdy_list->HeadPtr    =  p_tcb;
    }
}
 80010ca:	e00f      	b.n	80010ec <OS_RdyListInsertHead+0x58>
        p_tcb->NextPtr         =  p_rdy_list->HeadPtr;          /* Adjust new OS_TCBs links                             */
 80010cc:	68fb      	ldr	r3, [r7, #12]
 80010ce:	681a      	ldr	r2, [r3, #0]
 80010d0:	687b      	ldr	r3, [r7, #4]
 80010d2:	60da      	str	r2, [r3, #12]
        p_tcb->PrevPtr         = (OS_TCB *)0;
 80010d4:	687b      	ldr	r3, [r7, #4]
 80010d6:	2200      	movs	r2, #0
 80010d8:	611a      	str	r2, [r3, #16]
        p_tcb2                 =  p_rdy_list->HeadPtr;          /* Adjust old head of list's links                      */
 80010da:	68fb      	ldr	r3, [r7, #12]
 80010dc:	681b      	ldr	r3, [r3, #0]
 80010de:	60bb      	str	r3, [r7, #8]
        p_tcb2->PrevPtr        =  p_tcb;
 80010e0:	68bb      	ldr	r3, [r7, #8]
 80010e2:	687a      	ldr	r2, [r7, #4]
 80010e4:	611a      	str	r2, [r3, #16]
        p_rdy_list->HeadPtr    =  p_tcb;
 80010e6:	68fb      	ldr	r3, [r7, #12]
 80010e8:	687a      	ldr	r2, [r7, #4]
 80010ea:	601a      	str	r2, [r3, #0]
}
 80010ec:	bf00      	nop
 80010ee:	3714      	adds	r7, #20
 80010f0:	46bd      	mov	sp, r7
 80010f2:	f85d 7b04 	ldr.w	r7, [sp], #4
 80010f6:	4770      	bx	lr
 80010f8:	20000dd4 	.word	0x20000dd4

080010fc <OS_RdyListInsertTail>:
* Note(s)    : 1) This function is INTERNAL to uC/OS-III and your application MUST NOT call it.
************************************************************************************************************************
*/

void  OS_RdyListInsertTail (OS_TCB  *p_tcb)
{
 80010fc:	b480      	push	{r7}
 80010fe:	b085      	sub	sp, #20
 8001100:	af00      	add	r7, sp, #0
 8001102:	6078      	str	r0, [r7, #4]
    OS_RDY_LIST  *p_rdy_list;
    OS_TCB       *p_tcb2;



    p_rdy_list = &OSRdyList[p_tcb->Prio];
 8001104:	687b      	ldr	r3, [r7, #4]
 8001106:	f893 302f 	ldrb.w	r3, [r3, #47]	@ 0x2f
 800110a:	00db      	lsls	r3, r3, #3
 800110c:	4a14      	ldr	r2, [pc, #80]	@ (8001160 <OS_RdyListInsertTail+0x64>)
 800110e:	4413      	add	r3, r2
 8001110:	60fb      	str	r3, [r7, #12]
    if (p_rdy_list->HeadPtr == (OS_TCB *)0) {                   /* CASE 0: Insert when there are no entries             */
 8001112:	68fb      	ldr	r3, [r7, #12]
 8001114:	681b      	ldr	r3, [r3, #0]
 8001116:	2b00      	cmp	r3, #0
 8001118:	d10c      	bne.n	8001134 <OS_RdyListInsertTail+0x38>
#if (OS_CFG_DBG_EN > 0u)
        p_rdy_list->NbrEntries  =           1u;                 /* This is the first entry                              */
#endif
        p_tcb->NextPtr          = (OS_TCB *)0;                  /* No other OS_TCBs in the list                         */
 800111a:	687b      	ldr	r3, [r7, #4]
 800111c:	2200      	movs	r2, #0
 800111e:	60da      	str	r2, [r3, #12]
        p_tcb->PrevPtr          = (OS_TCB *)0;
 8001120:	687b      	ldr	r3, [r7, #4]
 8001122:	2200      	movs	r2, #0
 8001124:	611a      	str	r2, [r3, #16]
        p_rdy_list->HeadPtr     =  p_tcb;                       /* Both list pointers point to this OS_TCB              */
 8001126:	68fb      	ldr	r3, [r7, #12]
 8001128:	687a      	ldr	r2, [r7, #4]
 800112a:	601a      	str	r2, [r3, #0]
        p_rdy_list->TailPtr     =  p_tcb;
 800112c:	68fb      	ldr	r3, [r7, #12]
 800112e:	687a      	ldr	r2, [r7, #4]
 8001130:	605a      	str	r2, [r3, #4]
        p_tcb2                  =  p_rdy_list->TailPtr;
        p_tcb->PrevPtr          =  p_tcb2;
        p_tcb2->NextPtr         =  p_tcb;                       /* Adjust old tail of list's links                      */
        p_rdy_list->TailPtr     =  p_tcb;
    }
}
 8001132:	e00e      	b.n	8001152 <OS_RdyListInsertTail+0x56>
        p_tcb->NextPtr          = (OS_TCB *)0;                  /* Adjust new OS_TCBs links                             */
 8001134:	687b      	ldr	r3, [r7, #4]
 8001136:	2200      	movs	r2, #0
 8001138:	60da      	str	r2, [r3, #12]
        p_tcb2                  =  p_rdy_list->TailPtr;
 800113a:	68fb      	ldr	r3, [r7, #12]
 800113c:	685b      	ldr	r3, [r3, #4]
 800113e:	60bb      	str	r3, [r7, #8]
        p_tcb->PrevPtr          =  p_tcb2;
 8001140:	687b      	ldr	r3, [r7, #4]
 8001142:	68ba      	ldr	r2, [r7, #8]
 8001144:	611a      	str	r2, [r3, #16]
        p_tcb2->NextPtr         =  p_tcb;                       /* Adjust old tail of list's links                      */
 8001146:	68bb      	ldr	r3, [r7, #8]
 8001148:	687a      	ldr	r2, [r7, #4]
 800114a:	60da      	str	r2, [r3, #12]
        p_rdy_list->TailPtr     =  p_tcb;
 800114c:	68fb      	ldr	r3, [r7, #12]
 800114e:	687a      	ldr	r2, [r7, #4]
 8001150:	605a      	str	r2, [r3, #4]
}
 8001152:	bf00      	nop
 8001154:	3714      	adds	r7, #20
 8001156:	46bd      	mov	sp, r7
 8001158:	f85d 7b04 	ldr.w	r7, [sp], #4
 800115c:	4770      	bx	lr
 800115e:	bf00      	nop
 8001160:	20000dd4 	.word	0x20000dd4

08001164 <OS_RdyListMoveHeadToTail>:
* Note(s)    : 1) This function is INTERNAL to uC/OS-III and your application MUST NOT call it.
************************************************************************************************************************
*/

void  OS_RdyListMoveHeadToTail (OS_RDY_LIST  *p_rdy_list)
{
 8001164:	b480      	push	{r7}
 8001166:	b087      	sub	sp, #28
 8001168:	af00      	add	r7, sp, #0
 800116a:	6078      	str	r0, [r7, #4]
    OS_TCB  *p_tcb1;
    OS_TCB  *p_tcb2;
    OS_TCB  *p_tcb3;


     if (p_rdy_list->HeadPtr != p_rdy_list->TailPtr) {
 800116c:	687b      	ldr	r3, [r7, #4]
 800116e:	681a      	ldr	r2, [r3, #0]
 8001170:	687b      	ldr	r3, [r7, #4]
 8001172:	685b      	ldr	r3, [r3, #4]
 8001174:	429a      	cmp	r2, r3
 8001176:	d03a      	beq.n	80011ee <OS_RdyListMoveHeadToTail+0x8a>
         if (p_rdy_list->HeadPtr->NextPtr == p_rdy_list->TailPtr) { /* SWAP the TCBs                                    */
 8001178:	687b      	ldr	r3, [r7, #4]
 800117a:	681b      	ldr	r3, [r3, #0]
 800117c:	68da      	ldr	r2, [r3, #12]
 800117e:	687b      	ldr	r3, [r7, #4]
 8001180:	685b      	ldr	r3, [r3, #4]
 8001182:	429a      	cmp	r2, r3
 8001184:	d118      	bne.n	80011b8 <OS_RdyListMoveHeadToTail+0x54>
             p_tcb1              =  p_rdy_list->HeadPtr;        /* Point to current head                                */
 8001186:	687b      	ldr	r3, [r7, #4]
 8001188:	681b      	ldr	r3, [r3, #0]
 800118a:	617b      	str	r3, [r7, #20]
             p_tcb2              =  p_rdy_list->TailPtr;        /* Point to current tail                                */
 800118c:	687b      	ldr	r3, [r7, #4]
 800118e:	685b      	ldr	r3, [r3, #4]
 8001190:	613b      	str	r3, [r7, #16]
             p_tcb1->PrevPtr     =  p_tcb2;
 8001192:	697b      	ldr	r3, [r7, #20]
 8001194:	693a      	ldr	r2, [r7, #16]
 8001196:	611a      	str	r2, [r3, #16]
             p_tcb1->NextPtr     = (OS_TCB *)0;
 8001198:	697b      	ldr	r3, [r7, #20]
 800119a:	2200      	movs	r2, #0
 800119c:	60da      	str	r2, [r3, #12]
             p_tcb2->PrevPtr     = (OS_TCB *)0;
 800119e:	693b      	ldr	r3, [r7, #16]
 80011a0:	2200      	movs	r2, #0
 80011a2:	611a      	str	r2, [r3, #16]
             p_tcb2->NextPtr     =  p_tcb1;
 80011a4:	693b      	ldr	r3, [r7, #16]
 80011a6:	697a      	ldr	r2, [r7, #20]
 80011a8:	60da      	str	r2, [r3, #12]
             p_rdy_list->HeadPtr =  p_tcb2;
 80011aa:	687b      	ldr	r3, [r7, #4]
 80011ac:	693a      	ldr	r2, [r7, #16]
 80011ae:	601a      	str	r2, [r3, #0]
             p_rdy_list->TailPtr =  p_tcb1;
 80011b0:	687b      	ldr	r3, [r7, #4]
 80011b2:	697a      	ldr	r2, [r7, #20]
 80011b4:	605a      	str	r2, [r3, #4]
             p_tcb2->NextPtr     =  p_tcb1;                     /* Adjust forward link of old list tail                 */
             p_rdy_list->HeadPtr =  p_tcb3;                     /* Adjust new list head and tail pointers               */
             p_rdy_list->TailPtr =  p_tcb1;
         }
     }
}
 80011b6:	e01a      	b.n	80011ee <OS_RdyListMoveHeadToTail+0x8a>
             p_tcb1              =  p_rdy_list->HeadPtr;        /* Point to current head                                */
 80011b8:	687b      	ldr	r3, [r7, #4]
 80011ba:	681b      	ldr	r3, [r3, #0]
 80011bc:	617b      	str	r3, [r7, #20]
             p_tcb2              =  p_rdy_list->TailPtr;        /* Point to current tail                                */
 80011be:	687b      	ldr	r3, [r7, #4]
 80011c0:	685b      	ldr	r3, [r3, #4]
 80011c2:	613b      	str	r3, [r7, #16]
             p_tcb3              =  p_tcb1->NextPtr;            /* Point to new list head                               */
 80011c4:	697b      	ldr	r3, [r7, #20]
 80011c6:	68db      	ldr	r3, [r3, #12]
 80011c8:	60fb      	str	r3, [r7, #12]
             p_tcb3->PrevPtr     = (OS_TCB *)0;                 /* Adjust back    link of new list head                 */
 80011ca:	68fb      	ldr	r3, [r7, #12]
 80011cc:	2200      	movs	r2, #0
 80011ce:	611a      	str	r2, [r3, #16]
             p_tcb1->NextPtr     = (OS_TCB *)0;                 /* Adjust forward link of new list tail                 */
 80011d0:	697b      	ldr	r3, [r7, #20]
 80011d2:	2200      	movs	r2, #0
 80011d4:	60da      	str	r2, [r3, #12]
             p_tcb1->PrevPtr     =  p_tcb2;                     /* Adjust back    link of new list tail                 */
 80011d6:	697b      	ldr	r3, [r7, #20]
 80011d8:	693a      	ldr	r2, [r7, #16]
 80011da:	611a      	str	r2, [r3, #16]
             p_tcb2->NextPtr     =  p_tcb1;                     /* Adjust forward link of old list tail                 */
 80011dc:	693b      	ldr	r3, [r7, #16]
 80011de:	697a      	ldr	r2, [r7, #20]
 80011e0:	60da      	str	r2, [r3, #12]
             p_rdy_list->HeadPtr =  p_tcb3;                     /* Adjust new list head and tail pointers               */
 80011e2:	687b      	ldr	r3, [r7, #4]
 80011e4:	68fa      	ldr	r2, [r7, #12]
 80011e6:	601a      	str	r2, [r3, #0]
             p_rdy_list->TailPtr =  p_tcb1;
 80011e8:	687b      	ldr	r3, [r7, #4]
 80011ea:	697a      	ldr	r2, [r7, #20]
 80011ec:	605a      	str	r2, [r3, #4]
}
 80011ee:	bf00      	nop
 80011f0:	371c      	adds	r7, #28
 80011f2:	46bd      	mov	sp, r7
 80011f4:	f85d 7b04 	ldr.w	r7, [sp], #4
 80011f8:	4770      	bx	lr
	...

080011fc <OS_RdyListRemove>:
* Note(s)    : 1) This function is INTERNAL to uC/OS-III and your application MUST NOT call it.
************************************************************************************************************************
*/

void  OS_RdyListRemove (OS_TCB  *p_tcb)
{
 80011fc:	b580      	push	{r7, lr}
 80011fe:	b086      	sub	sp, #24
 8001200:	af00      	add	r7, sp, #0
 8001202:	6078      	str	r0, [r7, #4]
    OS_TCB       *p_tcb1;
    OS_TCB       *p_tcb2;



    p_rdy_list = &OSRdyList[p_tcb->Prio];
 8001204:	687b      	ldr	r3, [r7, #4]
 8001206:	f893 302f 	ldrb.w	r3, [r3, #47]	@ 0x2f
 800120a:	00db      	lsls	r3, r3, #3
 800120c:	4a1c      	ldr	r2, [pc, #112]	@ (8001280 <OS_RdyListRemove+0x84>)
 800120e:	4413      	add	r3, r2
 8001210:	617b      	str	r3, [r7, #20]
    p_tcb1     = p_tcb->PrevPtr;                                /* Point to next and previous OS_TCB in the list        */
 8001212:	687b      	ldr	r3, [r7, #4]
 8001214:	691b      	ldr	r3, [r3, #16]
 8001216:	613b      	str	r3, [r7, #16]
    p_tcb2     = p_tcb->NextPtr;
 8001218:	687b      	ldr	r3, [r7, #4]
 800121a:	68db      	ldr	r3, [r3, #12]
 800121c:	60fb      	str	r3, [r7, #12]
    if (p_tcb1 == (OS_TCB *)0) {                                /* Was the OS_TCB to remove at the head?                */
 800121e:	693b      	ldr	r3, [r7, #16]
 8001220:	2b00      	cmp	r3, #0
 8001222:	d116      	bne.n	8001252 <OS_RdyListRemove+0x56>
        if (p_tcb2 == (OS_TCB *)0) {                            /* Yes, was it the only OS_TCB?                         */
 8001224:	68fb      	ldr	r3, [r7, #12]
 8001226:	2b00      	cmp	r3, #0
 8001228:	d10c      	bne.n	8001244 <OS_RdyListRemove+0x48>
#if (OS_CFG_DBG_EN > 0u)
            p_rdy_list->NbrEntries =           0u;              /* Yes, no more entries                                 */
#endif
            p_rdy_list->HeadPtr    = (OS_TCB *)0;
 800122a:	697b      	ldr	r3, [r7, #20]
 800122c:	2200      	movs	r2, #0
 800122e:	601a      	str	r2, [r3, #0]
            p_rdy_list->TailPtr    = (OS_TCB *)0;
 8001230:	697b      	ldr	r3, [r7, #20]
 8001232:	2200      	movs	r2, #0
 8001234:	605a      	str	r2, [r3, #4]
            OS_PrioRemove(p_tcb->Prio);
 8001236:	687b      	ldr	r3, [r7, #4]
 8001238:	f893 302f 	ldrb.w	r3, [r3, #47]	@ 0x2f
 800123c:	4618      	mov	r0, r3
 800123e:	f000 fb8d 	bl	800195c <OS_PrioRemove>
 8001242:	e013      	b.n	800126c <OS_RdyListRemove+0x70>
        } else {
#if (OS_CFG_DBG_EN > 0u)
            p_rdy_list->NbrEntries--;                           /* No,  one less entry                                  */
#endif
            p_tcb2->PrevPtr     = (OS_TCB *)0;                  /* adjust back link of new list head                    */
 8001244:	68fb      	ldr	r3, [r7, #12]
 8001246:	2200      	movs	r2, #0
 8001248:	611a      	str	r2, [r3, #16]
            p_rdy_list->HeadPtr =  p_tcb2;                      /* adjust OS_RDY_LIST's new head                        */
 800124a:	697b      	ldr	r3, [r7, #20]
 800124c:	68fa      	ldr	r2, [r7, #12]
 800124e:	601a      	str	r2, [r3, #0]
 8001250:	e00c      	b.n	800126c <OS_RdyListRemove+0x70>
        }
    } else {
#if (OS_CFG_DBG_EN > 0u)
        p_rdy_list->NbrEntries--;                               /* No,  one less entry                                  */
#endif
        p_tcb1->NextPtr = p_tcb2;
 8001252:	693b      	ldr	r3, [r7, #16]
 8001254:	68fa      	ldr	r2, [r7, #12]
 8001256:	60da      	str	r2, [r3, #12]
        if (p_tcb2 == (OS_TCB *)0) {
 8001258:	68fb      	ldr	r3, [r7, #12]
 800125a:	2b00      	cmp	r3, #0
 800125c:	d103      	bne.n	8001266 <OS_RdyListRemove+0x6a>
            p_rdy_list->TailPtr = p_tcb1;                       /* Removing the TCB at the tail, adj the tail ptr       */
 800125e:	697b      	ldr	r3, [r7, #20]
 8001260:	693a      	ldr	r2, [r7, #16]
 8001262:	605a      	str	r2, [r3, #4]
 8001264:	e002      	b.n	800126c <OS_RdyListRemove+0x70>
        } else {
            p_tcb2->PrevPtr     = p_tcb1;
 8001266:	68fb      	ldr	r3, [r7, #12]
 8001268:	693a      	ldr	r2, [r7, #16]
 800126a:	611a      	str	r2, [r3, #16]
        }
    }
    p_tcb->PrevPtr = (OS_TCB *)0;
 800126c:	687b      	ldr	r3, [r7, #4]
 800126e:	2200      	movs	r2, #0
 8001270:	611a      	str	r2, [r3, #16]
    p_tcb->NextPtr = (OS_TCB *)0;
 8001272:	687b      	ldr	r3, [r7, #4]
 8001274:	2200      	movs	r2, #0
 8001276:	60da      	str	r2, [r3, #12]

    OS_TRACE_TASK_SUSPENDED(p_tcb);
}
 8001278:	bf00      	nop
 800127a:	3718      	adds	r7, #24
 800127c:	46bd      	mov	sp, r7
 800127e:	bd80      	pop	{r7, pc}
 8001280:	20000dd4 	.word	0x20000dd4

08001284 <OS_SchedRoundRobin>:
************************************************************************************************************************
*/

#if (OS_CFG_SCHED_ROUND_ROBIN_EN > 0u)
void  OS_SchedRoundRobin (OS_RDY_LIST  *p_rdy_list)
{
 8001284:	b580      	push	{r7, lr}
 8001286:	b084      	sub	sp, #16
 8001288:	af00      	add	r7, sp, #0
 800128a:	6078      	str	r0, [r7, #4]
    OS_TCB  *p_tcb;
    CPU_SR_ALLOC();
 800128c:	2300      	movs	r3, #0
 800128e:	60fb      	str	r3, [r7, #12]


    if (OSSchedRoundRobinEn != OS_TRUE) {                       /* Make sure round-robin has been enabled               */
 8001290:	4b2b      	ldr	r3, [pc, #172]	@ (8001340 <OS_SchedRoundRobin+0xbc>)
 8001292:	781b      	ldrb	r3, [r3, #0]
 8001294:	2b01      	cmp	r3, #1
 8001296:	d14f      	bne.n	8001338 <OS_SchedRoundRobin+0xb4>
        return;
    }

    CPU_CRITICAL_ENTER();
 8001298:	2040      	movs	r0, #64	@ 0x40
 800129a:	f7fe ff99 	bl	80001d0 <CPU_SR_Save>
 800129e:	60f8      	str	r0, [r7, #12]
    p_tcb = p_rdy_list->HeadPtr;                                /* Decrement time quanta counter                        */
 80012a0:	687b      	ldr	r3, [r7, #4]
 80012a2:	681b      	ldr	r3, [r3, #0]
 80012a4:	60bb      	str	r3, [r7, #8]

    if (p_tcb == (OS_TCB *)0) {
 80012a6:	68bb      	ldr	r3, [r7, #8]
 80012a8:	2b00      	cmp	r3, #0
 80012aa:	d103      	bne.n	80012b4 <OS_SchedRoundRobin+0x30>
        CPU_CRITICAL_EXIT();
 80012ac:	68f8      	ldr	r0, [r7, #12]
 80012ae:	f7fe ff9d 	bl	80001ec <CPU_SR_Restore>
        return;
 80012b2:	e042      	b.n	800133a <OS_SchedRoundRobin+0xb6>
    }

#if (OS_CFG_TASK_IDLE_EN > 0u)
    if (p_tcb == &OSIdleTaskTCB) {
 80012b4:	68bb      	ldr	r3, [r7, #8]
 80012b6:	4a23      	ldr	r2, [pc, #140]	@ (8001344 <OS_SchedRoundRobin+0xc0>)
 80012b8:	4293      	cmp	r3, r2
 80012ba:	d103      	bne.n	80012c4 <OS_SchedRoundRobin+0x40>
        CPU_CRITICAL_EXIT();
 80012bc:	68f8      	ldr	r0, [r7, #12]
 80012be:	f7fe ff95 	bl	80001ec <CPU_SR_Restore>
        return;
 80012c2:	e03a      	b.n	800133a <OS_SchedRoundRobin+0xb6>
    }
#endif

    if (p_tcb->TimeQuantaCtr > 0u) {
 80012c4:	68bb      	ldr	r3, [r7, #8]
 80012c6:	6d1b      	ldr	r3, [r3, #80]	@ 0x50
 80012c8:	2b00      	cmp	r3, #0
 80012ca:	d004      	beq.n	80012d6 <OS_SchedRoundRobin+0x52>
        p_tcb->TimeQuantaCtr--;
 80012cc:	68bb      	ldr	r3, [r7, #8]
 80012ce:	6d1b      	ldr	r3, [r3, #80]	@ 0x50
 80012d0:	1e5a      	subs	r2, r3, #1
 80012d2:	68bb      	ldr	r3, [r7, #8]
 80012d4:	651a      	str	r2, [r3, #80]	@ 0x50
    }

    if (p_tcb->TimeQuantaCtr > 0u) {                            /* Task not done with its time quanta                   */
 80012d6:	68bb      	ldr	r3, [r7, #8]
 80012d8:	6d1b      	ldr	r3, [r3, #80]	@ 0x50
 80012da:	2b00      	cmp	r3, #0
 80012dc:	d003      	beq.n	80012e6 <OS_SchedRoundRobin+0x62>
        CPU_CRITICAL_EXIT();
 80012de:	68f8      	ldr	r0, [r7, #12]
 80012e0:	f7fe ff84 	bl	80001ec <CPU_SR_Restore>
        return;
 80012e4:	e029      	b.n	800133a <OS_SchedRoundRobin+0xb6>
    }

    if (p_rdy_list->HeadPtr == p_rdy_list->TailPtr) {           /* See if it's time to time slice current task          */
 80012e6:	687b      	ldr	r3, [r7, #4]
 80012e8:	681a      	ldr	r2, [r3, #0]
 80012ea:	687b      	ldr	r3, [r7, #4]
 80012ec:	685b      	ldr	r3, [r3, #4]
 80012ee:	429a      	cmp	r2, r3
 80012f0:	d103      	bne.n	80012fa <OS_SchedRoundRobin+0x76>
        CPU_CRITICAL_EXIT();                                    /* ... only if multiple tasks at same priority          */
 80012f2:	68f8      	ldr	r0, [r7, #12]
 80012f4:	f7fe ff7a 	bl	80001ec <CPU_SR_Restore>
        return;
 80012f8:	e01f      	b.n	800133a <OS_SchedRoundRobin+0xb6>
    }

    if (OSSchedLockNestingCtr > 0u) {                           /* Can't round-robin if the scheduler is locked         */
 80012fa:	4b13      	ldr	r3, [pc, #76]	@ (8001348 <OS_SchedRoundRobin+0xc4>)
 80012fc:	781b      	ldrb	r3, [r3, #0]
 80012fe:	2b00      	cmp	r3, #0
 8001300:	d003      	beq.n	800130a <OS_SchedRoundRobin+0x86>
        CPU_CRITICAL_EXIT();
 8001302:	68f8      	ldr	r0, [r7, #12]
 8001304:	f7fe ff72 	bl	80001ec <CPU_SR_Restore>
        return;
 8001308:	e017      	b.n	800133a <OS_SchedRoundRobin+0xb6>
    }

    OS_RdyListMoveHeadToTail(p_rdy_list);                       /* Move current OS_TCB to the end of the list           */
 800130a:	6878      	ldr	r0, [r7, #4]
 800130c:	f7ff ff2a 	bl	8001164 <OS_RdyListMoveHeadToTail>
    p_tcb = p_rdy_list->HeadPtr;                                /* Point to new OS_TCB at head of the list              */
 8001310:	687b      	ldr	r3, [r7, #4]
 8001312:	681b      	ldr	r3, [r3, #0]
 8001314:	60bb      	str	r3, [r7, #8]
    if (p_tcb->TimeQuanta == 0u) {                              /* See if we need to use the default time slice         */
 8001316:	68bb      	ldr	r3, [r7, #8]
 8001318:	6cdb      	ldr	r3, [r3, #76]	@ 0x4c
 800131a:	2b00      	cmp	r3, #0
 800131c:	d104      	bne.n	8001328 <OS_SchedRoundRobin+0xa4>
        p_tcb->TimeQuantaCtr = OSSchedRoundRobinDfltTimeQuanta;
 800131e:	4b0b      	ldr	r3, [pc, #44]	@ (800134c <OS_SchedRoundRobin+0xc8>)
 8001320:	681a      	ldr	r2, [r3, #0]
 8001322:	68bb      	ldr	r3, [r7, #8]
 8001324:	651a      	str	r2, [r3, #80]	@ 0x50
 8001326:	e003      	b.n	8001330 <OS_SchedRoundRobin+0xac>
    } else {
        p_tcb->TimeQuantaCtr = p_tcb->TimeQuanta;               /* Load time slice counter with new time                */
 8001328:	68bb      	ldr	r3, [r7, #8]
 800132a:	6cda      	ldr	r2, [r3, #76]	@ 0x4c
 800132c:	68bb      	ldr	r3, [r7, #8]
 800132e:	651a      	str	r2, [r3, #80]	@ 0x50
    }
    CPU_CRITICAL_EXIT();
 8001330:	68f8      	ldr	r0, [r7, #12]
 8001332:	f7fe ff5b 	bl	80001ec <CPU_SR_Restore>
 8001336:	e000      	b.n	800133a <OS_SchedRoundRobin+0xb6>
        return;
 8001338:	bf00      	nop
}
 800133a:	3710      	adds	r7, #16
 800133c:	46bd      	mov	sp, r7
 800133e:	bd80      	pop	{r7, pc}
 8001340:	20000fdc 	.word	0x20000fdc
 8001344:	20000d0c 	.word	0x20000d0c
 8001348:	20000fd4 	.word	0x20000fd4
 800134c:	20000fd8 	.word	0x20000fd8

08001350 <OS_TaskBlock>:
************************************************************************************************************************
*/

void  OS_TaskBlock (OS_TCB   *p_tcb,
                    OS_TICK   timeout)
{
 8001350:	b580      	push	{r7, lr}
 8001352:	b082      	sub	sp, #8
 8001354:	af00      	add	r7, sp, #0
 8001356:	6078      	str	r0, [r7, #4]
 8001358:	6039      	str	r1, [r7, #0]

    elapsed = OS_DynTickGet();
#endif

#if (OS_CFG_TICK_EN > 0u)
    if (timeout > 0u) {                                         /* Add task to tick list if timeout non zero            */
 800135a:	683b      	ldr	r3, [r7, #0]
 800135c:	2b00      	cmp	r3, #0
 800135e:	d00b      	beq.n	8001378 <OS_TaskBlock+0x28>
#if (OS_CFG_DYN_TICK_EN > 0u)
        (void)OS_TickListInsert(p_tcb, elapsed, (OSTickCtr + elapsed), timeout);
#else
        (void)OS_TickListInsert(p_tcb,      0u,             OSTickCtr, timeout);
 8001360:	4b0b      	ldr	r3, [pc, #44]	@ (8001390 <OS_TaskBlock+0x40>)
 8001362:	681a      	ldr	r2, [r3, #0]
 8001364:	683b      	ldr	r3, [r7, #0]
 8001366:	2100      	movs	r1, #0
 8001368:	6878      	ldr	r0, [r7, #4]
 800136a:	f001 f867 	bl	800243c <OS_TickListInsert>
#endif
        p_tcb->TaskState = OS_TASK_STATE_PEND_TIMEOUT;
 800136e:	687b      	ldr	r3, [r7, #4]
 8001370:	2203      	movs	r2, #3
 8001372:	f883 202e 	strb.w	r2, [r3, #46]	@ 0x2e
 8001376:	e003      	b.n	8001380 <OS_TaskBlock+0x30>
    } else {
        p_tcb->TaskState = OS_TASK_STATE_PEND;
 8001378:	687b      	ldr	r3, [r7, #4]
 800137a:	2202      	movs	r2, #2
 800137c:	f883 202e 	strb.w	r2, [r3, #46]	@ 0x2e
    }
#else
    (void)timeout;
    p_tcb->TaskState = OS_TASK_STATE_PEND;
#endif
    OS_RdyListRemove(p_tcb);
 8001380:	6878      	ldr	r0, [r7, #4]
 8001382:	f7ff ff3b 	bl	80011fc <OS_RdyListRemove>
}
 8001386:	bf00      	nop
 8001388:	3708      	adds	r7, #8
 800138a:	46bd      	mov	sp, r7
 800138c:	bd80      	pop	{r7, pc}
 800138e:	bf00      	nop
 8001390:	200010a4 	.word	0x200010a4

08001394 <OS_MemInit>:
* Note(s)    : This function is INTERNAL to uC/OS-III and your application should not call it.
************************************************************************************************************************
*/

void  OS_MemInit (OS_ERR  *p_err)
{
 8001394:	b480      	push	{r7}
 8001396:	b083      	sub	sp, #12
 8001398:	af00      	add	r7, sp, #0
 800139a:	6078      	str	r0, [r7, #4]
#if (OS_CFG_DBG_EN > 0u)
    OSMemDbgListPtr = (OS_MEM *)0;
    OSMemQty        = 0u;
#endif
   *p_err           = OS_ERR_NONE;
 800139c:	687b      	ldr	r3, [r7, #4]
 800139e:	2200      	movs	r2, #0
 80013a0:	801a      	strh	r2, [r3, #0]
}
 80013a2:	bf00      	nop
 80013a4:	370c      	adds	r7, #12
 80013a6:	46bd      	mov	sp, r7
 80013a8:	f85d 7b04 	ldr.w	r7, [sp], #4
 80013ac:	4770      	bx	lr
	...

080013b0 <OS_MsgPoolInit>:
* Note(s)    : 1) This function is INTERNAL to uC/OS-III and your application MUST NOT call it.
************************************************************************************************************************
*/

void  OS_MsgPoolInit (OS_ERR  *p_err)
{
 80013b0:	b480      	push	{r7}
 80013b2:	b087      	sub	sp, #28
 80013b4:	af00      	add	r7, sp, #0
 80013b6:	6078      	str	r0, [r7, #4]
    OS_MSG_QTY   i;
    OS_MSG_QTY   loops;


#if (OS_CFG_ARG_CHK_EN > 0u)
    if (OSCfg_MsgPoolBasePtr == (OS_MSG *)0) {
 80013b8:	4b29      	ldr	r3, [pc, #164]	@ (8001460 <OS_MsgPoolInit+0xb0>)
 80013ba:	681b      	ldr	r3, [r3, #0]
 80013bc:	2b00      	cmp	r3, #0
 80013be:	d104      	bne.n	80013ca <OS_MsgPoolInit+0x1a>
       *p_err = OS_ERR_MSG_POOL_NULL_PTR;
 80013c0:	687b      	ldr	r3, [r7, #4]
 80013c2:	f245 721e 	movw	r2, #22302	@ 0x571e
 80013c6:	801a      	strh	r2, [r3, #0]
        return;
 80013c8:	e045      	b.n	8001456 <OS_MsgPoolInit+0xa6>
    }
    if (OSCfg_MsgPoolSize == 0u) {
 80013ca:	4b26      	ldr	r3, [pc, #152]	@ (8001464 <OS_MsgPoolInit+0xb4>)
 80013cc:	881b      	ldrh	r3, [r3, #0]
 80013ce:	2b00      	cmp	r3, #0
 80013d0:	d104      	bne.n	80013dc <OS_MsgPoolInit+0x2c>
       *p_err = OS_ERR_MSG_POOL_EMPTY;
 80013d2:	687b      	ldr	r3, [r7, #4]
 80013d4:	f245 721d 	movw	r2, #22301	@ 0x571d
 80013d8:	801a      	strh	r2, [r3, #0]
        return;
 80013da:	e03c      	b.n	8001456 <OS_MsgPoolInit+0xa6>
    }
#endif

    p_msg1 = OSCfg_MsgPoolBasePtr;
 80013dc:	4b20      	ldr	r3, [pc, #128]	@ (8001460 <OS_MsgPoolInit+0xb0>)
 80013de:	681b      	ldr	r3, [r3, #0]
 80013e0:	617b      	str	r3, [r7, #20]
    p_msg2 = OSCfg_MsgPoolBasePtr;
 80013e2:	4b1f      	ldr	r3, [pc, #124]	@ (8001460 <OS_MsgPoolInit+0xb0>)
 80013e4:	681b      	ldr	r3, [r3, #0]
 80013e6:	613b      	str	r3, [r7, #16]
    p_msg2++;
 80013e8:	693b      	ldr	r3, [r7, #16]
 80013ea:	330c      	adds	r3, #12
 80013ec:	613b      	str	r3, [r7, #16]
    loops  = OSCfg_MsgPoolSize - 1u;
 80013ee:	4b1d      	ldr	r3, [pc, #116]	@ (8001464 <OS_MsgPoolInit+0xb4>)
 80013f0:	881b      	ldrh	r3, [r3, #0]
 80013f2:	3b01      	subs	r3, #1
 80013f4:	81bb      	strh	r3, [r7, #12]
    for (i = 0u; i < loops; i++) {                              /* Init. list of free OS_MSGs                           */
 80013f6:	2300      	movs	r3, #0
 80013f8:	81fb      	strh	r3, [r7, #14]
 80013fa:	e011      	b.n	8001420 <OS_MsgPoolInit+0x70>
        p_msg1->NextPtr = p_msg2;
 80013fc:	697b      	ldr	r3, [r7, #20]
 80013fe:	693a      	ldr	r2, [r7, #16]
 8001400:	601a      	str	r2, [r3, #0]
        p_msg1->MsgPtr  = (void *)0;
 8001402:	697b      	ldr	r3, [r7, #20]
 8001404:	2200      	movs	r2, #0
 8001406:	605a      	str	r2, [r3, #4]
        p_msg1->MsgSize =         0u;
 8001408:	697b      	ldr	r3, [r7, #20]
 800140a:	2200      	movs	r2, #0
 800140c:	811a      	strh	r2, [r3, #8]
#if (OS_CFG_TS_EN > 0u)
        p_msg1->MsgTS   =         0u;
#endif
        p_msg1++;
 800140e:	697b      	ldr	r3, [r7, #20]
 8001410:	330c      	adds	r3, #12
 8001412:	617b      	str	r3, [r7, #20]
        p_msg2++;
 8001414:	693b      	ldr	r3, [r7, #16]
 8001416:	330c      	adds	r3, #12
 8001418:	613b      	str	r3, [r7, #16]
    for (i = 0u; i < loops; i++) {                              /* Init. list of free OS_MSGs                           */
 800141a:	89fb      	ldrh	r3, [r7, #14]
 800141c:	3301      	adds	r3, #1
 800141e:	81fb      	strh	r3, [r7, #14]
 8001420:	89fa      	ldrh	r2, [r7, #14]
 8001422:	89bb      	ldrh	r3, [r7, #12]
 8001424:	429a      	cmp	r2, r3
 8001426:	d3e9      	bcc.n	80013fc <OS_MsgPoolInit+0x4c>
    }
    p_msg1->NextPtr = (OS_MSG *)0;                              /* Last OS_MSG                                          */
 8001428:	697b      	ldr	r3, [r7, #20]
 800142a:	2200      	movs	r2, #0
 800142c:	601a      	str	r2, [r3, #0]
    p_msg1->MsgPtr  = (void   *)0;
 800142e:	697b      	ldr	r3, [r7, #20]
 8001430:	2200      	movs	r2, #0
 8001432:	605a      	str	r2, [r3, #4]
    p_msg1->MsgSize =           0u;
 8001434:	697b      	ldr	r3, [r7, #20]
 8001436:	2200      	movs	r2, #0
 8001438:	811a      	strh	r2, [r3, #8]
#if (OS_CFG_TS_EN > 0u)
    p_msg1->MsgTS   =           0u;
#endif

    OSMsgPool.NextPtr    = OSCfg_MsgPoolBasePtr;
 800143a:	4b09      	ldr	r3, [pc, #36]	@ (8001460 <OS_MsgPoolInit+0xb0>)
 800143c:	681b      	ldr	r3, [r3, #0]
 800143e:	4a0a      	ldr	r2, [pc, #40]	@ (8001468 <OS_MsgPoolInit+0xb8>)
 8001440:	6013      	str	r3, [r2, #0]
    OSMsgPool.NbrFree    = OSCfg_MsgPoolSize;
 8001442:	4b08      	ldr	r3, [pc, #32]	@ (8001464 <OS_MsgPoolInit+0xb4>)
 8001444:	881a      	ldrh	r2, [r3, #0]
 8001446:	4b08      	ldr	r3, [pc, #32]	@ (8001468 <OS_MsgPoolInit+0xb8>)
 8001448:	809a      	strh	r2, [r3, #4]
    OSMsgPool.NbrUsed    = 0u;
 800144a:	4b07      	ldr	r3, [pc, #28]	@ (8001468 <OS_MsgPoolInit+0xb8>)
 800144c:	2200      	movs	r2, #0
 800144e:	80da      	strh	r2, [r3, #6]
#if (OS_CFG_DBG_EN > 0u)
    OSMsgPool.NbrUsedMax = 0u;
#endif
   *p_err                = OS_ERR_NONE;
 8001450:	687b      	ldr	r3, [r7, #4]
 8001452:	2200      	movs	r2, #0
 8001454:	801a      	strh	r2, [r3, #0]
}
 8001456:	371c      	adds	r7, #28
 8001458:	46bd      	mov	sp, r7
 800145a:	f85d 7b04 	ldr.w	r7, [sp], #4
 800145e:	4770      	bx	lr
 8001460:	08003ef8 	.word	0x08003ef8
 8001464:	08003ef4 	.word	0x08003ef4
 8001468:	20000dc0 	.word	0x20000dc0

0800146c <OS_MsgQFreeAll>:
* Note(s)    : 1) This function is INTERNAL to uC/OS-III and your application MUST NOT call it.
************************************************************************************************************************
*/

OS_MSG_QTY  OS_MsgQFreeAll (OS_MSG_Q  *p_msg_q)
{
 800146c:	b480      	push	{r7}
 800146e:	b085      	sub	sp, #20
 8001470:	af00      	add	r7, sp, #0
 8001472:	6078      	str	r0, [r7, #4]
    OS_MSG      *p_msg;
    OS_MSG_QTY   qty;



    qty = p_msg_q->NbrEntries;                                  /* Get the number of OS_MSGs being freed                */
 8001474:	687b      	ldr	r3, [r7, #4]
 8001476:	895b      	ldrh	r3, [r3, #10]
 8001478:	81fb      	strh	r3, [r7, #14]
    if (p_msg_q->NbrEntries > 0u) {
 800147a:	687b      	ldr	r3, [r7, #4]
 800147c:	895b      	ldrh	r3, [r3, #10]
 800147e:	2b00      	cmp	r3, #0
 8001480:	d023      	beq.n	80014ca <OS_MsgQFreeAll+0x5e>
        p_msg                   = p_msg_q->InPtr;               /* Point to end of message chain                        */
 8001482:	687b      	ldr	r3, [r7, #4]
 8001484:	681b      	ldr	r3, [r3, #0]
 8001486:	60bb      	str	r3, [r7, #8]
        p_msg->NextPtr          = OSMsgPool.NextPtr;
 8001488:	4b13      	ldr	r3, [pc, #76]	@ (80014d8 <OS_MsgQFreeAll+0x6c>)
 800148a:	681a      	ldr	r2, [r3, #0]
 800148c:	68bb      	ldr	r3, [r7, #8]
 800148e:	601a      	str	r2, [r3, #0]
        OSMsgPool.NextPtr       = p_msg_q->OutPtr;              /* Point to beginning of message chain                  */
 8001490:	687b      	ldr	r3, [r7, #4]
 8001492:	685b      	ldr	r3, [r3, #4]
 8001494:	4a10      	ldr	r2, [pc, #64]	@ (80014d8 <OS_MsgQFreeAll+0x6c>)
 8001496:	6013      	str	r3, [r2, #0]
        OSMsgPool.NbrUsed      -= p_msg_q->NbrEntries;          /* Update statistics for free list of messages          */
 8001498:	4b0f      	ldr	r3, [pc, #60]	@ (80014d8 <OS_MsgQFreeAll+0x6c>)
 800149a:	88da      	ldrh	r2, [r3, #6]
 800149c:	687b      	ldr	r3, [r7, #4]
 800149e:	895b      	ldrh	r3, [r3, #10]
 80014a0:	1ad3      	subs	r3, r2, r3
 80014a2:	b29a      	uxth	r2, r3
 80014a4:	4b0c      	ldr	r3, [pc, #48]	@ (80014d8 <OS_MsgQFreeAll+0x6c>)
 80014a6:	80da      	strh	r2, [r3, #6]
        OSMsgPool.NbrFree      += p_msg_q->NbrEntries;
 80014a8:	4b0b      	ldr	r3, [pc, #44]	@ (80014d8 <OS_MsgQFreeAll+0x6c>)
 80014aa:	889a      	ldrh	r2, [r3, #4]
 80014ac:	687b      	ldr	r3, [r7, #4]
 80014ae:	895b      	ldrh	r3, [r3, #10]
 80014b0:	4413      	add	r3, r2
 80014b2:	b29a      	uxth	r2, r3
 80014b4:	4b08      	ldr	r3, [pc, #32]	@ (80014d8 <OS_MsgQFreeAll+0x6c>)
 80014b6:	809a      	strh	r2, [r3, #4]
        p_msg_q->NbrEntries     =           0u;                 /* Flush the message queue                              */
 80014b8:	687b      	ldr	r3, [r7, #4]
 80014ba:	2200      	movs	r2, #0
 80014bc:	815a      	strh	r2, [r3, #10]
#if (OS_CFG_DBG_EN > 0u)
        p_msg_q->NbrEntriesMax  =           0u;
#endif
        p_msg_q->InPtr          = (OS_MSG *)0;
 80014be:	687b      	ldr	r3, [r7, #4]
 80014c0:	2200      	movs	r2, #0
 80014c2:	601a      	str	r2, [r3, #0]
        p_msg_q->OutPtr         = (OS_MSG *)0;
 80014c4:	687b      	ldr	r3, [r7, #4]
 80014c6:	2200      	movs	r2, #0
 80014c8:	605a      	str	r2, [r3, #4]
    }
    return (qty);
 80014ca:	89fb      	ldrh	r3, [r7, #14]
}
 80014cc:	4618      	mov	r0, r3
 80014ce:	3714      	adds	r7, #20
 80014d0:	46bd      	mov	sp, r7
 80014d2:	f85d 7b04 	ldr.w	r7, [sp], #4
 80014d6:	4770      	bx	lr
 80014d8:	20000dc0 	.word	0x20000dc0

080014dc <OS_MsgQInit>:
************************************************************************************************************************
*/

void  OS_MsgQInit (OS_MSG_Q    *p_msg_q,
                   OS_MSG_QTY   size)
{
 80014dc:	b480      	push	{r7}
 80014de:	b083      	sub	sp, #12
 80014e0:	af00      	add	r7, sp, #0
 80014e2:	6078      	str	r0, [r7, #4]
 80014e4:	460b      	mov	r3, r1
 80014e6:	807b      	strh	r3, [r7, #2]
    p_msg_q->NbrEntriesSize = size;
 80014e8:	687b      	ldr	r3, [r7, #4]
 80014ea:	887a      	ldrh	r2, [r7, #2]
 80014ec:	811a      	strh	r2, [r3, #8]
    p_msg_q->NbrEntries     =           0u;
 80014ee:	687b      	ldr	r3, [r7, #4]
 80014f0:	2200      	movs	r2, #0
 80014f2:	815a      	strh	r2, [r3, #10]
#if (OS_CFG_DBG_EN > 0u)
    p_msg_q->NbrEntriesMax  =           0u;
#endif
    p_msg_q->InPtr          = (OS_MSG *)0;
 80014f4:	687b      	ldr	r3, [r7, #4]
 80014f6:	2200      	movs	r2, #0
 80014f8:	601a      	str	r2, [r3, #0]
    p_msg_q->OutPtr         = (OS_MSG *)0;
 80014fa:	687b      	ldr	r3, [r7, #4]
 80014fc:	2200      	movs	r2, #0
 80014fe:	605a      	str	r2, [r3, #4]
}
 8001500:	bf00      	nop
 8001502:	370c      	adds	r7, #12
 8001504:	46bd      	mov	sp, r7
 8001506:	f85d 7b04 	ldr.w	r7, [sp], #4
 800150a:	4770      	bx	lr

0800150c <OSMutexCreate>:
*/

void  OSMutexCreate (OS_MUTEX  *p_mutex,
                     CPU_CHAR  *p_name,
                     OS_ERR    *p_err)
{
 800150c:	b580      	push	{r7, lr}
 800150e:	b086      	sub	sp, #24
 8001510:	af00      	add	r7, sp, #0
 8001512:	60f8      	str	r0, [r7, #12]
 8001514:	60b9      	str	r1, [r7, #8]
 8001516:	607a      	str	r2, [r7, #4]
    CPU_SR_ALLOC();
 8001518:	2300      	movs	r3, #0
 800151a:	617b      	str	r3, [r7, #20]
        return;
    }
#endif

#if (OS_CFG_CALLED_FROM_ISR_CHK_EN > 0u)
    if (OSIntNestingCtr > 0u) {                                 /* Not allowed to be called from an ISR                 */
 800151c:	4b1d      	ldr	r3, [pc, #116]	@ (8001594 <OSMutexCreate+0x88>)
 800151e:	781b      	ldrb	r3, [r3, #0]
 8001520:	2b00      	cmp	r3, #0
 8001522:	d004      	beq.n	800152e <OSMutexCreate+0x22>
       *p_err = OS_ERR_CREATE_ISR;
 8001524:	687b      	ldr	r3, [r7, #4]
 8001526:	f642 62e1 	movw	r2, #12001	@ 0x2ee1
 800152a:	801a      	strh	r2, [r3, #0]
        return;
 800152c:	e02f      	b.n	800158e <OSMutexCreate+0x82>
    }
#endif

#if (OS_CFG_ARG_CHK_EN > 0u)
    if (p_mutex == (OS_MUTEX *)0) {                             /* Validate 'p_mutex'                                   */
 800152e:	68fb      	ldr	r3, [r7, #12]
 8001530:	2b00      	cmp	r3, #0
 8001532:	d104      	bne.n	800153e <OSMutexCreate+0x32>
       *p_err = OS_ERR_OBJ_PTR_NULL;
 8001534:	687b      	ldr	r3, [r7, #4]
 8001536:	f645 52c3 	movw	r2, #24003	@ 0x5dc3
 800153a:	801a      	strh	r2, [r3, #0]
        return;
 800153c:	e027      	b.n	800158e <OSMutexCreate+0x82>
    }
#endif

    CPU_CRITICAL_ENTER();
 800153e:	2040      	movs	r0, #64	@ 0x40
 8001540:	f7fe fe46 	bl	80001d0 <CPU_SR_Save>
 8001544:	6178      	str	r0, [r7, #20]
#if (OS_OBJ_TYPE_REQ > 0u)
#if (OS_CFG_OBJ_CREATED_CHK_EN > 0u)
    if (p_mutex->Type == OS_OBJ_TYPE_MUTEX) {
 8001546:	68fb      	ldr	r3, [r7, #12]
 8001548:	681b      	ldr	r3, [r3, #0]
 800154a:	4a13      	ldr	r2, [pc, #76]	@ (8001598 <OSMutexCreate+0x8c>)
 800154c:	4293      	cmp	r3, r2
 800154e:	d107      	bne.n	8001560 <OSMutexCreate+0x54>
        CPU_CRITICAL_EXIT();
 8001550:	6978      	ldr	r0, [r7, #20]
 8001552:	f7fe fe4b 	bl	80001ec <CPU_SR_Restore>
        *p_err = OS_ERR_OBJ_CREATED;
 8001556:	687b      	ldr	r3, [r7, #4]
 8001558:	f645 52c1 	movw	r2, #24001	@ 0x5dc1
 800155c:	801a      	strh	r2, [r3, #0]
        return;
 800155e:	e016      	b.n	800158e <OSMutexCreate+0x82>
    }
#endif
    p_mutex->Type              =  OS_OBJ_TYPE_MUTEX;            /* Mark the data structure as a mutex                   */
 8001560:	68fb      	ldr	r3, [r7, #12]
 8001562:	4a0d      	ldr	r2, [pc, #52]	@ (8001598 <OSMutexCreate+0x8c>)
 8001564:	601a      	str	r2, [r3, #0]
#if (OS_CFG_DBG_EN > 0u)
    p_mutex->NamePtr           =  p_name;
#else
    (void)p_name;
#endif
    p_mutex->MutexGrpNextPtr   = (OS_MUTEX *)0;
 8001566:	68fb      	ldr	r3, [r7, #12]
 8001568:	2200      	movs	r2, #0
 800156a:	60da      	str	r2, [r3, #12]
    p_mutex->OwnerTCBPtr       = (OS_TCB   *)0;
 800156c:	68fb      	ldr	r3, [r7, #12]
 800156e:	2200      	movs	r2, #0
 8001570:	611a      	str	r2, [r3, #16]
    p_mutex->OwnerNestingCtr   =             0u;                /* Mutex is available                                   */
 8001572:	68fb      	ldr	r3, [r7, #12]
 8001574:	2200      	movs	r2, #0
 8001576:	751a      	strb	r2, [r3, #20]
#if (OS_CFG_TS_EN > 0u)
    p_mutex->TS                =             0u;
#endif
    OS_PendListInit(&p_mutex->PendList);                        /* Initialize the waiting list                          */
 8001578:	68fb      	ldr	r3, [r7, #12]
 800157a:	3304      	adds	r3, #4
 800157c:	4618      	mov	r0, r3
 800157e:	f7ff fc1d 	bl	8000dbc <OS_PendListInit>
    OS_MutexDbgListAdd(p_mutex);
    OSMutexQty++;
#endif

    OS_TRACE_MUTEX_CREATE(p_mutex, p_name);
    CPU_CRITICAL_EXIT();
 8001582:	6978      	ldr	r0, [r7, #20]
 8001584:	f7fe fe32 	bl	80001ec <CPU_SR_Restore>
   *p_err = OS_ERR_NONE;
 8001588:	687b      	ldr	r3, [r7, #4]
 800158a:	2200      	movs	r2, #0
 800158c:	801a      	strh	r2, [r3, #0]
}
 800158e:	3718      	adds	r7, #24
 8001590:	46bd      	mov	sp, r7
 8001592:	bd80      	pop	{r7, pc}
 8001594:	20000db4 	.word	0x20000db4
 8001598:	5854554d 	.word	0x5854554d

0800159c <OSMutexPend>:
void  OSMutexPend (OS_MUTEX  *p_mutex,
                   OS_TICK    timeout,
                   OS_OPT     opt,
                   CPU_TS    *p_ts,
                   OS_ERR    *p_err)
{
 800159c:	b580      	push	{r7, lr}
 800159e:	b086      	sub	sp, #24
 80015a0:	af00      	add	r7, sp, #0
 80015a2:	60f8      	str	r0, [r7, #12]
 80015a4:	60b9      	str	r1, [r7, #8]
 80015a6:	603b      	str	r3, [r7, #0]
 80015a8:	4613      	mov	r3, r2
 80015aa:	80fb      	strh	r3, [r7, #6]
    OS_TCB  *p_tcb;
    CPU_SR_ALLOC();
 80015ac:	2300      	movs	r3, #0
 80015ae:	617b      	str	r3, [r7, #20]
        return;
    }
#endif

#if (OS_CFG_CALLED_FROM_ISR_CHK_EN > 0u)
    if (OSIntNestingCtr > 0u) {                                 /* Not allowed to call from an ISR                      */
 80015b0:	4b6b      	ldr	r3, [pc, #428]	@ (8001760 <OSMutexPend+0x1c4>)
 80015b2:	781b      	ldrb	r3, [r3, #0]
 80015b4:	2b00      	cmp	r3, #0
 80015b6:	d004      	beq.n	80015c2 <OSMutexPend+0x26>
        OS_TRACE_MUTEX_PEND_FAILED(p_mutex);
        OS_TRACE_MUTEX_PEND_EXIT(OS_ERR_PEND_ISR);
       *p_err = OS_ERR_PEND_ISR;
 80015b8:	6a3b      	ldr	r3, [r7, #32]
 80015ba:	f246 12ae 	movw	r2, #25006	@ 0x61ae
 80015be:	801a      	strh	r2, [r3, #0]
        return;
 80015c0:	e0cb      	b.n	800175a <OSMutexPend+0x1be>
    }
#endif

#if (OS_CFG_INVALID_OS_CALLS_CHK_EN > 0u)
    if (OSRunning != OS_STATE_OS_RUNNING) {                     /* Is the kernel running?                               */
 80015c2:	4b68      	ldr	r3, [pc, #416]	@ (8001764 <OSMutexPend+0x1c8>)
 80015c4:	781b      	ldrb	r3, [r3, #0]
 80015c6:	2b01      	cmp	r3, #1
 80015c8:	d004      	beq.n	80015d4 <OSMutexPend+0x38>
        OS_TRACE_MUTEX_PEND_EXIT(OS_ERR_OS_NOT_RUNNING);
       *p_err = OS_ERR_OS_NOT_RUNNING;
 80015ca:	6a3b      	ldr	r3, [r7, #32]
 80015cc:	f645 6289 	movw	r2, #24201	@ 0x5e89
 80015d0:	801a      	strh	r2, [r3, #0]
        return;
 80015d2:	e0c2      	b.n	800175a <OSMutexPend+0x1be>
    }
#endif

#if (OS_CFG_ARG_CHK_EN > 0u)
    if (p_mutex == (OS_MUTEX *)0) {                             /* Validate arguments                                   */
 80015d4:	68fb      	ldr	r3, [r7, #12]
 80015d6:	2b00      	cmp	r3, #0
 80015d8:	d104      	bne.n	80015e4 <OSMutexPend+0x48>
        OS_TRACE_MUTEX_PEND_FAILED(p_mutex);
        OS_TRACE_MUTEX_PEND_EXIT(OS_ERR_OBJ_PTR_NULL);
       *p_err = OS_ERR_OBJ_PTR_NULL;
 80015da:	6a3b      	ldr	r3, [r7, #32]
 80015dc:	f645 52c3 	movw	r2, #24003	@ 0x5dc3
 80015e0:	801a      	strh	r2, [r3, #0]
        return;
 80015e2:	e0ba      	b.n	800175a <OSMutexPend+0x1be>
    }
    switch (opt) {                                              /* Validate 'opt'                                       */
 80015e4:	88fb      	ldrh	r3, [r7, #6]
 80015e6:	2b00      	cmp	r3, #0
 80015e8:	d007      	beq.n	80015fa <OSMutexPend+0x5e>
 80015ea:	f5b3 4f00 	cmp.w	r3, #32768	@ 0x8000
 80015ee:	d004      	beq.n	80015fa <OSMutexPend+0x5e>
             break;

        default:
             OS_TRACE_MUTEX_PEND_FAILED(p_mutex);
             OS_TRACE_MUTEX_PEND_EXIT(OS_ERR_OPT_INVALID);
            *p_err = OS_ERR_OPT_INVALID;
 80015f0:	6a3b      	ldr	r3, [r7, #32]
 80015f2:	f645 6225 	movw	r2, #24101	@ 0x5e25
 80015f6:	801a      	strh	r2, [r3, #0]
             return;
 80015f8:	e0af      	b.n	800175a <OSMutexPend+0x1be>
             break;
 80015fa:	bf00      	nop
    }
#endif

#if (OS_CFG_OBJ_TYPE_CHK_EN > 0u)
    if (p_mutex->Type != OS_OBJ_TYPE_MUTEX) {                   /* Make sure mutex was created                          */
 80015fc:	68fb      	ldr	r3, [r7, #12]
 80015fe:	681b      	ldr	r3, [r3, #0]
 8001600:	4a59      	ldr	r2, [pc, #356]	@ (8001768 <OSMutexPend+0x1cc>)
 8001602:	4293      	cmp	r3, r2
 8001604:	d004      	beq.n	8001610 <OSMutexPend+0x74>
        OS_TRACE_MUTEX_PEND_FAILED(p_mutex);
        OS_TRACE_MUTEX_PEND_EXIT(OS_ERR_OBJ_TYPE);
       *p_err = OS_ERR_OBJ_TYPE;
 8001606:	6a3b      	ldr	r3, [r7, #32]
 8001608:	f645 52c4 	movw	r2, #24004	@ 0x5dc4
 800160c:	801a      	strh	r2, [r3, #0]
        return;
 800160e:	e0a4      	b.n	800175a <OSMutexPend+0x1be>
    }
#endif

    CPU_CRITICAL_ENTER();
 8001610:	2040      	movs	r0, #64	@ 0x40
 8001612:	f7fe fddd 	bl	80001d0 <CPU_SR_Save>
 8001616:	6178      	str	r0, [r7, #20]
    if (p_mutex->OwnerNestingCtr == 0u) {                       /* Resource available?                                  */
 8001618:	68fb      	ldr	r3, [r7, #12]
 800161a:	7d1b      	ldrb	r3, [r3, #20]
 800161c:	2b00      	cmp	r3, #0
 800161e:	d113      	bne.n	8001648 <OSMutexPend+0xac>
        p_mutex->OwnerTCBPtr     = OSTCBCurPtr;                 /* Yes, caller may proceed                              */
 8001620:	4b52      	ldr	r3, [pc, #328]	@ (800176c <OSMutexPend+0x1d0>)
 8001622:	681a      	ldr	r2, [r3, #0]
 8001624:	68fb      	ldr	r3, [r7, #12]
 8001626:	611a      	str	r2, [r3, #16]
        p_mutex->OwnerNestingCtr = 1u;
 8001628:	68fb      	ldr	r3, [r7, #12]
 800162a:	2201      	movs	r2, #1
 800162c:	751a      	strb	r2, [r3, #20]
#if (OS_CFG_TS_EN > 0u)
        if (p_ts != (CPU_TS *)0) {
           *p_ts = p_mutex->TS;
        }
#endif
        OS_MutexGrpAdd(OSTCBCurPtr, p_mutex);                   /* Add mutex to owner's group                           */
 800162e:	4b4f      	ldr	r3, [pc, #316]	@ (800176c <OSMutexPend+0x1d0>)
 8001630:	681b      	ldr	r3, [r3, #0]
 8001632:	68f9      	ldr	r1, [r7, #12]
 8001634:	4618      	mov	r0, r3
 8001636:	f000 f89d 	bl	8001774 <OS_MutexGrpAdd>
        CPU_CRITICAL_EXIT();
 800163a:	6978      	ldr	r0, [r7, #20]
 800163c:	f7fe fdd6 	bl	80001ec <CPU_SR_Restore>
        OS_TRACE_MUTEX_PEND(p_mutex);
        OS_TRACE_MUTEX_PEND_EXIT(OS_ERR_NONE);
       *p_err = OS_ERR_NONE;
 8001640:	6a3b      	ldr	r3, [r7, #32]
 8001642:	2200      	movs	r2, #0
 8001644:	801a      	strh	r2, [r3, #0]
        return;
 8001646:	e088      	b.n	800175a <OSMutexPend+0x1be>
    }

    if (OSTCBCurPtr == p_mutex->OwnerTCBPtr) {                  /* See if current task is already the owner of the mutex*/
 8001648:	68fb      	ldr	r3, [r7, #12]
 800164a:	691a      	ldr	r2, [r3, #16]
 800164c:	4b47      	ldr	r3, [pc, #284]	@ (800176c <OSMutexPend+0x1d0>)
 800164e:	681b      	ldr	r3, [r3, #0]
 8001650:	429a      	cmp	r2, r3
 8001652:	d119      	bne.n	8001688 <OSMutexPend+0xec>
        if (p_mutex->OwnerNestingCtr == (OS_NESTING_CTR)-1) {
 8001654:	68fb      	ldr	r3, [r7, #12]
 8001656:	7d1b      	ldrb	r3, [r3, #20]
 8001658:	2bff      	cmp	r3, #255	@ 0xff
 800165a:	d107      	bne.n	800166c <OSMutexPend+0xd0>
            CPU_CRITICAL_EXIT();
 800165c:	6978      	ldr	r0, [r7, #20]
 800165e:	f7fe fdc5 	bl	80001ec <CPU_SR_Restore>
            OS_TRACE_MUTEX_PEND_FAILED(p_mutex);
            OS_TRACE_MUTEX_PEND_EXIT(OS_ERR_MUTEX_OVF);
           *p_err = OS_ERR_MUTEX_OVF;
 8001662:	6a3b      	ldr	r3, [r7, #32]
 8001664:	f245 7284 	movw	r2, #22404	@ 0x5784
 8001668:	801a      	strh	r2, [r3, #0]
            return;
 800166a:	e076      	b.n	800175a <OSMutexPend+0x1be>
        }
        p_mutex->OwnerNestingCtr++;
 800166c:	68fb      	ldr	r3, [r7, #12]
 800166e:	7d1b      	ldrb	r3, [r3, #20]
 8001670:	3301      	adds	r3, #1
 8001672:	b2da      	uxtb	r2, r3
 8001674:	68fb      	ldr	r3, [r7, #12]
 8001676:	751a      	strb	r2, [r3, #20]
#if (OS_CFG_TS_EN > 0u)
        if (p_ts != (CPU_TS *)0) {
           *p_ts = p_mutex->TS;
        }
#endif
        CPU_CRITICAL_EXIT();
 8001678:	6978      	ldr	r0, [r7, #20]
 800167a:	f7fe fdb7 	bl	80001ec <CPU_SR_Restore>
        OS_TRACE_MUTEX_PEND_FAILED(p_mutex);
        OS_TRACE_MUTEX_PEND_EXIT(OS_ERR_MUTEX_OWNER);
       *p_err = OS_ERR_MUTEX_OWNER;                             /* Indicate that current task already owns the mutex    */
 800167e:	6a3b      	ldr	r3, [r7, #32]
 8001680:	f245 7282 	movw	r2, #22402	@ 0x5782
 8001684:	801a      	strh	r2, [r3, #0]
        return;
 8001686:	e068      	b.n	800175a <OSMutexPend+0x1be>
    }

    if ((opt & OS_OPT_PEND_NON_BLOCKING) != 0u) {               /* Caller wants to block if not available?              */
 8001688:	f9b7 3006 	ldrsh.w	r3, [r7, #6]
 800168c:	2b00      	cmp	r3, #0
 800168e:	da07      	bge.n	80016a0 <OSMutexPend+0x104>
        CPU_CRITICAL_EXIT();
 8001690:	6978      	ldr	r0, [r7, #20]
 8001692:	f7fe fdab 	bl	80001ec <CPU_SR_Restore>
           *p_ts = 0u;
        }
#endif
        OS_TRACE_MUTEX_PEND_FAILED(p_mutex);
        OS_TRACE_MUTEX_PEND_EXIT(OS_ERR_PEND_WOULD_BLOCK);
       *p_err = OS_ERR_PEND_WOULD_BLOCK;                        /* No                                                   */
 8001696:	6a3b      	ldr	r3, [r7, #32]
 8001698:	f246 12b0 	movw	r2, #25008	@ 0x61b0
 800169c:	801a      	strh	r2, [r3, #0]
        return;
 800169e:	e05c      	b.n	800175a <OSMutexPend+0x1be>
    } else {
        if (OSSchedLockNestingCtr > 0u) {                       /* Can't pend when the scheduler is locked              */
 80016a0:	4b33      	ldr	r3, [pc, #204]	@ (8001770 <OSMutexPend+0x1d4>)
 80016a2:	781b      	ldrb	r3, [r3, #0]
 80016a4:	2b00      	cmp	r3, #0
 80016a6:	d007      	beq.n	80016b8 <OSMutexPend+0x11c>
            CPU_CRITICAL_EXIT();
 80016a8:	6978      	ldr	r0, [r7, #20]
 80016aa:	f7fe fd9f 	bl	80001ec <CPU_SR_Restore>
               *p_ts = 0u;
            }
#endif
            OS_TRACE_MUTEX_PEND_FAILED(p_mutex);
            OS_TRACE_MUTEX_PEND_EXIT(OS_ERR_SCHED_LOCKED);
           *p_err = OS_ERR_SCHED_LOCKED;
 80016ae:	6a3b      	ldr	r3, [r7, #32]
 80016b0:	f646 5263 	movw	r2, #28003	@ 0x6d63
 80016b4:	801a      	strh	r2, [r3, #0]
            return;
 80016b6:	e050      	b.n	800175a <OSMutexPend+0x1be>
        }
    }

    p_tcb = p_mutex->OwnerTCBPtr;                               /* Point to the TCB of the Mutex owner                  */
 80016b8:	68fb      	ldr	r3, [r7, #12]
 80016ba:	691b      	ldr	r3, [r3, #16]
 80016bc:	613b      	str	r3, [r7, #16]
    if (p_tcb->Prio > OSTCBCurPtr->Prio) {                      /* See if mutex owner has a lower priority than current */
 80016be:	693b      	ldr	r3, [r7, #16]
 80016c0:	f893 202f 	ldrb.w	r2, [r3, #47]	@ 0x2f
 80016c4:	4b29      	ldr	r3, [pc, #164]	@ (800176c <OSMutexPend+0x1d0>)
 80016c6:	681b      	ldr	r3, [r3, #0]
 80016c8:	f893 302f 	ldrb.w	r3, [r3, #47]	@ 0x2f
 80016cc:	429a      	cmp	r2, r3
 80016ce:	d907      	bls.n	80016e0 <OSMutexPend+0x144>
        OS_TaskChangePrio(p_tcb, OSTCBCurPtr->Prio);
 80016d0:	4b26      	ldr	r3, [pc, #152]	@ (800176c <OSMutexPend+0x1d0>)
 80016d2:	681b      	ldr	r3, [r3, #0]
 80016d4:	f893 302f 	ldrb.w	r3, [r3, #47]	@ 0x2f
 80016d8:	4619      	mov	r1, r3
 80016da:	6938      	ldr	r0, [r7, #16]
 80016dc:	f000 fddc 	bl	8002298 <OS_TaskChangePrio>
        OS_TRACE_MUTEX_TASK_PRIO_INHERIT(p_tcb, p_tcb->Prio);
    }

    OS_Pend((OS_PEND_OBJ *)((void *)p_mutex),                   /* Block task pending on Mutex                          */
 80016e0:	4b22      	ldr	r3, [pc, #136]	@ (800176c <OSMutexPend+0x1d0>)
 80016e2:	6819      	ldr	r1, [r3, #0]
 80016e4:	68bb      	ldr	r3, [r7, #8]
 80016e6:	2204      	movs	r2, #4
 80016e8:	68f8      	ldr	r0, [r7, #12]
 80016ea:	f7ff fb21 	bl	8000d30 <OS_Pend>
             OSTCBCurPtr,
             OS_TASK_PEND_ON_MUTEX,
             timeout);

    CPU_CRITICAL_EXIT();
 80016ee:	6978      	ldr	r0, [r7, #20]
 80016f0:	f7fe fd7c 	bl	80001ec <CPU_SR_Restore>
    OS_TRACE_MUTEX_PEND_BLOCK(p_mutex);
    OSSched();                                                  /* Find the next highest priority task ready to run     */
 80016f4:	f7ff fa1e 	bl	8000b34 <OSSched>

    CPU_CRITICAL_ENTER();
 80016f8:	2040      	movs	r0, #64	@ 0x40
 80016fa:	f7fe fd69 	bl	80001d0 <CPU_SR_Save>
 80016fe:	6178      	str	r0, [r7, #20]
    switch (OSTCBCurPtr->PendStatus) {
 8001700:	4b1a      	ldr	r3, [pc, #104]	@ (800176c <OSMutexPend+0x1d0>)
 8001702:	681b      	ldr	r3, [r3, #0]
 8001704:	f893 302d 	ldrb.w	r3, [r3, #45]	@ 0x2d
 8001708:	2b03      	cmp	r3, #3
 800170a:	d81e      	bhi.n	800174a <OSMutexPend+0x1ae>
 800170c:	a201      	add	r2, pc, #4	@ (adr r2, 8001714 <OSMutexPend+0x178>)
 800170e:	f852 f023 	ldr.w	pc, [r2, r3, lsl #2]
 8001712:	bf00      	nop
 8001714:	08001725 	.word	0x08001725
 8001718:	0800172d 	.word	0x0800172d
 800171c:	08001741 	.word	0x08001741
 8001720:	08001737 	.word	0x08001737
             if (p_ts != (CPU_TS *)0) {
                *p_ts = OSTCBCurPtr->TS;
             }
#endif
             OS_TRACE_MUTEX_PEND(p_mutex);
            *p_err = OS_ERR_NONE;
 8001724:	6a3b      	ldr	r3, [r7, #32]
 8001726:	2200      	movs	r2, #0
 8001728:	801a      	strh	r2, [r3, #0]
             break;
 800172a:	e013      	b.n	8001754 <OSMutexPend+0x1b8>
             if (p_ts != (CPU_TS *)0) {
                *p_ts = OSTCBCurPtr->TS;
             }
#endif
             OS_TRACE_MUTEX_PEND_FAILED(p_mutex);
            *p_err = OS_ERR_PEND_ABORT;
 800172c:	6a3b      	ldr	r3, [r7, #32]
 800172e:	f246 12a9 	movw	r2, #25001	@ 0x61a9
 8001732:	801a      	strh	r2, [r3, #0]
             break;
 8001734:	e00e      	b.n	8001754 <OSMutexPend+0x1b8>
             if (p_ts != (CPU_TS *)0) {
                *p_ts = 0u;
             }
#endif
             OS_TRACE_MUTEX_PEND_FAILED(p_mutex);
            *p_err = OS_ERR_TIMEOUT;
 8001736:	6a3b      	ldr	r3, [r7, #32]
 8001738:	f247 22d9 	movw	r2, #29401	@ 0x72d9
 800173c:	801a      	strh	r2, [r3, #0]
             break;
 800173e:	e009      	b.n	8001754 <OSMutexPend+0x1b8>
             if (p_ts != (CPU_TS *)0) {
                *p_ts = OSTCBCurPtr->TS;
             }
#endif
             OS_TRACE_MUTEX_PEND_FAILED(p_mutex);
            *p_err = OS_ERR_OBJ_DEL;
 8001740:	6a3b      	ldr	r3, [r7, #32]
 8001742:	f645 52c2 	movw	r2, #24002	@ 0x5dc2
 8001746:	801a      	strh	r2, [r3, #0]
             break;
 8001748:	e004      	b.n	8001754 <OSMutexPend+0x1b8>

        default:
             OS_TRACE_MUTEX_PEND_FAILED(p_mutex);
            *p_err = OS_ERR_STATUS_INVALID;
 800174a:	6a3b      	ldr	r3, [r7, #32]
 800174c:	f646 622e 	movw	r2, #28206	@ 0x6e2e
 8001750:	801a      	strh	r2, [r3, #0]
             break;
 8001752:	bf00      	nop
    }
    CPU_CRITICAL_EXIT();
 8001754:	6978      	ldr	r0, [r7, #20]
 8001756:	f7fe fd49 	bl	80001ec <CPU_SR_Restore>
    OS_TRACE_MUTEX_PEND_EXIT(*p_err);
}
 800175a:	3718      	adds	r7, #24
 800175c:	46bd      	mov	sp, r7
 800175e:	bd80      	pop	{r7, pc}
 8001760:	20000db4 	.word	0x20000db4
 8001764:	20000db5 	.word	0x20000db5
 8001768:	5854554d 	.word	0x5854554d
 800176c:	20001188 	.word	0x20001188
 8001770:	20000fd4 	.word	0x20000fd4

08001774 <OS_MutexGrpAdd>:
* Note(s)    : 1) This function is INTERNAL to uC/OS-III and your application MUST NOT call it.
************************************************************************************************************************
*/

void  OS_MutexGrpAdd (OS_TCB  *p_tcb, OS_MUTEX  *p_mutex)
{
 8001774:	b480      	push	{r7}
 8001776:	b083      	sub	sp, #12
 8001778:	af00      	add	r7, sp, #0
 800177a:	6078      	str	r0, [r7, #4]
 800177c:	6039      	str	r1, [r7, #0]
    p_mutex->MutexGrpNextPtr = p_tcb->MutexGrpHeadPtr;      /* The mutex grp is not sorted add to head of list.       */
 800177e:	687b      	ldr	r3, [r7, #4]
 8001780:	6b5a      	ldr	r2, [r3, #52]	@ 0x34
 8001782:	683b      	ldr	r3, [r7, #0]
 8001784:	60da      	str	r2, [r3, #12]
    p_tcb->MutexGrpHeadPtr   = p_mutex;
 8001786:	687b      	ldr	r3, [r7, #4]
 8001788:	683a      	ldr	r2, [r7, #0]
 800178a:	635a      	str	r2, [r3, #52]	@ 0x34
}
 800178c:	bf00      	nop
 800178e:	370c      	adds	r7, #12
 8001790:	46bd      	mov	sp, r7
 8001792:	f85d 7b04 	ldr.w	r7, [sp], #4
 8001796:	4770      	bx	lr

08001798 <OS_MutexGrpRemove>:
* Note(s)    : 1) This function is INTERNAL to uC/OS-III and your application MUST NOT call it.
************************************************************************************************************************
*/

void  OS_MutexGrpRemove (OS_TCB  *p_tcb, OS_MUTEX  *p_mutex)
{
 8001798:	b480      	push	{r7}
 800179a:	b085      	sub	sp, #20
 800179c:	af00      	add	r7, sp, #0
 800179e:	6078      	str	r0, [r7, #4]
 80017a0:	6039      	str	r1, [r7, #0]
    OS_MUTEX  **pp_mutex;

    pp_mutex = &p_tcb->MutexGrpHeadPtr;
 80017a2:	687b      	ldr	r3, [r7, #4]
 80017a4:	3334      	adds	r3, #52	@ 0x34
 80017a6:	60fb      	str	r3, [r7, #12]

    while(*pp_mutex != p_mutex) {
 80017a8:	e003      	b.n	80017b2 <OS_MutexGrpRemove+0x1a>
        pp_mutex = &(*pp_mutex)->MutexGrpNextPtr;
 80017aa:	68fb      	ldr	r3, [r7, #12]
 80017ac:	681b      	ldr	r3, [r3, #0]
 80017ae:	330c      	adds	r3, #12
 80017b0:	60fb      	str	r3, [r7, #12]
    while(*pp_mutex != p_mutex) {
 80017b2:	68fb      	ldr	r3, [r7, #12]
 80017b4:	681b      	ldr	r3, [r3, #0]
 80017b6:	683a      	ldr	r2, [r7, #0]
 80017b8:	429a      	cmp	r2, r3
 80017ba:	d1f6      	bne.n	80017aa <OS_MutexGrpRemove+0x12>
    }

    *pp_mutex = (*pp_mutex)->MutexGrpNextPtr;
 80017bc:	68fb      	ldr	r3, [r7, #12]
 80017be:	681b      	ldr	r3, [r3, #0]
 80017c0:	68da      	ldr	r2, [r3, #12]
 80017c2:	68fb      	ldr	r3, [r7, #12]
 80017c4:	601a      	str	r2, [r3, #0]
}
 80017c6:	bf00      	nop
 80017c8:	3714      	adds	r7, #20
 80017ca:	46bd      	mov	sp, r7
 80017cc:	f85d 7b04 	ldr.w	r7, [sp], #4
 80017d0:	4770      	bx	lr

080017d2 <OS_MutexGrpPrioFindHighest>:
* Note(s)    : 1) This function is INTERNAL to uC/OS-III and your application MUST NOT call it.
************************************************************************************************************************
*/

OS_PRIO  OS_MutexGrpPrioFindHighest (OS_TCB  *p_tcb)
{
 80017d2:	b480      	push	{r7}
 80017d4:	b087      	sub	sp, #28
 80017d6:	af00      	add	r7, sp, #0
 80017d8:	6078      	str	r0, [r7, #4]
    OS_PRIO     highest_prio;
    OS_PRIO     prio;
    OS_TCB     *p_head;


    highest_prio = (OS_PRIO)(OS_CFG_PRIO_MAX - 1u);
 80017da:	233f      	movs	r3, #63	@ 0x3f
 80017dc:	74fb      	strb	r3, [r7, #19]
    pp_mutex = &p_tcb->MutexGrpHeadPtr;
 80017de:	687b      	ldr	r3, [r7, #4]
 80017e0:	3334      	adds	r3, #52	@ 0x34
 80017e2:	617b      	str	r3, [r7, #20]

    while(*pp_mutex != (OS_MUTEX *)0) {
 80017e4:	e014      	b.n	8001810 <OS_MutexGrpPrioFindHighest+0x3e>
        p_head = (*pp_mutex)->PendList.HeadPtr;
 80017e6:	697b      	ldr	r3, [r7, #20]
 80017e8:	681b      	ldr	r3, [r3, #0]
 80017ea:	685b      	ldr	r3, [r3, #4]
 80017ec:	60fb      	str	r3, [r7, #12]
        if (p_head != (OS_TCB *)0) {
 80017ee:	68fb      	ldr	r3, [r7, #12]
 80017f0:	2b00      	cmp	r3, #0
 80017f2:	d009      	beq.n	8001808 <OS_MutexGrpPrioFindHighest+0x36>
            prio = p_head->Prio;
 80017f4:	68fb      	ldr	r3, [r7, #12]
 80017f6:	f893 302f 	ldrb.w	r3, [r3, #47]	@ 0x2f
 80017fa:	72fb      	strb	r3, [r7, #11]
            if(prio < highest_prio) {
 80017fc:	7afa      	ldrb	r2, [r7, #11]
 80017fe:	7cfb      	ldrb	r3, [r7, #19]
 8001800:	429a      	cmp	r2, r3
 8001802:	d201      	bcs.n	8001808 <OS_MutexGrpPrioFindHighest+0x36>
                highest_prio = prio;
 8001804:	7afb      	ldrb	r3, [r7, #11]
 8001806:	74fb      	strb	r3, [r7, #19]
            }
        }
        pp_mutex = &(*pp_mutex)->MutexGrpNextPtr;
 8001808:	697b      	ldr	r3, [r7, #20]
 800180a:	681b      	ldr	r3, [r3, #0]
 800180c:	330c      	adds	r3, #12
 800180e:	617b      	str	r3, [r7, #20]
    while(*pp_mutex != (OS_MUTEX *)0) {
 8001810:	697b      	ldr	r3, [r7, #20]
 8001812:	681b      	ldr	r3, [r3, #0]
 8001814:	2b00      	cmp	r3, #0
 8001816:	d1e6      	bne.n	80017e6 <OS_MutexGrpPrioFindHighest+0x14>
    }

    return (highest_prio);
 8001818:	7cfb      	ldrb	r3, [r7, #19]
}
 800181a:	4618      	mov	r0, r3
 800181c:	371c      	adds	r7, #28
 800181e:	46bd      	mov	sp, r7
 8001820:	f85d 7b04 	ldr.w	r7, [sp], #4
 8001824:	4770      	bx	lr

08001826 <OS_MutexGrpPostAll>:
* Note(s)    : 1) This function is INTERNAL to uC/OS-III and your application MUST NOT call it.
************************************************************************************************************************
*/

void  OS_MutexGrpPostAll (OS_TCB  *p_tcb)
{
 8001826:	b580      	push	{r7, lr}
 8001828:	b08a      	sub	sp, #40	@ 0x28
 800182a:	af02      	add	r7, sp, #8
 800182c:	6078      	str	r0, [r7, #4]
    CPU_TS         ts;
    OS_PEND_LIST  *p_pend_list;
    OS_TCB        *p_tcb_new;


    p_mutex = p_tcb->MutexGrpHeadPtr;
 800182e:	687b      	ldr	r3, [r7, #4]
 8001830:	6b5b      	ldr	r3, [r3, #52]	@ 0x34
 8001832:	61fb      	str	r3, [r7, #28]

    while(p_mutex != (OS_MUTEX *)0) {
 8001834:	e02d      	b.n	8001892 <OS_MutexGrpPostAll+0x6c>

        OS_TRACE_MUTEX_POST(p_mutex);

        p_mutex_next = p_mutex->MutexGrpNextPtr;
 8001836:	69fb      	ldr	r3, [r7, #28]
 8001838:	68db      	ldr	r3, [r3, #12]
 800183a:	61bb      	str	r3, [r7, #24]
#if (OS_CFG_TS_EN > 0u)
        ts           = OS_TS_GET();                             /* Get timestamp                                        */
        p_mutex->TS  = ts;
#else
        ts           = 0u;
 800183c:	2300      	movs	r3, #0
 800183e:	617b      	str	r3, [r7, #20]
#endif
        OS_MutexGrpRemove(p_tcb,  p_mutex);                     /* Remove mutex from owner's group                      */
 8001840:	69f9      	ldr	r1, [r7, #28]
 8001842:	6878      	ldr	r0, [r7, #4]
 8001844:	f7ff ffa8 	bl	8001798 <OS_MutexGrpRemove>

        p_pend_list = &p_mutex->PendList;
 8001848:	69fb      	ldr	r3, [r7, #28]
 800184a:	3304      	adds	r3, #4
 800184c:	613b      	str	r3, [r7, #16]
        if (p_pend_list->HeadPtr == (OS_TCB *)0) {              /* Any task waiting on mutex?                           */
 800184e:	693b      	ldr	r3, [r7, #16]
 8001850:	681b      	ldr	r3, [r3, #0]
 8001852:	2b00      	cmp	r3, #0
 8001854:	d106      	bne.n	8001864 <OS_MutexGrpPostAll+0x3e>
            p_mutex->OwnerNestingCtr =           0u;            /* Decrement owner's nesting counter                    */
 8001856:	69fb      	ldr	r3, [r7, #28]
 8001858:	2200      	movs	r2, #0
 800185a:	751a      	strb	r2, [r3, #20]
            p_mutex->OwnerTCBPtr     = (OS_TCB *)0;             /* No                                                   */
 800185c:	69fb      	ldr	r3, [r7, #28]
 800185e:	2200      	movs	r2, #0
 8001860:	611a      	str	r2, [r3, #16]
 8001862:	e014      	b.n	800188e <OS_MutexGrpPostAll+0x68>
        } else {
                                                                /* Get TCB from head of pend list                       */
            p_tcb_new                = p_pend_list->HeadPtr;
 8001864:	693b      	ldr	r3, [r7, #16]
 8001866:	681b      	ldr	r3, [r3, #0]
 8001868:	60fb      	str	r3, [r7, #12]
            p_mutex->OwnerTCBPtr     = p_tcb;                   /* Give mutex to new owner                              */
 800186a:	69fb      	ldr	r3, [r7, #28]
 800186c:	687a      	ldr	r2, [r7, #4]
 800186e:	611a      	str	r2, [r3, #16]
            p_mutex->OwnerNestingCtr = 1u;
 8001870:	69fb      	ldr	r3, [r7, #28]
 8001872:	2201      	movs	r2, #1
 8001874:	751a      	strb	r2, [r3, #20]
            OS_MutexGrpAdd(p_tcb_new, p_mutex);
 8001876:	69f9      	ldr	r1, [r7, #28]
 8001878:	68f8      	ldr	r0, [r7, #12]
 800187a:	f7ff ff7b 	bl	8001774 <OS_MutexGrpAdd>
                                                                /* Post to mutex                                        */
            OS_Post((OS_PEND_OBJ *)((void *)p_mutex),
 800187e:	697b      	ldr	r3, [r7, #20]
 8001880:	9300      	str	r3, [sp, #0]
 8001882:	2300      	movs	r3, #0
 8001884:	2200      	movs	r2, #0
 8001886:	68f9      	ldr	r1, [r7, #12]
 8001888:	69f8      	ldr	r0, [r7, #28]
 800188a:	f7ff fb59 	bl	8000f40 <OS_Post>
                                   (void *)0,
                                   0u,
                                   ts);
        }

        p_mutex = p_mutex_next;
 800188e:	69bb      	ldr	r3, [r7, #24]
 8001890:	61fb      	str	r3, [r7, #28]
    while(p_mutex != (OS_MUTEX *)0) {
 8001892:	69fb      	ldr	r3, [r7, #28]
 8001894:	2b00      	cmp	r3, #0
 8001896:	d1ce      	bne.n	8001836 <OS_MutexGrpPostAll+0x10>
    }

}
 8001898:	bf00      	nop
 800189a:	bf00      	nop
 800189c:	3720      	adds	r7, #32
 800189e:	46bd      	mov	sp, r7
 80018a0:	bd80      	pop	{r7, pc}
	...

080018a4 <OS_PrioInit>:
* Note       : This function is INTERNAL to uC/OS-III and your application should not call it.
************************************************************************************************************************
*/

void  OS_PrioInit (void)
{
 80018a4:	b480      	push	{r7}
 80018a6:	b083      	sub	sp, #12
 80018a8:	af00      	add	r7, sp, #0
    CPU_DATA  i;


                                                                /* Clear the bitmap table ... no task is ready          */
    for (i = 0u; i < OS_PRIO_TBL_SIZE; i++) {
 80018aa:	2300      	movs	r3, #0
 80018ac:	607b      	str	r3, [r7, #4]
 80018ae:	e007      	b.n	80018c0 <OS_PrioInit+0x1c>
         OSPrioTbl[i] = 0u;
 80018b0:	4a08      	ldr	r2, [pc, #32]	@ (80018d4 <OS_PrioInit+0x30>)
 80018b2:	687b      	ldr	r3, [r7, #4]
 80018b4:	2100      	movs	r1, #0
 80018b6:	f842 1023 	str.w	r1, [r2, r3, lsl #2]
    for (i = 0u; i < OS_PRIO_TBL_SIZE; i++) {
 80018ba:	687b      	ldr	r3, [r7, #4]
 80018bc:	3301      	adds	r3, #1
 80018be:	607b      	str	r3, [r7, #4]
 80018c0:	687b      	ldr	r3, [r7, #4]
 80018c2:	2b01      	cmp	r3, #1
 80018c4:	d9f4      	bls.n	80018b0 <OS_PrioInit+0xc>
    }

#if (OS_CFG_TASK_IDLE_EN == 0u)
    OS_PrioInsert ((OS_PRIO)(OS_CFG_PRIO_MAX - 1u));            /* Insert what would be the idle task                   */
#endif
}
 80018c6:	bf00      	nop
 80018c8:	bf00      	nop
 80018ca:	370c      	adds	r7, #12
 80018cc:	46bd      	mov	sp, r7
 80018ce:	f85d 7b04 	ldr.w	r7, [sp], #4
 80018d2:	4770      	bx	lr
 80018d4:	20000dcc 	.word	0x20000dcc

080018d8 <OS_PrioGetHighest>:
* Note(s)    : 1) This function is INTERNAL to uC/OS-III and your application MUST NOT call it.
************************************************************************************************************************
*/

OS_PRIO  OS_PrioGetHighest (void)
{
 80018d8:	b580      	push	{r7, lr}
 80018da:	af00      	add	r7, sp, #0
#if   (OS_CFG_PRIO_MAX <= (CPU_CFG_DATA_SIZE * 8u))             /* Optimize for less than word size nbr of priorities   */
    return ((OS_PRIO)CPU_CntLeadZeros(OSPrioTbl[0]));


#elif (OS_CFG_PRIO_MAX <= (2u * (CPU_CFG_DATA_SIZE * 8u)))      /* Optimize for    2x the word size nbr of priorities   */
    if (OSPrioTbl[0] == 0u) {
 80018dc:	4b0b      	ldr	r3, [pc, #44]	@ (800190c <OS_PrioGetHighest+0x34>)
 80018de:	681b      	ldr	r3, [r3, #0]
 80018e0:	2b00      	cmp	r3, #0
 80018e2:	d109      	bne.n	80018f8 <OS_PrioGetHighest+0x20>
        return ((OS_PRIO)((OS_PRIO)CPU_CntLeadZeros(OSPrioTbl[1]) + (CPU_CFG_DATA_SIZE * 8u)));
 80018e4:	4b09      	ldr	r3, [pc, #36]	@ (800190c <OS_PrioGetHighest+0x34>)
 80018e6:	685b      	ldr	r3, [r3, #4]
 80018e8:	4618      	mov	r0, r3
 80018ea:	f7fe fc8c 	bl	8000206 <CPU_CntLeadZeros>
 80018ee:	4603      	mov	r3, r0
 80018f0:	b2db      	uxtb	r3, r3
 80018f2:	3320      	adds	r3, #32
 80018f4:	b2db      	uxtb	r3, r3
 80018f6:	e006      	b.n	8001906 <OS_PrioGetHighest+0x2e>
    } else {
        return ((OS_PRIO)((OS_PRIO)CPU_CntLeadZeros(OSPrioTbl[0])));
 80018f8:	4b04      	ldr	r3, [pc, #16]	@ (800190c <OS_PrioGetHighest+0x34>)
 80018fa:	681b      	ldr	r3, [r3, #0]
 80018fc:	4618      	mov	r0, r3
 80018fe:	f7fe fc82 	bl	8000206 <CPU_CntLeadZeros>
 8001902:	4603      	mov	r3, r0
 8001904:	b2db      	uxtb	r3, r3
    }
    prio += (OS_PRIO)CPU_CntLeadZeros(*p_tbl);                  /* Find the position of the first bit set at the entry  */

    return (prio);
#endif
}
 8001906:	4618      	mov	r0, r3
 8001908:	bd80      	pop	{r7, pc}
 800190a:	bf00      	nop
 800190c:	20000dcc 	.word	0x20000dcc

08001910 <OS_PrioInsert>:
* Note(s)    : 1) This function is INTERNAL to uC/OS-III and your application MUST NOT call it.
************************************************************************************************************************
*/

void  OS_PrioInsert (OS_PRIO  prio)
{
 8001910:	b480      	push	{r7}
 8001912:	b083      	sub	sp, #12
 8001914:	af00      	add	r7, sp, #0
 8001916:	4603      	mov	r3, r0
 8001918:	71fb      	strb	r3, [r7, #7]
#if   (OS_CFG_PRIO_MAX <= (CPU_CFG_DATA_SIZE * 8u))             /* Optimize for less than word size nbr of priorities   */
    OSPrioTbl[0] |= (CPU_DATA)1u << (((CPU_CFG_DATA_SIZE * 8u) - 1u) - prio);


#elif (OS_CFG_PRIO_MAX <= (2u * (CPU_CFG_DATA_SIZE * 8u)))      /* Optimize for    2x the word size nbr of priorities   */
    if (prio < (CPU_CFG_DATA_SIZE * 8u)) {
 800191a:	79fb      	ldrb	r3, [r7, #7]
 800191c:	2b1f      	cmp	r3, #31
 800191e:	d80a      	bhi.n	8001936 <OS_PrioInsert+0x26>
        OSPrioTbl[0] |= (CPU_DATA)1u << (((CPU_CFG_DATA_SIZE * 8u) - 1u) - prio);
 8001920:	4b0d      	ldr	r3, [pc, #52]	@ (8001958 <OS_PrioInsert+0x48>)
 8001922:	681a      	ldr	r2, [r3, #0]
 8001924:	79fb      	ldrb	r3, [r7, #7]
 8001926:	f04f 4100 	mov.w	r1, #2147483648	@ 0x80000000
 800192a:	fa21 f303 	lsr.w	r3, r1, r3
 800192e:	4313      	orrs	r3, r2
 8001930:	4a09      	ldr	r2, [pc, #36]	@ (8001958 <OS_PrioInsert+0x48>)
 8001932:	6013      	str	r3, [r2, #0]

    ix             = (OS_PRIO)(prio /  (CPU_CFG_DATA_SIZE * 8u));
    bit_nbr        = (CPU_DATA)prio & ((CPU_CFG_DATA_SIZE * 8u) - 1u);
    OSPrioTbl[ix] |= (CPU_DATA)1u << (((CPU_CFG_DATA_SIZE * 8u) - 1u) - bit_nbr);
#endif
}
 8001934:	e00a      	b.n	800194c <OS_PrioInsert+0x3c>
        OSPrioTbl[1] |= (CPU_DATA)1u << (((CPU_CFG_DATA_SIZE * 8u) - 1u) - (prio - (CPU_CFG_DATA_SIZE * 8u)));
 8001936:	4b08      	ldr	r3, [pc, #32]	@ (8001958 <OS_PrioInsert+0x48>)
 8001938:	685a      	ldr	r2, [r3, #4]
 800193a:	79fb      	ldrb	r3, [r7, #7]
 800193c:	f1c3 033f 	rsb	r3, r3, #63	@ 0x3f
 8001940:	2101      	movs	r1, #1
 8001942:	fa01 f303 	lsl.w	r3, r1, r3
 8001946:	4313      	orrs	r3, r2
 8001948:	4a03      	ldr	r2, [pc, #12]	@ (8001958 <OS_PrioInsert+0x48>)
 800194a:	6053      	str	r3, [r2, #4]
}
 800194c:	bf00      	nop
 800194e:	370c      	adds	r7, #12
 8001950:	46bd      	mov	sp, r7
 8001952:	f85d 7b04 	ldr.w	r7, [sp], #4
 8001956:	4770      	bx	lr
 8001958:	20000dcc 	.word	0x20000dcc

0800195c <OS_PrioRemove>:
* Note(s)    : 1) This function is INTERNAL to uC/OS-III and your application MUST NOT call it.
************************************************************************************************************************
*/

void  OS_PrioRemove (OS_PRIO  prio)
{
 800195c:	b480      	push	{r7}
 800195e:	b083      	sub	sp, #12
 8001960:	af00      	add	r7, sp, #0
 8001962:	4603      	mov	r3, r0
 8001964:	71fb      	strb	r3, [r7, #7]
#if   (OS_CFG_PRIO_MAX <= (CPU_CFG_DATA_SIZE * 8u))             /* Optimize for less than word size nbr of priorities   */
    OSPrioTbl[0] &= ~((CPU_DATA)1u << (((CPU_CFG_DATA_SIZE * 8u) - 1u) - prio));


#elif (OS_CFG_PRIO_MAX <= (2u * (CPU_CFG_DATA_SIZE * 8u)))      /* Optimize for    2x the word size nbr of priorities   */
    if (prio < (CPU_CFG_DATA_SIZE * 8u)) {
 8001966:	79fb      	ldrb	r3, [r7, #7]
 8001968:	2b1f      	cmp	r3, #31
 800196a:	d80b      	bhi.n	8001984 <OS_PrioRemove+0x28>
        OSPrioTbl[0] &= ~((CPU_DATA)1u << (((CPU_CFG_DATA_SIZE * 8u) - 1u) - prio));
 800196c:	4b0e      	ldr	r3, [pc, #56]	@ (80019a8 <OS_PrioRemove+0x4c>)
 800196e:	681a      	ldr	r2, [r3, #0]
 8001970:	79fb      	ldrb	r3, [r7, #7]
 8001972:	f04f 4100 	mov.w	r1, #2147483648	@ 0x80000000
 8001976:	fa21 f303 	lsr.w	r3, r1, r3
 800197a:	43db      	mvns	r3, r3
 800197c:	4013      	ands	r3, r2
 800197e:	4a0a      	ldr	r2, [pc, #40]	@ (80019a8 <OS_PrioRemove+0x4c>)
 8001980:	6013      	str	r3, [r2, #0]

    ix             =   (OS_PRIO)(prio  /   (CPU_CFG_DATA_SIZE * 8u));
    bit_nbr        =   (CPU_DATA)prio  &  ((CPU_CFG_DATA_SIZE * 8u) - 1u);
    OSPrioTbl[ix] &= ~((CPU_DATA)  1u << (((CPU_CFG_DATA_SIZE * 8u) - 1u) - bit_nbr));
#endif
}
 8001982:	e00b      	b.n	800199c <OS_PrioRemove+0x40>
        OSPrioTbl[1] &= ~((CPU_DATA)1u << (((CPU_CFG_DATA_SIZE * 8u) - 1u) - (prio - (CPU_CFG_DATA_SIZE * 8u))));
 8001984:	4b08      	ldr	r3, [pc, #32]	@ (80019a8 <OS_PrioRemove+0x4c>)
 8001986:	685a      	ldr	r2, [r3, #4]
 8001988:	79fb      	ldrb	r3, [r7, #7]
 800198a:	f1c3 033f 	rsb	r3, r3, #63	@ 0x3f
 800198e:	2101      	movs	r1, #1
 8001990:	fa01 f303 	lsl.w	r3, r1, r3
 8001994:	43db      	mvns	r3, r3
 8001996:	4013      	ands	r3, r2
 8001998:	4a03      	ldr	r2, [pc, #12]	@ (80019a8 <OS_PrioRemove+0x4c>)
 800199a:	6053      	str	r3, [r2, #4]
}
 800199c:	bf00      	nop
 800199e:	370c      	adds	r7, #12
 80019a0:	46bd      	mov	sp, r7
 80019a2:	f85d 7b04 	ldr.w	r7, [sp], #4
 80019a6:	4770      	bx	lr
 80019a8:	20000dcc 	.word	0x20000dcc

080019ac <OSStatReset>:
* Note(s)    : none
************************************************************************************************************************
*/

void  OSStatReset (OS_ERR  *p_err)
{
 80019ac:	b580      	push	{r7, lr}
 80019ae:	b084      	sub	sp, #16
 80019b0:	af00      	add	r7, sp, #0
 80019b2:	6078      	str	r0, [r7, #4]
#endif
#if (OS_CFG_Q_EN > 0u)
    OS_Q        *p_q;
#endif
#endif
    CPU_SR_ALLOC();
 80019b4:	2300      	movs	r3, #0
 80019b6:	60fb      	str	r3, [r7, #12]
        OS_SAFETY_CRITICAL_EXCEPTION();
        return;
    }
#endif

    CPU_CRITICAL_ENTER();
 80019b8:	2040      	movs	r0, #64	@ 0x40
 80019ba:	f7fe fc09 	bl	80001d0 <CPU_SR_Save>
 80019be:	60f8      	str	r0, [r7, #12]
#if (OS_CFG_STAT_TASK_EN > 0u)
    OSStatTaskCPUUsageMax = 0u;
 80019c0:	4b06      	ldr	r3, [pc, #24]	@ (80019dc <OSStatReset+0x30>)
 80019c2:	2200      	movs	r2, #0
 80019c4:	801a      	strh	r2, [r3, #0]
#endif

#if ((OS_MSG_EN > 0u) && (OS_CFG_DBG_EN > 0u))
    OSMsgPool.NbrUsedMax  = 0u;
#endif
    CPU_CRITICAL_EXIT();
 80019c6:	68f8      	ldr	r0, [r7, #12]
 80019c8:	f7fe fc10 	bl	80001ec <CPU_SR_Restore>
        CPU_CRITICAL_EXIT();
    }
#endif


   *p_err = OS_ERR_NONE;
 80019cc:	687b      	ldr	r3, [r7, #4]
 80019ce:	2200      	movs	r2, #0
 80019d0:	801a      	strh	r2, [r3, #0]
}
 80019d2:	bf00      	nop
 80019d4:	3710      	adds	r7, #16
 80019d6:	46bd      	mov	sp, r7
 80019d8:	bd80      	pop	{r7, pc}
 80019da:	bf00      	nop
 80019dc:	20000fe0 	.word	0x20000fe0

080019e0 <OS_StatTask>:
*              4) This function is INTERNAL to uC/OS-III and your application should not call it.
************************************************************************************************************************
*/

void  OS_StatTask (void  *p_arg)
{
 80019e0:	b580      	push	{r7, lr}
 80019e2:	b08c      	sub	sp, #48	@ 0x30
 80019e4:	af00      	add	r7, sp, #0
 80019e6:	6078      	str	r0, [r7, #4]
#if (OS_CFG_STAT_TASK_STK_CHK_EN > 0u) && (OS_CFG_ISR_STK_SIZE > 0u)
    CPU_STK     *p_stk;
    CPU_INT32U   free_stk;
    CPU_INT32U   size_stk;
#endif
    CPU_SR_ALLOC();
 80019e8:	2300      	movs	r3, #0
 80019ea:	61bb      	str	r3, [r7, #24]


    (void)p_arg;                                                /* Prevent compiler warning for not using 'p_arg'       */

    while (OSStatTaskRdy != OS_TRUE) {
 80019ec:	e008      	b.n	8001a00 <OS_StatTask+0x20>
        OSTimeDly(2u * OSCfg_StatTaskRate_Hz,                   /* Wait until statistic task is ready                   */
 80019ee:	4b64      	ldr	r3, [pc, #400]	@ (8001b80 <OS_StatTask+0x1a0>)
 80019f0:	681b      	ldr	r3, [r3, #0]
 80019f2:	005b      	lsls	r3, r3, #1
 80019f4:	f107 020e 	add.w	r2, r7, #14
 80019f8:	2100      	movs	r1, #0
 80019fa:	4618      	mov	r0, r3
 80019fc:	f000 ff3a 	bl	8002874 <OSTimeDly>
    while (OSStatTaskRdy != OS_TRUE) {
 8001a00:	4b60      	ldr	r3, [pc, #384]	@ (8001b84 <OS_StatTask+0x1a4>)
 8001a02:	781b      	ldrb	r3, [r3, #0]
 8001a04:	2b01      	cmp	r3, #1
 8001a06:	d1f2      	bne.n	80019ee <OS_StatTask+0xe>
                  OS_OPT_TIME_DLY,
                  &err);
    }
    OSStatReset(&err);                                          /* Reset statistics                                     */
 8001a08:	f107 030e 	add.w	r3, r7, #14
 8001a0c:	4618      	mov	r0, r3
 8001a0e:	f7ff ffcd 	bl	80019ac <OSStatReset>

    dly = (OS_TICK)0;                                           /* Compute statistic task sleep delay                   */
 8001a12:	2300      	movs	r3, #0
 8001a14:	627b      	str	r3, [r7, #36]	@ 0x24
    if (OSCfg_TickRate_Hz > OSCfg_StatTaskRate_Hz) {
 8001a16:	4b5c      	ldr	r3, [pc, #368]	@ (8001b88 <OS_StatTask+0x1a8>)
 8001a18:	681a      	ldr	r2, [r3, #0]
 8001a1a:	4b59      	ldr	r3, [pc, #356]	@ (8001b80 <OS_StatTask+0x1a0>)
 8001a1c:	681b      	ldr	r3, [r3, #0]
 8001a1e:	429a      	cmp	r2, r3
 8001a20:	d906      	bls.n	8001a30 <OS_StatTask+0x50>
        dly = (OSCfg_TickRate_Hz / OSCfg_StatTaskRate_Hz);
 8001a22:	4b59      	ldr	r3, [pc, #356]	@ (8001b88 <OS_StatTask+0x1a8>)
 8001a24:	681a      	ldr	r2, [r3, #0]
 8001a26:	4b56      	ldr	r3, [pc, #344]	@ (8001b80 <OS_StatTask+0x1a0>)
 8001a28:	681b      	ldr	r3, [r3, #0]
 8001a2a:	fbb2 f3f3 	udiv	r3, r2, r3
 8001a2e:	627b      	str	r3, [r7, #36]	@ 0x24
    }
    if (dly == 0u) {
 8001a30:	6a7b      	ldr	r3, [r7, #36]	@ 0x24
 8001a32:	2b00      	cmp	r3, #0
 8001a34:	d106      	bne.n	8001a44 <OS_StatTask+0x64>
        dly =  (OSCfg_TickRate_Hz / 10u);
 8001a36:	4b54      	ldr	r3, [pc, #336]	@ (8001b88 <OS_StatTask+0x1a8>)
 8001a38:	681b      	ldr	r3, [r3, #0]
 8001a3a:	4a54      	ldr	r2, [pc, #336]	@ (8001b8c <OS_StatTask+0x1ac>)
 8001a3c:	fba2 2303 	umull	r2, r3, r2, r3
 8001a40:	08db      	lsrs	r3, r3, #3
 8001a42:	627b      	str	r3, [r7, #36]	@ 0x24
#ifdef  CPU_CFG_INT_DIS_MEAS_EN
        OSIntDisTimeMax = CPU_IntDisMeasMaxGet();
#endif
#endif

        CPU_CRITICAL_ENTER();                                   /* ---------------- OVERALL CPU USAGE ----------------- */
 8001a44:	2040      	movs	r0, #64	@ 0x40
 8001a46:	f7fe fbc3 	bl	80001d0 <CPU_SR_Save>
 8001a4a:	61b8      	str	r0, [r7, #24]
        OSStatTaskCtrRun   = OSStatTaskCtr;                     /* Obtain the of the stat counter for the past .1 second*/
 8001a4c:	4b50      	ldr	r3, [pc, #320]	@ (8001b90 <OS_StatTask+0x1b0>)
 8001a4e:	681b      	ldr	r3, [r3, #0]
 8001a50:	4a50      	ldr	r2, [pc, #320]	@ (8001b94 <OS_StatTask+0x1b4>)
 8001a52:	6013      	str	r3, [r2, #0]
        OSStatTaskCtr      = 0u;                                /* Reset the stat counter for the next .1 second        */
 8001a54:	4b4e      	ldr	r3, [pc, #312]	@ (8001b90 <OS_StatTask+0x1b0>)
 8001a56:	2200      	movs	r2, #0
 8001a58:	601a      	str	r2, [r3, #0]
        CPU_CRITICAL_EXIT();
 8001a5a:	69b8      	ldr	r0, [r7, #24]
 8001a5c:	f7fe fbc6 	bl	80001ec <CPU_SR_Restore>

        if (OSStatTaskCtrMax > OSStatTaskCtrRun) {              /* Compute CPU Usage with best resolution               */
 8001a60:	4b4d      	ldr	r3, [pc, #308]	@ (8001b98 <OS_StatTask+0x1b8>)
 8001a62:	681a      	ldr	r2, [r3, #0]
 8001a64:	4b4b      	ldr	r3, [pc, #300]	@ (8001b94 <OS_StatTask+0x1b4>)
 8001a66:	681b      	ldr	r3, [r3, #0]
 8001a68:	429a      	cmp	r2, r3
 8001a6a:	d94f      	bls.n	8001b0c <OS_StatTask+0x12c>
            if (OSStatTaskCtrMax < 400000u) {                   /* 1 to       400,000                                   */
 8001a6c:	4b4a      	ldr	r3, [pc, #296]	@ (8001b98 <OS_StatTask+0x1b8>)
 8001a6e:	681b      	ldr	r3, [r3, #0]
 8001a70:	4a4a      	ldr	r2, [pc, #296]	@ (8001b9c <OS_StatTask+0x1bc>)
 8001a72:	4293      	cmp	r3, r2
 8001a74:	d805      	bhi.n	8001a82 <OS_StatTask+0xa2>
                ctr_mult = 10000u;
 8001a76:	f242 7310 	movw	r3, #10000	@ 0x2710
 8001a7a:	62fb      	str	r3, [r7, #44]	@ 0x2c
                ctr_div  =     1u;
 8001a7c:	2301      	movs	r3, #1
 8001a7e:	62bb      	str	r3, [r7, #40]	@ 0x28
 8001a80:	e024      	b.n	8001acc <OS_StatTask+0xec>
            } else if (OSStatTaskCtrMax <   4000000u) {         /* 400,000 to     4,000,000                             */
 8001a82:	4b45      	ldr	r3, [pc, #276]	@ (8001b98 <OS_StatTask+0x1b8>)
 8001a84:	681b      	ldr	r3, [r3, #0]
 8001a86:	4a46      	ldr	r2, [pc, #280]	@ (8001ba0 <OS_StatTask+0x1c0>)
 8001a88:	4293      	cmp	r3, r2
 8001a8a:	d805      	bhi.n	8001a98 <OS_StatTask+0xb8>
                ctr_mult =  1000u;
 8001a8c:	f44f 737a 	mov.w	r3, #1000	@ 0x3e8
 8001a90:	62fb      	str	r3, [r7, #44]	@ 0x2c
                ctr_div  =    10u;
 8001a92:	230a      	movs	r3, #10
 8001a94:	62bb      	str	r3, [r7, #40]	@ 0x28
 8001a96:	e019      	b.n	8001acc <OS_StatTask+0xec>
            } else if (OSStatTaskCtrMax <  40000000u) {         /* 4,000,000 to    40,000,000                           */
 8001a98:	4b3f      	ldr	r3, [pc, #252]	@ (8001b98 <OS_StatTask+0x1b8>)
 8001a9a:	681b      	ldr	r3, [r3, #0]
 8001a9c:	4a41      	ldr	r2, [pc, #260]	@ (8001ba4 <OS_StatTask+0x1c4>)
 8001a9e:	4293      	cmp	r3, r2
 8001aa0:	d204      	bcs.n	8001aac <OS_StatTask+0xcc>
                ctr_mult =   100u;
 8001aa2:	2364      	movs	r3, #100	@ 0x64
 8001aa4:	62fb      	str	r3, [r7, #44]	@ 0x2c
                ctr_div  =   100u;
 8001aa6:	2364      	movs	r3, #100	@ 0x64
 8001aa8:	62bb      	str	r3, [r7, #40]	@ 0x28
 8001aaa:	e00f      	b.n	8001acc <OS_StatTask+0xec>
            } else if (OSStatTaskCtrMax < 400000000u) {         /* 40,000,000 to   400,000,000                          */
 8001aac:	4b3a      	ldr	r3, [pc, #232]	@ (8001b98 <OS_StatTask+0x1b8>)
 8001aae:	681b      	ldr	r3, [r3, #0]
 8001ab0:	4a3d      	ldr	r2, [pc, #244]	@ (8001ba8 <OS_StatTask+0x1c8>)
 8001ab2:	4293      	cmp	r3, r2
 8001ab4:	d805      	bhi.n	8001ac2 <OS_StatTask+0xe2>
                ctr_mult =    10u;
 8001ab6:	230a      	movs	r3, #10
 8001ab8:	62fb      	str	r3, [r7, #44]	@ 0x2c
                ctr_div  =  1000u;
 8001aba:	f44f 737a 	mov.w	r3, #1000	@ 0x3e8
 8001abe:	62bb      	str	r3, [r7, #40]	@ 0x28
 8001ac0:	e004      	b.n	8001acc <OS_StatTask+0xec>
            } else {                                            /* 400,000,000 and up                                   */
                ctr_mult =     1u;
 8001ac2:	2301      	movs	r3, #1
 8001ac4:	62fb      	str	r3, [r7, #44]	@ 0x2c
                ctr_div  = 10000u;
 8001ac6:	f242 7310 	movw	r3, #10000	@ 0x2710
 8001aca:	62bb      	str	r3, [r7, #40]	@ 0x28
            }
            ctr_max            = OSStatTaskCtrMax / ctr_div;
 8001acc:	4b32      	ldr	r3, [pc, #200]	@ (8001b98 <OS_StatTask+0x1b8>)
 8001ace:	681a      	ldr	r2, [r3, #0]
 8001ad0:	6abb      	ldr	r3, [r7, #40]	@ 0x28
 8001ad2:	fbb2 f3f3 	udiv	r3, r2, r3
 8001ad6:	617b      	str	r3, [r7, #20]
            OSStatTaskCPUUsage = (OS_CPU_USAGE)((OS_TICK)10000u - ((ctr_mult * OSStatTaskCtrRun) / ctr_max));
 8001ad8:	4b2e      	ldr	r3, [pc, #184]	@ (8001b94 <OS_StatTask+0x1b4>)
 8001ada:	681b      	ldr	r3, [r3, #0]
 8001adc:	6afa      	ldr	r2, [r7, #44]	@ 0x2c
 8001ade:	fb03 f202 	mul.w	r2, r3, r2
 8001ae2:	697b      	ldr	r3, [r7, #20]
 8001ae4:	fbb2 f3f3 	udiv	r3, r2, r3
 8001ae8:	b29b      	uxth	r3, r3
 8001aea:	f5c3 531c 	rsb	r3, r3, #9984	@ 0x2700
 8001aee:	3310      	adds	r3, #16
 8001af0:	b29a      	uxth	r2, r3
 8001af2:	4b2e      	ldr	r3, [pc, #184]	@ (8001bac <OS_StatTask+0x1cc>)
 8001af4:	801a      	strh	r2, [r3, #0]
            if (OSStatTaskCPUUsageMax < OSStatTaskCPUUsage) {
 8001af6:	4b2e      	ldr	r3, [pc, #184]	@ (8001bb0 <OS_StatTask+0x1d0>)
 8001af8:	881a      	ldrh	r2, [r3, #0]
 8001afa:	4b2c      	ldr	r3, [pc, #176]	@ (8001bac <OS_StatTask+0x1cc>)
 8001afc:	881b      	ldrh	r3, [r3, #0]
 8001afe:	429a      	cmp	r2, r3
 8001b00:	d207      	bcs.n	8001b12 <OS_StatTask+0x132>
                OSStatTaskCPUUsageMax = OSStatTaskCPUUsage;
 8001b02:	4b2a      	ldr	r3, [pc, #168]	@ (8001bac <OS_StatTask+0x1cc>)
 8001b04:	881a      	ldrh	r2, [r3, #0]
 8001b06:	4b2a      	ldr	r3, [pc, #168]	@ (8001bb0 <OS_StatTask+0x1d0>)
 8001b08:	801a      	strh	r2, [r3, #0]
 8001b0a:	e002      	b.n	8001b12 <OS_StatTask+0x132>
            }
        } else {
            OSStatTaskCPUUsage = 0u;
 8001b0c:	4b27      	ldr	r3, [pc, #156]	@ (8001bac <OS_StatTask+0x1cc>)
 8001b0e:	2200      	movs	r2, #0
 8001b10:	801a      	strh	r2, [r3, #0]
        }

        OSStatTaskHook();                                       /* Invoke user definable hook                           */
 8001b12:	f7fe fd89 	bl	8000628 <OSStatTaskHook>
        }
#endif

                                                                /*------------------ Check ISR Stack -------------------*/
#if (OS_CFG_STAT_TASK_STK_CHK_EN > 0u) && (OS_CFG_ISR_STK_SIZE > 0u)
        free_stk  = 0u;
 8001b16:	2300      	movs	r3, #0
 8001b18:	61fb      	str	r3, [r7, #28]
#if (CPU_CFG_STK_GROWTH == CPU_STK_GROWTH_HI_TO_LO)
        p_stk     = OSCfg_ISRStkBasePtr;                        /*   Start at the lowest memory and go up               */
 8001b1a:	4b26      	ldr	r3, [pc, #152]	@ (8001bb4 <OS_StatTask+0x1d4>)
 8001b1c:	681b      	ldr	r3, [r3, #0]
 8001b1e:	623b      	str	r3, [r7, #32]
#if (OS_CFG_TASK_STK_REDZONE_EN > 0u)
        p_stk    += OS_CFG_TASK_STK_REDZONE_DEPTH;
        size_stk  = OSCfg_ISRStkSize - OS_CFG_TASK_STK_REDZONE_DEPTH;
#else
        size_stk  = OSCfg_ISRStkSize;
 8001b20:	4b25      	ldr	r3, [pc, #148]	@ (8001bb8 <OS_StatTask+0x1d8>)
 8001b22:	681b      	ldr	r3, [r3, #0]
 8001b24:	613b      	str	r3, [r7, #16]
#endif
        while ((*p_stk == 0u) && (free_stk < size_stk)) {       /*   Compute the number of zero entries on the stk      */
 8001b26:	e005      	b.n	8001b34 <OS_StatTask+0x154>
            p_stk++;
 8001b28:	6a3b      	ldr	r3, [r7, #32]
 8001b2a:	3304      	adds	r3, #4
 8001b2c:	623b      	str	r3, [r7, #32]
            free_stk++;
 8001b2e:	69fb      	ldr	r3, [r7, #28]
 8001b30:	3301      	adds	r3, #1
 8001b32:	61fb      	str	r3, [r7, #28]
        while ((*p_stk == 0u) && (free_stk < size_stk)) {       /*   Compute the number of zero entries on the stk      */
 8001b34:	6a3b      	ldr	r3, [r7, #32]
 8001b36:	681b      	ldr	r3, [r3, #0]
 8001b38:	2b00      	cmp	r3, #0
 8001b3a:	d103      	bne.n	8001b44 <OS_StatTask+0x164>
 8001b3c:	69fa      	ldr	r2, [r7, #28]
 8001b3e:	693b      	ldr	r3, [r7, #16]
 8001b40:	429a      	cmp	r2, r3
 8001b42:	d3f1      	bcc.n	8001b28 <OS_StatTask+0x148>
        while ((*p_stk == 0u) && (free_stk < size_stk)) {       /*   Compute the number of zero entries on the stk      */
            free_stk++;
            p_stk--;
        }
#endif
        OSISRStkFree = free_stk;
 8001b44:	4a1d      	ldr	r2, [pc, #116]	@ (8001bbc <OS_StatTask+0x1dc>)
 8001b46:	69fb      	ldr	r3, [r7, #28]
 8001b48:	6013      	str	r3, [r2, #0]
        OSISRStkUsed = OSCfg_ISRStkSize - free_stk;
 8001b4a:	4b1b      	ldr	r3, [pc, #108]	@ (8001bb8 <OS_StatTask+0x1d8>)
 8001b4c:	681a      	ldr	r2, [r3, #0]
 8001b4e:	69fb      	ldr	r3, [r7, #28]
 8001b50:	1ad3      	subs	r3, r2, r3
 8001b52:	4a1b      	ldr	r2, [pc, #108]	@ (8001bc0 <OS_StatTask+0x1e0>)
 8001b54:	6013      	str	r3, [r2, #0]
#endif

        if (OSStatResetFlag == OS_TRUE) {                       /* Check if need to reset statistics                    */
 8001b56:	4b1b      	ldr	r3, [pc, #108]	@ (8001bc4 <OS_StatTask+0x1e4>)
 8001b58:	781b      	ldrb	r3, [r3, #0]
 8001b5a:	2b01      	cmp	r3, #1
 8001b5c:	d107      	bne.n	8001b6e <OS_StatTask+0x18e>
            OSStatResetFlag  = OS_FALSE;
 8001b5e:	4b19      	ldr	r3, [pc, #100]	@ (8001bc4 <OS_StatTask+0x1e4>)
 8001b60:	2200      	movs	r2, #0
 8001b62:	701a      	strb	r2, [r3, #0]
            OSStatReset(&err);
 8001b64:	f107 030e 	add.w	r3, r7, #14
 8001b68:	4618      	mov	r0, r3
 8001b6a:	f7ff ff1f 	bl	80019ac <OSStatReset>
        if (OSStatTaskTimeMax < OSStatTaskTime) {
            OSStatTaskTimeMax = OSStatTaskTime;
        }
#endif

        OSTimeDly(dly,
 8001b6e:	f107 030e 	add.w	r3, r7, #14
 8001b72:	461a      	mov	r2, r3
 8001b74:	2100      	movs	r1, #0
 8001b76:	6a78      	ldr	r0, [r7, #36]	@ 0x24
 8001b78:	f000 fe7c 	bl	8002874 <OSTimeDly>
        CPU_CRITICAL_ENTER();                                   /* ---------------- OVERALL CPU USAGE ----------------- */
 8001b7c:	e762      	b.n	8001a44 <OS_StatTask+0x64>
 8001b7e:	bf00      	nop
 8001b80:	08003f00 	.word	0x08003f00
 8001b84:	20000ff0 	.word	0x20000ff0
 8001b88:	08003f14 	.word	0x08003f14
 8001b8c:	cccccccd 	.word	0xcccccccd
 8001b90:	20000fe4 	.word	0x20000fe4
 8001b94:	20000fec 	.word	0x20000fec
 8001b98:	20000fe8 	.word	0x20000fe8
 8001b9c:	00061a7f 	.word	0x00061a7f
 8001ba0:	003d08ff 	.word	0x003d08ff
 8001ba4:	02625a00 	.word	0x02625a00
 8001ba8:	17d783ff 	.word	0x17d783ff
 8001bac:	20000fde 	.word	0x20000fde
 8001bb0:	20000fe0 	.word	0x20000fe0
 8001bb4:	08003eec 	.word	0x08003eec
 8001bb8:	08003ef0 	.word	0x08003ef0
 8001bbc:	20000db8 	.word	0x20000db8
 8001bc0:	20000dbc 	.word	0x20000dbc
 8001bc4:	20000fdd 	.word	0x20000fdd

08001bc8 <OS_StatTaskInit>:
* Note(s)    : This function is INTERNAL to uC/OS-III and your application should not call it.
************************************************************************************************************************
*/

void  OS_StatTaskInit (OS_ERR  *p_err)
{
 8001bc8:	b590      	push	{r4, r7, lr}
 8001bca:	b08d      	sub	sp, #52	@ 0x34
 8001bcc:	af0a      	add	r7, sp, #40	@ 0x28
 8001bce:	6078      	str	r0, [r7, #4]
    OSStatTaskCtr    = 0u;
 8001bd0:	4b28      	ldr	r3, [pc, #160]	@ (8001c74 <OS_StatTaskInit+0xac>)
 8001bd2:	2200      	movs	r2, #0
 8001bd4:	601a      	str	r2, [r3, #0]
    OSStatTaskCtrRun = 0u;
 8001bd6:	4b28      	ldr	r3, [pc, #160]	@ (8001c78 <OS_StatTaskInit+0xb0>)
 8001bd8:	2200      	movs	r2, #0
 8001bda:	601a      	str	r2, [r3, #0]
    OSStatTaskCtrMax = 0u;
 8001bdc:	4b27      	ldr	r3, [pc, #156]	@ (8001c7c <OS_StatTaskInit+0xb4>)
 8001bde:	2200      	movs	r2, #0
 8001be0:	601a      	str	r2, [r3, #0]
    OSStatTaskRdy    = OS_STATE_NOT_RDY;                        /* Statistic task is not ready                          */
 8001be2:	4b27      	ldr	r3, [pc, #156]	@ (8001c80 <OS_StatTaskInit+0xb8>)
 8001be4:	2200      	movs	r2, #0
 8001be6:	701a      	strb	r2, [r3, #0]
    OSStatResetFlag  = OS_FALSE;
 8001be8:	4b26      	ldr	r3, [pc, #152]	@ (8001c84 <OS_StatTaskInit+0xbc>)
 8001bea:	2200      	movs	r2, #0
 8001bec:	701a      	strb	r2, [r3, #0]

#if (OS_CFG_STAT_TASK_STK_CHK_EN > 0u) && (OS_CFG_ISR_STK_SIZE > 0u)
    OSISRStkFree     = 0u;
 8001bee:	4b26      	ldr	r3, [pc, #152]	@ (8001c88 <OS_StatTaskInit+0xc0>)
 8001bf0:	2200      	movs	r2, #0
 8001bf2:	601a      	str	r2, [r3, #0]
    OSISRStkUsed     = 0u;
 8001bf4:	4b25      	ldr	r3, [pc, #148]	@ (8001c8c <OS_StatTaskInit+0xc4>)
 8001bf6:	2200      	movs	r2, #0
 8001bf8:	601a      	str	r2, [r3, #0]
#endif
                                                                /* --------------- CREATE THE STAT TASK --------------- */
    if (OSCfg_StatTaskStkBasePtr == (CPU_STK *)0) {
 8001bfa:	4b25      	ldr	r3, [pc, #148]	@ (8001c90 <OS_StatTaskInit+0xc8>)
 8001bfc:	681b      	ldr	r3, [r3, #0]
 8001bfe:	2b00      	cmp	r3, #0
 8001c00:	d104      	bne.n	8001c0c <OS_StatTaskInit+0x44>
       *p_err = OS_ERR_STAT_STK_INVALID;
 8001c02:	687b      	ldr	r3, [r7, #4]
 8001c04:	f646 622b 	movw	r2, #28203	@ 0x6e2b
 8001c08:	801a      	strh	r2, [r3, #0]
        return;
 8001c0a:	e02f      	b.n	8001c6c <OS_StatTaskInit+0xa4>
    }

    if (OSCfg_StatTaskStkSize < OSCfg_StkSizeMin) {
 8001c0c:	4b21      	ldr	r3, [pc, #132]	@ (8001c94 <OS_StatTaskInit+0xcc>)
 8001c0e:	681a      	ldr	r2, [r3, #0]
 8001c10:	4b21      	ldr	r3, [pc, #132]	@ (8001c98 <OS_StatTaskInit+0xd0>)
 8001c12:	681b      	ldr	r3, [r3, #0]
 8001c14:	429a      	cmp	r2, r3
 8001c16:	d204      	bcs.n	8001c22 <OS_StatTaskInit+0x5a>
       *p_err = OS_ERR_STAT_STK_SIZE_INVALID;
 8001c18:	687b      	ldr	r3, [r7, #4]
 8001c1a:	f646 622c 	movw	r2, #28204	@ 0x6e2c
 8001c1e:	801a      	strh	r2, [r3, #0]
        return;
 8001c20:	e024      	b.n	8001c6c <OS_StatTaskInit+0xa4>
    }

    if (OSCfg_StatTaskPrio >= (OS_CFG_PRIO_MAX - 1u)) {
 8001c22:	4b1e      	ldr	r3, [pc, #120]	@ (8001c9c <OS_StatTaskInit+0xd4>)
 8001c24:	781b      	ldrb	r3, [r3, #0]
 8001c26:	2b3e      	cmp	r3, #62	@ 0x3e
 8001c28:	d904      	bls.n	8001c34 <OS_StatTaskInit+0x6c>
       *p_err = OS_ERR_STAT_PRIO_INVALID;
 8001c2a:	687b      	ldr	r3, [r7, #4]
 8001c2c:	f646 622a 	movw	r2, #28202	@ 0x6e2a
 8001c30:	801a      	strh	r2, [r3, #0]
        return;
 8001c32:	e01b      	b.n	8001c6c <OS_StatTaskInit+0xa4>
    }

    OSTaskCreate(&OSStatTaskTCB,
 8001c34:	4b19      	ldr	r3, [pc, #100]	@ (8001c9c <OS_StatTaskInit+0xd4>)
 8001c36:	781b      	ldrb	r3, [r3, #0]
 8001c38:	4a15      	ldr	r2, [pc, #84]	@ (8001c90 <OS_StatTaskInit+0xc8>)
 8001c3a:	6812      	ldr	r2, [r2, #0]
 8001c3c:	4918      	ldr	r1, [pc, #96]	@ (8001ca0 <OS_StatTaskInit+0xd8>)
 8001c3e:	6809      	ldr	r1, [r1, #0]
 8001c40:	4814      	ldr	r0, [pc, #80]	@ (8001c94 <OS_StatTaskInit+0xcc>)
 8001c42:	6800      	ldr	r0, [r0, #0]
 8001c44:	687c      	ldr	r4, [r7, #4]
 8001c46:	9408      	str	r4, [sp, #32]
 8001c48:	2403      	movs	r4, #3
 8001c4a:	9407      	str	r4, [sp, #28]
 8001c4c:	2400      	movs	r4, #0
 8001c4e:	9406      	str	r4, [sp, #24]
 8001c50:	2400      	movs	r4, #0
 8001c52:	9405      	str	r4, [sp, #20]
 8001c54:	2400      	movs	r4, #0
 8001c56:	9404      	str	r4, [sp, #16]
 8001c58:	9003      	str	r0, [sp, #12]
 8001c5a:	9102      	str	r1, [sp, #8]
 8001c5c:	9201      	str	r2, [sp, #4]
 8001c5e:	9300      	str	r3, [sp, #0]
 8001c60:	2300      	movs	r3, #0
 8001c62:	4a10      	ldr	r2, [pc, #64]	@ (8001ca4 <OS_StatTaskInit+0xdc>)
 8001c64:	2100      	movs	r1, #0
 8001c66:	4810      	ldr	r0, [pc, #64]	@ (8001ca8 <OS_StatTaskInit+0xe0>)
 8001c68:	f000 f820 	bl	8001cac <OSTaskCreate>
                  0u,
                  0u,
                 (void       *)0,
                 (OS_OPT_TASK_STK_CHK | OS_OPT_TASK_STK_CLR),
                  p_err);
}
 8001c6c:	370c      	adds	r7, #12
 8001c6e:	46bd      	mov	sp, r7
 8001c70:	bd90      	pop	{r4, r7, pc}
 8001c72:	bf00      	nop
 8001c74:	20000fe4 	.word	0x20000fe4
 8001c78:	20000fec 	.word	0x20000fec
 8001c7c:	20000fe8 	.word	0x20000fe8
 8001c80:	20000ff0 	.word	0x20000ff0
 8001c84:	20000fdd 	.word	0x20000fdd
 8001c88:	20000db8 	.word	0x20000db8
 8001c8c:	20000dbc 	.word	0x20000dbc
 8001c90:	08003f04 	.word	0x08003f04
 8001c94:	08003f0c 	.word	0x08003f0c
 8001c98:	08003f10 	.word	0x08003f10
 8001c9c:	08003efc 	.word	0x08003efc
 8001ca0:	08003f08 	.word	0x08003f08
 8001ca4:	080019e1 	.word	0x080019e1
 8001ca8:	20000ff4 	.word	0x20000ff4

08001cac <OSTaskCreate>:
                    OS_MSG_QTY     q_size,
                    OS_TICK        time_quanta,
                    void          *p_ext,
                    OS_OPT         opt,
                    OS_ERR        *p_err)
{
 8001cac:	b580      	push	{r7, lr}
 8001cae:	b08c      	sub	sp, #48	@ 0x30
 8001cb0:	af02      	add	r7, sp, #8
 8001cb2:	60f8      	str	r0, [r7, #12]
 8001cb4:	60b9      	str	r1, [r7, #8]
 8001cb6:	607a      	str	r2, [r7, #4]
 8001cb8:	603b      	str	r3, [r7, #0]
    OS_TLS_ID      id;
#endif

    CPU_STK       *p_sp;
    CPU_STK       *p_stk_limit;
    CPU_SR_ALLOC();
 8001cba:	2300      	movs	r3, #0
 8001cbc:	61bb      	str	r3, [r7, #24]
        return;
    }
#endif

#if (OS_CFG_CALLED_FROM_ISR_CHK_EN > 0u)
    if (OSIntNestingCtr > 0u) {                                 /* --------- CANNOT CREATE A TASK FROM AN ISR --------- */
 8001cbe:	4b7f      	ldr	r3, [pc, #508]	@ (8001ebc <OSTaskCreate+0x210>)
 8001cc0:	781b      	ldrb	r3, [r3, #0]
 8001cc2:	2b00      	cmp	r3, #0
 8001cc4:	d004      	beq.n	8001cd0 <OSTaskCreate+0x24>
        OS_TRACE_TASK_CREATE_FAILED(p_tcb);
       *p_err = OS_ERR_TASK_CREATE_ISR;
 8001cc6:	6d3b      	ldr	r3, [r7, #80]	@ 0x50
 8001cc8:	f247 124a 	movw	r2, #29002	@ 0x714a
 8001ccc:	801a      	strh	r2, [r3, #0]
        return;
 8001cce:	e0f2      	b.n	8001eb6 <OSTaskCreate+0x20a>
    }
#endif

#if (OS_CFG_ARG_CHK_EN > 0u)                                    /* ---------------- VALIDATE ARGUMENTS ---------------- */
    if (p_tcb == (OS_TCB *)0) {                                 /* User must supply a valid OS_TCB                      */
 8001cd0:	68fb      	ldr	r3, [r7, #12]
 8001cd2:	2b00      	cmp	r3, #0
 8001cd4:	d104      	bne.n	8001ce0 <OSTaskCreate+0x34>
        OS_TRACE_TASK_CREATE_FAILED(p_tcb);
       *p_err = OS_ERR_TCB_INVALID;
 8001cd6:	6d3b      	ldr	r3, [r7, #80]	@ 0x50
 8001cd8:	f247 12ad 	movw	r2, #29101	@ 0x71ad
 8001cdc:	801a      	strh	r2, [r3, #0]
        return;
 8001cde:	e0ea      	b.n	8001eb6 <OSTaskCreate+0x20a>
    }
    if (p_task == (OS_TASK_PTR)0u) {                            /* User must supply a valid task                        */
 8001ce0:	687b      	ldr	r3, [r7, #4]
 8001ce2:	2b00      	cmp	r3, #0
 8001ce4:	d104      	bne.n	8001cf0 <OSTaskCreate+0x44>
        OS_TRACE_TASK_CREATE_FAILED(p_tcb);
       *p_err = OS_ERR_TASK_INVALID;
 8001ce6:	6d3b      	ldr	r3, [r7, #80]	@ 0x50
 8001ce8:	f247 124f 	movw	r2, #29007	@ 0x714f
 8001cec:	801a      	strh	r2, [r3, #0]
        return;
 8001cee:	e0e2      	b.n	8001eb6 <OSTaskCreate+0x20a>
    }
    if (p_stk_base == (CPU_STK *)0) {                           /* User must supply a valid stack base address          */
 8001cf0:	6b7b      	ldr	r3, [r7, #52]	@ 0x34
 8001cf2:	2b00      	cmp	r3, #0
 8001cf4:	d104      	bne.n	8001d00 <OSTaskCreate+0x54>
        OS_TRACE_TASK_CREATE_FAILED(p_tcb);
       *p_err = OS_ERR_STK_INVALID;
 8001cf6:	6d3b      	ldr	r3, [r7, #80]	@ 0x50
 8001cf8:	f646 622f 	movw	r2, #28207	@ 0x6e2f
 8001cfc:	801a      	strh	r2, [r3, #0]
        return;
 8001cfe:	e0da      	b.n	8001eb6 <OSTaskCreate+0x20a>
    }
    if (stk_size < OSCfg_StkSizeMin) {                          /* User must supply a valid minimum stack size          */
 8001d00:	4b6f      	ldr	r3, [pc, #444]	@ (8001ec0 <OSTaskCreate+0x214>)
 8001d02:	681b      	ldr	r3, [r3, #0]
 8001d04:	6bfa      	ldr	r2, [r7, #60]	@ 0x3c
 8001d06:	429a      	cmp	r2, r3
 8001d08:	d204      	bcs.n	8001d14 <OSTaskCreate+0x68>
        OS_TRACE_TASK_CREATE_FAILED(p_tcb);
       *p_err = OS_ERR_STK_SIZE_INVALID;
 8001d0a:	6d3b      	ldr	r3, [r7, #80]	@ 0x50
 8001d0c:	f646 6230 	movw	r2, #28208	@ 0x6e30
 8001d10:	801a      	strh	r2, [r3, #0]
        return;
 8001d12:	e0d0      	b.n	8001eb6 <OSTaskCreate+0x20a>
    }
    if (stk_limit >= stk_size) {                                /* User must supply a valid stack limit                 */
 8001d14:	6bba      	ldr	r2, [r7, #56]	@ 0x38
 8001d16:	6bfb      	ldr	r3, [r7, #60]	@ 0x3c
 8001d18:	429a      	cmp	r2, r3
 8001d1a:	d304      	bcc.n	8001d26 <OSTaskCreate+0x7a>
        OS_TRACE_TASK_CREATE_FAILED(p_tcb);
       *p_err = OS_ERR_STK_LIMIT_INVALID;
 8001d1c:	6d3b      	ldr	r3, [r7, #80]	@ 0x50
 8001d1e:	f646 6231 	movw	r2, #28209	@ 0x6e31
 8001d22:	801a      	strh	r2, [r3, #0]
        return;
 8001d24:	e0c7      	b.n	8001eb6 <OSTaskCreate+0x20a>
    }
    if ((prio  > (OS_CFG_PRIO_MAX - 2u)) &&                     /* Priority must be within 0 and OS_CFG_PRIO_MAX-1      */
 8001d26:	f897 3030 	ldrb.w	r3, [r7, #48]	@ 0x30
 8001d2a:	2b3e      	cmp	r3, #62	@ 0x3e
 8001d2c:	d908      	bls.n	8001d40 <OSTaskCreate+0x94>
 8001d2e:	f897 3030 	ldrb.w	r3, [r7, #48]	@ 0x30
 8001d32:	2b3f      	cmp	r3, #63	@ 0x3f
 8001d34:	d004      	beq.n	8001d40 <OSTaskCreate+0x94>
        (prio != (OS_CFG_PRIO_MAX - 1u))) {
        OS_TRACE_TASK_CREATE_FAILED(p_tcb);
       *p_err = OS_ERR_PRIO_INVALID;
 8001d36:	6d3b      	ldr	r3, [r7, #80]	@ 0x50
 8001d38:	f246 2273 	movw	r2, #25203	@ 0x6273
 8001d3c:	801a      	strh	r2, [r3, #0]
        return;
 8001d3e:	e0ba      	b.n	8001eb6 <OSTaskCreate+0x20a>
    }
#endif

    if (prio == (OS_CFG_PRIO_MAX - 1u)) {
 8001d40:	f897 3030 	ldrb.w	r3, [r7, #48]	@ 0x30
 8001d44:	2b3f      	cmp	r3, #63	@ 0x3f
 8001d46:	d108      	bne.n	8001d5a <OSTaskCreate+0xae>
#if (OS_CFG_TASK_IDLE_EN > 0u)
        if (p_tcb != &OSIdleTaskTCB) {
 8001d48:	68fb      	ldr	r3, [r7, #12]
 8001d4a:	4a5e      	ldr	r2, [pc, #376]	@ (8001ec4 <OSTaskCreate+0x218>)
 8001d4c:	4293      	cmp	r3, r2
 8001d4e:	d004      	beq.n	8001d5a <OSTaskCreate+0xae>
            OS_TRACE_TASK_CREATE_FAILED(p_tcb);
           *p_err = OS_ERR_PRIO_INVALID;                        /* Not allowed to use same priority as idle task        */
 8001d50:	6d3b      	ldr	r3, [r7, #80]	@ 0x50
 8001d52:	f246 2273 	movw	r2, #25203	@ 0x6273
 8001d56:	801a      	strh	r2, [r3, #0]
            return;
 8001d58:	e0ad      	b.n	8001eb6 <OSTaskCreate+0x20a>
       *p_err = OS_ERR_PRIO_INVALID;                            /* Not allowed to use same priority as idle task        */
        return;
#endif
    }

    OS_TaskInitTCB(p_tcb);                                      /* Initialize the TCB to default values                 */
 8001d5a:	68f8      	ldr	r0, [r7, #12]
 8001d5c:	f000 f9da 	bl	8002114 <OS_TaskInitTCB>

   *p_err = OS_ERR_NONE;
 8001d60:	6d3b      	ldr	r3, [r7, #80]	@ 0x50
 8001d62:	2200      	movs	r2, #0
 8001d64:	801a      	strh	r2, [r3, #0]
                                                                /* -------------- CLEAR THE TASK'S STACK -------------- */
    if (((opt & OS_OPT_TASK_STK_CHK) != 0u) ||                  /* See if stack checking has been enabled               */
 8001d66:	f8b7 304c 	ldrh.w	r3, [r7, #76]	@ 0x4c
 8001d6a:	f003 0301 	and.w	r3, r3, #1
 8001d6e:	2b00      	cmp	r3, #0
 8001d70:	d105      	bne.n	8001d7e <OSTaskCreate+0xd2>
        ((opt & OS_OPT_TASK_STK_CLR) != 0u)) {                  /* See if stack needs to be cleared                     */
 8001d72:	f8b7 304c 	ldrh.w	r3, [r7, #76]	@ 0x4c
 8001d76:	f003 0302 	and.w	r3, r3, #2
    if (((opt & OS_OPT_TASK_STK_CHK) != 0u) ||                  /* See if stack checking has been enabled               */
 8001d7a:	2b00      	cmp	r3, #0
 8001d7c:	d017      	beq.n	8001dae <OSTaskCreate+0x102>
        if ((opt & OS_OPT_TASK_STK_CLR) != 0u) {
 8001d7e:	f8b7 304c 	ldrh.w	r3, [r7, #76]	@ 0x4c
 8001d82:	f003 0302 	and.w	r3, r3, #2
 8001d86:	2b00      	cmp	r3, #0
 8001d88:	d011      	beq.n	8001dae <OSTaskCreate+0x102>
            p_sp = p_stk_base;
 8001d8a:	6b7b      	ldr	r3, [r7, #52]	@ 0x34
 8001d8c:	61fb      	str	r3, [r7, #28]
            for (i = 0u; i < stk_size; i++) {                   /* Stack grows from HIGH to LOW memory                  */
 8001d8e:	2300      	movs	r3, #0
 8001d90:	627b      	str	r3, [r7, #36]	@ 0x24
 8001d92:	e008      	b.n	8001da6 <OSTaskCreate+0xfa>
               *p_sp = 0u;                                      /* Clear from bottom of stack and up!                   */
 8001d94:	69fb      	ldr	r3, [r7, #28]
 8001d96:	2200      	movs	r2, #0
 8001d98:	601a      	str	r2, [r3, #0]
                p_sp++;
 8001d9a:	69fb      	ldr	r3, [r7, #28]
 8001d9c:	3304      	adds	r3, #4
 8001d9e:	61fb      	str	r3, [r7, #28]
            for (i = 0u; i < stk_size; i++) {                   /* Stack grows from HIGH to LOW memory                  */
 8001da0:	6a7b      	ldr	r3, [r7, #36]	@ 0x24
 8001da2:	3301      	adds	r3, #1
 8001da4:	627b      	str	r3, [r7, #36]	@ 0x24
 8001da6:	6a7a      	ldr	r2, [r7, #36]	@ 0x24
 8001da8:	6bfb      	ldr	r3, [r7, #60]	@ 0x3c
 8001daa:	429a      	cmp	r2, r3
 8001dac:	d3f2      	bcc.n	8001d94 <OSTaskCreate+0xe8>
            }
        }
    }
                                                                /* ------ INITIALIZE THE STACK FRAME OF THE TASK ------ */
#if (CPU_CFG_STK_GROWTH == CPU_STK_GROWTH_HI_TO_LO)
    p_stk_limit = p_stk_base + stk_limit;
 8001dae:	6bbb      	ldr	r3, [r7, #56]	@ 0x38
 8001db0:	009b      	lsls	r3, r3, #2
 8001db2:	6b7a      	ldr	r2, [r7, #52]	@ 0x34
 8001db4:	4413      	add	r3, r2
 8001db6:	617b      	str	r3, [r7, #20]
#else
    p_stk_limit = p_stk_base + (stk_size - 1u) - stk_limit;
#endif

    p_sp = OSTaskStkInit(p_task,
 8001db8:	f8b7 304c 	ldrh.w	r3, [r7, #76]	@ 0x4c
 8001dbc:	9301      	str	r3, [sp, #4]
 8001dbe:	6bfb      	ldr	r3, [r7, #60]	@ 0x3c
 8001dc0:	9300      	str	r3, [sp, #0]
 8001dc2:	697b      	ldr	r3, [r7, #20]
 8001dc4:	6b7a      	ldr	r2, [r7, #52]	@ 0x34
 8001dc6:	6839      	ldr	r1, [r7, #0]
 8001dc8:	6878      	ldr	r0, [r7, #4]
 8001dca:	f7fe fc71 	bl	80006b0 <OSTaskStkInit>
 8001dce:	61f8      	str	r0, [r7, #28]
                         p_stk_limit,
                         stk_size,
                         opt);

#if (CPU_CFG_STK_GROWTH == CPU_STK_GROWTH_HI_TO_LO)             /* Check if we overflown the stack during init          */
    if (p_sp < p_stk_base) {
 8001dd0:	69fa      	ldr	r2, [r7, #28]
 8001dd2:	6b7b      	ldr	r3, [r7, #52]	@ 0x34
 8001dd4:	429a      	cmp	r2, r3
 8001dd6:	d204      	bcs.n	8001de2 <OSTaskCreate+0x136>
       *p_err = OS_ERR_STK_OVF;
 8001dd8:	6d3b      	ldr	r3, [r7, #80]	@ 0x50
 8001dda:	f646 6232 	movw	r2, #28210	@ 0x6e32
 8001dde:	801a      	strh	r2, [r3, #0]
        return;
 8001de0:	e069      	b.n	8001eb6 <OSTaskCreate+0x20a>
    p_tcb->NamePtr       = p_name;                              /* Save task name                                       */
#else
    (void)p_name;
#endif

    p_tcb->Prio          = prio;                                /* Save the task's priority                             */
 8001de2:	68fb      	ldr	r3, [r7, #12]
 8001de4:	f897 2030 	ldrb.w	r2, [r7, #48]	@ 0x30
 8001de8:	f883 202f 	strb.w	r2, [r3, #47]	@ 0x2f

#if (OS_CFG_MUTEX_EN > 0u)
    p_tcb->BasePrio      = prio;                                /* Set the base priority                                */
 8001dec:	68fb      	ldr	r3, [r7, #12]
 8001dee:	f897 2030 	ldrb.w	r2, [r7, #48]	@ 0x30
 8001df2:	f883 2030 	strb.w	r2, [r3, #48]	@ 0x30
#endif

    p_tcb->StkPtr        = p_sp;                                /* Save the new top-of-stack pointer                    */
 8001df6:	68fb      	ldr	r3, [r7, #12]
 8001df8:	69fa      	ldr	r2, [r7, #28]
 8001dfa:	601a      	str	r2, [r3, #0]
    p_tcb->StkLimitPtr   = p_stk_limit;                         /* Save the stack limit pointer                         */
 8001dfc:	68fb      	ldr	r3, [r7, #12]
 8001dfe:	697a      	ldr	r2, [r7, #20]
 8001e00:	609a      	str	r2, [r3, #8]

#if (OS_CFG_SCHED_ROUND_ROBIN_EN > 0u)
    p_tcb->TimeQuanta    = time_quanta;                         /* Save the #ticks for time slice (0 means not sliced)  */
 8001e02:	68fb      	ldr	r3, [r7, #12]
 8001e04:	6c7a      	ldr	r2, [r7, #68]	@ 0x44
 8001e06:	64da      	str	r2, [r3, #76]	@ 0x4c
    if (time_quanta == 0u) {
 8001e08:	6c7b      	ldr	r3, [r7, #68]	@ 0x44
 8001e0a:	2b00      	cmp	r3, #0
 8001e0c:	d104      	bne.n	8001e18 <OSTaskCreate+0x16c>
        p_tcb->TimeQuantaCtr = OSSchedRoundRobinDfltTimeQuanta;
 8001e0e:	4b2e      	ldr	r3, [pc, #184]	@ (8001ec8 <OSTaskCreate+0x21c>)
 8001e10:	681a      	ldr	r2, [r3, #0]
 8001e12:	68fb      	ldr	r3, [r7, #12]
 8001e14:	651a      	str	r2, [r3, #80]	@ 0x50
 8001e16:	e002      	b.n	8001e1e <OSTaskCreate+0x172>
    } else {
        p_tcb->TimeQuantaCtr = time_quanta;
 8001e18:	68fb      	ldr	r3, [r7, #12]
 8001e1a:	6c7a      	ldr	r2, [r7, #68]	@ 0x44
 8001e1c:	651a      	str	r2, [r3, #80]	@ 0x50
    }
#else
    (void)time_quanta;
#endif

    p_tcb->ExtPtr        = p_ext;                               /* Save pointer to TCB extension                        */
 8001e1e:	68fb      	ldr	r3, [r7, #12]
 8001e20:	6cba      	ldr	r2, [r7, #72]	@ 0x48
 8001e22:	605a      	str	r2, [r3, #4]
#if ((OS_CFG_DBG_EN > 0u) || (OS_CFG_STAT_TASK_STK_CHK_EN > 0u) || (OS_CFG_TASK_STK_REDZONE_EN > 0u))
    p_tcb->StkBasePtr    = p_stk_base;                          /* Save pointer to the base address of the stack        */
 8001e24:	68fb      	ldr	r3, [r7, #12]
 8001e26:	6b7a      	ldr	r2, [r7, #52]	@ 0x34
 8001e28:	61da      	str	r2, [r3, #28]
    p_tcb->StkSize       = stk_size;                            /* Save the stack size (in number of CPU_STK elements)  */
 8001e2a:	68fb      	ldr	r3, [r7, #12]
 8001e2c:	6bfa      	ldr	r2, [r7, #60]	@ 0x3c
 8001e2e:	639a      	str	r2, [r3, #56]	@ 0x38
#endif
    p_tcb->Opt           = opt;                                 /* Save task options                                    */
 8001e30:	68fb      	ldr	r3, [r7, #12]
 8001e32:	f8b7 204c 	ldrh.w	r2, [r7, #76]	@ 0x4c
 8001e36:	879a      	strh	r2, [r3, #60]	@ 0x3c

#if (OS_CFG_TASK_REG_TBL_SIZE > 0u)
    for (reg_nbr = 0u; reg_nbr < OS_CFG_TASK_REG_TBL_SIZE; reg_nbr++) {
 8001e38:	2300      	movs	r3, #0
 8001e3a:	f887 3023 	strb.w	r3, [r7, #35]	@ 0x23
 8001e3e:	e00b      	b.n	8001e58 <OSTaskCreate+0x1ac>
        p_tcb->RegTbl[reg_nbr] = 0u;
 8001e40:	f897 2023 	ldrb.w	r2, [r7, #35]	@ 0x23
 8001e44:	68fb      	ldr	r3, [r7, #12]
 8001e46:	321c      	adds	r2, #28
 8001e48:	2100      	movs	r1, #0
 8001e4a:	f843 1022 	str.w	r1, [r3, r2, lsl #2]
    for (reg_nbr = 0u; reg_nbr < OS_CFG_TASK_REG_TBL_SIZE; reg_nbr++) {
 8001e4e:	f897 3023 	ldrb.w	r3, [r7, #35]	@ 0x23
 8001e52:	3301      	adds	r3, #1
 8001e54:	f887 3023 	strb.w	r3, [r7, #35]	@ 0x23
 8001e58:	f897 3023 	ldrb.w	r3, [r7, #35]	@ 0x23
 8001e5c:	2b00      	cmp	r3, #0
 8001e5e:	d0ef      	beq.n	8001e40 <OSTaskCreate+0x194>
    }
#endif

#if (OS_CFG_TASK_Q_EN > 0u)
    OS_MsgQInit(&p_tcb->MsgQ,                                   /* Initialize the task's message queue                  */
 8001e60:	68fb      	ldr	r3, [r7, #12]
 8001e62:	335c      	adds	r3, #92	@ 0x5c
 8001e64:	f8b7 2040 	ldrh.w	r2, [r7, #64]	@ 0x40
 8001e68:	4611      	mov	r1, r2
 8001e6a:	4618      	mov	r0, r3
 8001e6c:	f7ff fb36 	bl	80014dc <OS_MsgQInit>
                q_size);
#else
    (void)q_size;
#endif

    OSTaskCreateHook(p_tcb);                                    /* Call user defined hook                               */
 8001e70:	68f8      	ldr	r0, [r7, #12]
 8001e72:	f7fe fbe7 	bl	8000644 <OSTaskCreateHook>
        p_tcb->TLS_Tbl[id] = 0u;
    }
    OS_TLS_TaskCreate(p_tcb);                                   /* Call TLS hook                                        */
#endif
                                                                /* -------------- ADD TASK TO READY LIST -------------- */
    CPU_CRITICAL_ENTER();
 8001e76:	2040      	movs	r0, #64	@ 0x40
 8001e78:	f7fe f9aa 	bl	80001d0 <CPU_SR_Save>
 8001e7c:	61b8      	str	r0, [r7, #24]
    OS_PrioInsert(p_tcb->Prio);
 8001e7e:	68fb      	ldr	r3, [r7, #12]
 8001e80:	f893 302f 	ldrb.w	r3, [r3, #47]	@ 0x2f
 8001e84:	4618      	mov	r0, r3
 8001e86:	f7ff fd43 	bl	8001910 <OS_PrioInsert>
    OS_RdyListInsertTail(p_tcb);
 8001e8a:	68f8      	ldr	r0, [r7, #12]
 8001e8c:	f7ff f936 	bl	80010fc <OS_RdyListInsertTail>

#if (OS_CFG_DBG_EN > 0u)
    OS_TaskDbgListAdd(p_tcb);
#endif

    OSTaskQty++;                                                /* Increment the #tasks counter                         */
 8001e90:	4b0e      	ldr	r3, [pc, #56]	@ (8001ecc <OSTaskCreate+0x220>)
 8001e92:	881b      	ldrh	r3, [r3, #0]
 8001e94:	3301      	adds	r3, #1
 8001e96:	b29a      	uxth	r2, r3
 8001e98:	4b0c      	ldr	r3, [pc, #48]	@ (8001ecc <OSTaskCreate+0x220>)
 8001e9a:	801a      	strh	r2, [r3, #0]

    if (OSRunning != OS_STATE_OS_RUNNING) {                     /* Return if multitasking has not started               */
 8001e9c:	4b0c      	ldr	r3, [pc, #48]	@ (8001ed0 <OSTaskCreate+0x224>)
 8001e9e:	781b      	ldrb	r3, [r3, #0]
 8001ea0:	2b01      	cmp	r3, #1
 8001ea2:	d003      	beq.n	8001eac <OSTaskCreate+0x200>
        CPU_CRITICAL_EXIT();
 8001ea4:	69b8      	ldr	r0, [r7, #24]
 8001ea6:	f7fe f9a1 	bl	80001ec <CPU_SR_Restore>
        return;
 8001eaa:	e004      	b.n	8001eb6 <OSTaskCreate+0x20a>
    }

    CPU_CRITICAL_EXIT();
 8001eac:	69b8      	ldr	r0, [r7, #24]
 8001eae:	f7fe f99d 	bl	80001ec <CPU_SR_Restore>

    OSSched();
 8001eb2:	f7fe fe3f 	bl	8000b34 <OSSched>
}
 8001eb6:	3728      	adds	r7, #40	@ 0x28
 8001eb8:	46bd      	mov	sp, r7
 8001eba:	bd80      	pop	{r7, pc}
 8001ebc:	20000db4 	.word	0x20000db4
 8001ec0:	08003f10 	.word	0x08003f10
 8001ec4:	20000d0c 	.word	0x20000d0c
 8001ec8:	20000fd8 	.word	0x20000fd8
 8001ecc:	200010a0 	.word	0x200010a0
 8001ed0:	20000db5 	.word	0x20000db5

08001ed4 <OSTaskDel>:
*/

#if (OS_CFG_TASK_DEL_EN > 0u)
void  OSTaskDel (OS_TCB  *p_tcb,
                 OS_ERR  *p_err)
{
 8001ed4:	b580      	push	{r7, lr}
 8001ed6:	b086      	sub	sp, #24
 8001ed8:	af00      	add	r7, sp, #0
 8001eda:	6078      	str	r0, [r7, #4]
 8001edc:	6039      	str	r1, [r7, #0]
#if (OS_CFG_MUTEX_EN > 0u)
    OS_TCB   *p_tcb_owner;
    OS_PRIO   prio_new;
#endif
    CPU_SR_ALLOC();
 8001ede:	2300      	movs	r3, #0
 8001ee0:	613b      	str	r3, [r7, #16]
        return;
    }
#endif

#if (OS_CFG_CALLED_FROM_ISR_CHK_EN > 0u)
    if (OSIntNestingCtr > 0u) {                                 /* See if trying to delete from ISR                     */
 8001ee2:	4b7b      	ldr	r3, [pc, #492]	@ (80020d0 <OSTaskDel+0x1fc>)
 8001ee4:	781b      	ldrb	r3, [r3, #0]
 8001ee6:	2b00      	cmp	r3, #0
 8001ee8:	d004      	beq.n	8001ef4 <OSTaskDel+0x20>
       *p_err = OS_ERR_TASK_DEL_ISR;
 8001eea:	683b      	ldr	r3, [r7, #0]
 8001eec:	f247 124e 	movw	r2, #29006	@ 0x714e
 8001ef0:	801a      	strh	r2, [r3, #0]
        return;
 8001ef2:	e0ea      	b.n	80020ca <OSTaskDel+0x1f6>
    }
#endif

#if (OS_CFG_INVALID_OS_CALLS_CHK_EN > 0u)
    if (OSRunning != OS_STATE_OS_RUNNING) {                     /* Is the kernel running?                               */
 8001ef4:	4b77      	ldr	r3, [pc, #476]	@ (80020d4 <OSTaskDel+0x200>)
 8001ef6:	781b      	ldrb	r3, [r3, #0]
 8001ef8:	2b01      	cmp	r3, #1
 8001efa:	d004      	beq.n	8001f06 <OSTaskDel+0x32>
       *p_err = OS_ERR_OS_NOT_RUNNING;
 8001efc:	683b      	ldr	r3, [r7, #0]
 8001efe:	f645 6289 	movw	r2, #24201	@ 0x5e89
 8001f02:	801a      	strh	r2, [r3, #0]
        return;
 8001f04:	e0e1      	b.n	80020ca <OSTaskDel+0x1f6>
    }
#endif

#if (OS_CFG_TASK_IDLE_EN > 0u)
    if (p_tcb == &OSIdleTaskTCB) {                              /* Not allowed to delete the idle task                  */
 8001f06:	687b      	ldr	r3, [r7, #4]
 8001f08:	4a73      	ldr	r2, [pc, #460]	@ (80020d8 <OSTaskDel+0x204>)
 8001f0a:	4293      	cmp	r3, r2
 8001f0c:	d104      	bne.n	8001f18 <OSTaskDel+0x44>
       *p_err = OS_ERR_TASK_DEL_IDLE;
 8001f0e:	683b      	ldr	r3, [r7, #0]
 8001f10:	f247 124c 	movw	r2, #29004	@ 0x714c
 8001f14:	801a      	strh	r2, [r3, #0]
        return;
 8001f16:	e0d8      	b.n	80020ca <OSTaskDel+0x1f6>
    }
#endif

    if (p_tcb == (OS_TCB *)0) {                                 /* Delete 'Self'?                                       */
 8001f18:	687b      	ldr	r3, [r7, #4]
 8001f1a:	2b00      	cmp	r3, #0
 8001f1c:	d109      	bne.n	8001f32 <OSTaskDel+0x5e>
        CPU_CRITICAL_ENTER();
 8001f1e:	2040      	movs	r0, #64	@ 0x40
 8001f20:	f7fe f956 	bl	80001d0 <CPU_SR_Save>
 8001f24:	6138      	str	r0, [r7, #16]
        p_tcb  = OSTCBCurPtr;                                   /* Yes.                                                 */
 8001f26:	4b6d      	ldr	r3, [pc, #436]	@ (80020dc <OSTaskDel+0x208>)
 8001f28:	681b      	ldr	r3, [r3, #0]
 8001f2a:	607b      	str	r3, [r7, #4]
        CPU_CRITICAL_EXIT();
 8001f2c:	6938      	ldr	r0, [r7, #16]
 8001f2e:	f7fe f95d 	bl	80001ec <CPU_SR_Restore>
    }

    CPU_CRITICAL_ENTER();
 8001f32:	2040      	movs	r0, #64	@ 0x40
 8001f34:	f7fe f94c 	bl	80001d0 <CPU_SR_Save>
 8001f38:	6138      	str	r0, [r7, #16]
    switch (p_tcb->TaskState) {
 8001f3a:	687b      	ldr	r3, [r7, #4]
 8001f3c:	f893 302e 	ldrb.w	r3, [r3, #46]	@ 0x2e
 8001f40:	2b07      	cmp	r3, #7
 8001f42:	f200 8093 	bhi.w	800206c <OSTaskDel+0x198>
 8001f46:	a201      	add	r2, pc, #4	@ (adr r2, 8001f4c <OSTaskDel+0x78>)
 8001f48:	f852 f023 	ldr.w	pc, [r2, r3, lsl #2]
 8001f4c:	08001f6d 	.word	0x08001f6d
 8001f50:	08001f75 	.word	0x08001f75
 8001f54:	08001f7d 	.word	0x08001f7d
 8001f58:	08001f7d 	.word	0x08001f7d
 8001f5c:	0800207d 	.word	0x0800207d
 8001f60:	08001f75 	.word	0x08001f75
 8001f64:	08001f7d 	.word	0x08001f7d
 8001f68:	08001f7d 	.word	0x08001f7d
        case OS_TASK_STATE_RDY:
             OS_RdyListRemove(p_tcb);
 8001f6c:	6878      	ldr	r0, [r7, #4]
 8001f6e:	f7ff f945 	bl	80011fc <OS_RdyListRemove>
             break;
 8001f72:	e086      	b.n	8002082 <OSTaskDel+0x1ae>
             break;

        case OS_TASK_STATE_DLY:                                 /* Task is only delayed, not on any wait list           */
        case OS_TASK_STATE_DLY_SUSPENDED:
#if (OS_CFG_TICK_EN > 0u)
             OS_TickListRemove(p_tcb);
 8001f74:	6878      	ldr	r0, [r7, #4]
 8001f76:	f000 fb6b 	bl	8002650 <OS_TickListRemove>
#endif
             break;
 8001f7a:	e082      	b.n	8002082 <OSTaskDel+0x1ae>

        case OS_TASK_STATE_PEND:
        case OS_TASK_STATE_PEND_SUSPENDED:
        case OS_TASK_STATE_PEND_TIMEOUT:
        case OS_TASK_STATE_PEND_TIMEOUT_SUSPENDED:
             switch (p_tcb->PendOn) {                           /* See what we are pending on                           */
 8001f7c:	687b      	ldr	r3, [r7, #4]
 8001f7e:	f893 302c 	ldrb.w	r3, [r3, #44]	@ 0x2c
 8001f82:	2b07      	cmp	r3, #7
 8001f84:	bf8c      	ite	hi
 8001f86:	2201      	movhi	r2, #1
 8001f88:	2200      	movls	r2, #0
 8001f8a:	b2d2      	uxtb	r2, r2
 8001f8c:	2a00      	cmp	r2, #0
 8001f8e:	d15a      	bne.n	8002046 <OSTaskDel+0x172>
 8001f90:	2201      	movs	r2, #1
 8001f92:	fa02 f303 	lsl.w	r3, r2, r3
 8001f96:	f003 0262 	and.w	r2, r3, #98	@ 0x62
 8001f9a:	2a00      	cmp	r2, #0
 8001f9c:	bf14      	ite	ne
 8001f9e:	2201      	movne	r2, #1
 8001fa0:	2200      	moveq	r2, #0
 8001fa2:	b2d2      	uxtb	r2, r2
 8001fa4:	2a00      	cmp	r2, #0
 8001fa6:	d112      	bne.n	8001fce <OSTaskDel+0xfa>
 8001fa8:	f003 0285 	and.w	r2, r3, #133	@ 0x85
 8001fac:	2a00      	cmp	r2, #0
 8001fae:	bf14      	ite	ne
 8001fb0:	2201      	movne	r2, #1
 8001fb2:	2200      	moveq	r2, #0
 8001fb4:	b2d2      	uxtb	r2, r2
 8001fb6:	2a00      	cmp	r2, #0
 8001fb8:	d147      	bne.n	800204a <OSTaskDel+0x176>
 8001fba:	f003 0310 	and.w	r3, r3, #16
 8001fbe:	2b00      	cmp	r3, #0
 8001fc0:	bf14      	ite	ne
 8001fc2:	2301      	movne	r3, #1
 8001fc4:	2300      	moveq	r3, #0
 8001fc6:	b2db      	uxtb	r3, r3
 8001fc8:	2b00      	cmp	r3, #0
 8001fca:	d104      	bne.n	8001fd6 <OSTaskDel+0x102>
                      break;
#endif

                 default:
                                                                /* Default case.                                        */
                      break;
 8001fcc:	e03b      	b.n	8002046 <OSTaskDel+0x172>
                      OS_PendListRemove(p_tcb);
 8001fce:	6878      	ldr	r0, [r7, #4]
 8001fd0:	f7fe ff67 	bl	8000ea2 <OS_PendListRemove>
                      break;
 8001fd4:	e03c      	b.n	8002050 <OSTaskDel+0x17c>
                      p_tcb_owner = ((OS_MUTEX *)((void *)p_tcb->PendObjPtr))->OwnerTCBPtr;
 8001fd6:	687b      	ldr	r3, [r7, #4]
 8001fd8:	6a9b      	ldr	r3, [r3, #40]	@ 0x28
 8001fda:	691b      	ldr	r3, [r3, #16]
 8001fdc:	60fb      	str	r3, [r7, #12]
                      prio_new = p_tcb_owner->Prio;
 8001fde:	68fb      	ldr	r3, [r7, #12]
 8001fe0:	f893 302f 	ldrb.w	r3, [r3, #47]	@ 0x2f
 8001fe4:	75fb      	strb	r3, [r7, #23]
                      OS_PendListRemove(p_tcb);
 8001fe6:	6878      	ldr	r0, [r7, #4]
 8001fe8:	f7fe ff5b 	bl	8000ea2 <OS_PendListRemove>
                      if ((p_tcb_owner->Prio != p_tcb_owner->BasePrio) &&
 8001fec:	68fb      	ldr	r3, [r7, #12]
 8001fee:	f893 202f 	ldrb.w	r2, [r3, #47]	@ 0x2f
 8001ff2:	68fb      	ldr	r3, [r7, #12]
 8001ff4:	f893 3030 	ldrb.w	r3, [r3, #48]	@ 0x30
 8001ff8:	429a      	cmp	r2, r3
 8001ffa:	d014      	beq.n	8002026 <OSTaskDel+0x152>
                          (p_tcb_owner->Prio == p_tcb->Prio)) { /* Has the owner inherited a priority?                  */
 8001ffc:	68fb      	ldr	r3, [r7, #12]
 8001ffe:	f893 202f 	ldrb.w	r2, [r3, #47]	@ 0x2f
 8002002:	687b      	ldr	r3, [r7, #4]
 8002004:	f893 302f 	ldrb.w	r3, [r3, #47]	@ 0x2f
                      if ((p_tcb_owner->Prio != p_tcb_owner->BasePrio) &&
 8002008:	429a      	cmp	r2, r3
 800200a:	d10c      	bne.n	8002026 <OSTaskDel+0x152>
                          prio_new = OS_MutexGrpPrioFindHighest(p_tcb_owner);
 800200c:	68f8      	ldr	r0, [r7, #12]
 800200e:	f7ff fbe0 	bl	80017d2 <OS_MutexGrpPrioFindHighest>
 8002012:	4603      	mov	r3, r0
 8002014:	75fb      	strb	r3, [r7, #23]
                          prio_new = (prio_new > p_tcb_owner->BasePrio) ? p_tcb_owner->BasePrio : prio_new;
 8002016:	68fb      	ldr	r3, [r7, #12]
 8002018:	f893 3030 	ldrb.w	r3, [r3, #48]	@ 0x30
 800201c:	7dfa      	ldrb	r2, [r7, #23]
 800201e:	4293      	cmp	r3, r2
 8002020:	bf28      	it	cs
 8002022:	4613      	movcs	r3, r2
 8002024:	75fb      	strb	r3, [r7, #23]
                      p_tcb->PendOn = OS_TASK_PEND_ON_NOTHING;
 8002026:	687b      	ldr	r3, [r7, #4]
 8002028:	2200      	movs	r2, #0
 800202a:	f883 202c 	strb.w	r2, [r3, #44]	@ 0x2c
                      if (prio_new != p_tcb_owner->Prio) {
 800202e:	68fb      	ldr	r3, [r7, #12]
 8002030:	f893 302f 	ldrb.w	r3, [r3, #47]	@ 0x2f
 8002034:	7dfa      	ldrb	r2, [r7, #23]
 8002036:	429a      	cmp	r2, r3
 8002038:	d009      	beq.n	800204e <OSTaskDel+0x17a>
                          OS_TaskChangePrio(p_tcb_owner, prio_new);
 800203a:	7dfb      	ldrb	r3, [r7, #23]
 800203c:	4619      	mov	r1, r3
 800203e:	68f8      	ldr	r0, [r7, #12]
 8002040:	f000 f92a 	bl	8002298 <OS_TaskChangePrio>
                      break;
 8002044:	e003      	b.n	800204e <OSTaskDel+0x17a>
                      break;
 8002046:	bf00      	nop
 8002048:	e002      	b.n	8002050 <OSTaskDel+0x17c>
                      break;
 800204a:	bf00      	nop
 800204c:	e000      	b.n	8002050 <OSTaskDel+0x17c>
                      break;
 800204e:	bf00      	nop
             }
#if (OS_CFG_TICK_EN > 0u)
             if ((p_tcb->TaskState == OS_TASK_STATE_PEND_TIMEOUT) ||
 8002050:	687b      	ldr	r3, [r7, #4]
 8002052:	f893 302e 	ldrb.w	r3, [r3, #46]	@ 0x2e
 8002056:	2b03      	cmp	r3, #3
 8002058:	d004      	beq.n	8002064 <OSTaskDel+0x190>
                 (p_tcb->TaskState == OS_TASK_STATE_PEND_TIMEOUT_SUSPENDED)) {
 800205a:	687b      	ldr	r3, [r7, #4]
 800205c:	f893 302e 	ldrb.w	r3, [r3, #46]	@ 0x2e
             if ((p_tcb->TaskState == OS_TASK_STATE_PEND_TIMEOUT) ||
 8002060:	2b07      	cmp	r3, #7
 8002062:	d10d      	bne.n	8002080 <OSTaskDel+0x1ac>
                 OS_TickListRemove(p_tcb);
 8002064:	6878      	ldr	r0, [r7, #4]
 8002066:	f000 faf3 	bl	8002650 <OS_TickListRemove>
             }
#endif
             break;
 800206a:	e009      	b.n	8002080 <OSTaskDel+0x1ac>

        default:
            CPU_CRITICAL_EXIT();
 800206c:	6938      	ldr	r0, [r7, #16]
 800206e:	f7fe f8bd 	bl	80001ec <CPU_SR_Restore>
           *p_err = OS_ERR_STATE_INVALID;
 8002072:	683b      	ldr	r3, [r7, #0]
 8002074:	f646 622d 	movw	r2, #28205	@ 0x6e2d
 8002078:	801a      	strh	r2, [r3, #0]
            return;
 800207a:	e026      	b.n	80020ca <OSTaskDel+0x1f6>
             break;
 800207c:	bf00      	nop
 800207e:	e000      	b.n	8002082 <OSTaskDel+0x1ae>
             break;
 8002080:	bf00      	nop
    }

#if (OS_CFG_MUTEX_EN > 0u)
    if(p_tcb->MutexGrpHeadPtr != (OS_MUTEX *)0) {
 8002082:	687b      	ldr	r3, [r7, #4]
 8002084:	6b5b      	ldr	r3, [r3, #52]	@ 0x34
 8002086:	2b00      	cmp	r3, #0
 8002088:	d002      	beq.n	8002090 <OSTaskDel+0x1bc>
        OS_MutexGrpPostAll(p_tcb);
 800208a:	6878      	ldr	r0, [r7, #4]
 800208c:	f7ff fbcb 	bl	8001826 <OS_MutexGrpPostAll>
    }
#endif

#if (OS_CFG_TASK_Q_EN > 0u)
    (void)OS_MsgQFreeAll(&p_tcb->MsgQ);                         /* Free task's message queue messages                   */
 8002090:	687b      	ldr	r3, [r7, #4]
 8002092:	335c      	adds	r3, #92	@ 0x5c
 8002094:	4618      	mov	r0, r3
 8002096:	f7ff f9e9 	bl	800146c <OS_MsgQFreeAll>
#endif

    OSTaskDelHook(p_tcb);                                       /* Call user defined hook                               */
 800209a:	6878      	ldr	r0, [r7, #4]
 800209c:	f7fe fae4 	bl	8000668 <OSTaskDelHook>

#if (OS_CFG_DBG_EN > 0u)
    OS_TaskDbgListRemove(p_tcb);
#endif

    OSTaskQty--;                                                /* One less task being managed                          */
 80020a0:	4b0f      	ldr	r3, [pc, #60]	@ (80020e0 <OSTaskDel+0x20c>)
 80020a2:	881b      	ldrh	r3, [r3, #0]
 80020a4:	3b01      	subs	r3, #1
 80020a6:	b29a      	uxth	r2, r3
 80020a8:	4b0d      	ldr	r3, [pc, #52]	@ (80020e0 <OSTaskDel+0x20c>)
 80020aa:	801a      	strh	r2, [r3, #0]

    OS_TRACE_TASK_DEL(p_tcb);

#if (OS_CFG_TASK_STK_REDZONE_EN == 0u)                          /* Don't clear the TCB before checking the red-zone     */
    OS_TaskInitTCB(p_tcb);                                      /* Initialize the TCB to default values                 */
 80020ac:	6878      	ldr	r0, [r7, #4]
 80020ae:	f000 f831 	bl	8002114 <OS_TaskInitTCB>
#endif
    p_tcb->TaskState = (OS_STATE)OS_TASK_STATE_DEL;             /* Indicate that the task was deleted                   */
 80020b2:	687b      	ldr	r3, [r7, #4]
 80020b4:	22ff      	movs	r2, #255	@ 0xff
 80020b6:	f883 202e 	strb.w	r2, [r3, #46]	@ 0x2e

   *p_err = OS_ERR_NONE;                                        /* See Note #1.                                         */
 80020ba:	683b      	ldr	r3, [r7, #0]
 80020bc:	2200      	movs	r2, #0
 80020be:	801a      	strh	r2, [r3, #0]
    CPU_CRITICAL_EXIT();
 80020c0:	6938      	ldr	r0, [r7, #16]
 80020c2:	f7fe f893 	bl	80001ec <CPU_SR_Restore>

    OSSched();                                                  /* Find new highest priority task                       */
 80020c6:	f7fe fd35 	bl	8000b34 <OSSched>
}
 80020ca:	3718      	adds	r7, #24
 80020cc:	46bd      	mov	sp, r7
 80020ce:	bd80      	pop	{r7, pc}
 80020d0:	20000db4 	.word	0x20000db4
 80020d4:	20000db5 	.word	0x20000db5
 80020d8:	20000d0c 	.word	0x20000d0c
 80020dc:	20001188 	.word	0x20001188
 80020e0:	200010a0 	.word	0x200010a0

080020e4 <OS_TaskInit>:
* Note(s)    : This function is INTERNAL to uC/OS-III and your application should not call it.
************************************************************************************************************************
*/

void  OS_TaskInit (OS_ERR  *p_err)
{
 80020e4:	b480      	push	{r7}
 80020e6:	b083      	sub	sp, #12
 80020e8:	af00      	add	r7, sp, #0
 80020ea:	6078      	str	r0, [r7, #4]
#if (OS_CFG_DBG_EN > 0u)
    OSTaskDbgListPtr = (OS_TCB *)0;
#endif

    OSTaskQty        = 0u;                                      /* Clear the number of tasks                            */
 80020ec:	4b07      	ldr	r3, [pc, #28]	@ (800210c <OS_TaskInit+0x28>)
 80020ee:	2200      	movs	r2, #0
 80020f0:	801a      	strh	r2, [r3, #0]

#if ((OS_CFG_TASK_PROFILE_EN > 0u) || (OS_CFG_DBG_EN > 0u))
    OSTaskCtxSwCtr   = 0u;                                      /* Clear the context switch counter                     */
 80020f2:	4b07      	ldr	r3, [pc, #28]	@ (8002110 <OS_TaskInit+0x2c>)
 80020f4:	2200      	movs	r2, #0
 80020f6:	601a      	str	r2, [r3, #0]
#endif

   *p_err            = OS_ERR_NONE;
 80020f8:	687b      	ldr	r3, [r7, #4]
 80020fa:	2200      	movs	r2, #0
 80020fc:	801a      	strh	r2, [r3, #0]
}
 80020fe:	bf00      	nop
 8002100:	370c      	adds	r7, #12
 8002102:	46bd      	mov	sp, r7
 8002104:	f85d 7b04 	ldr.w	r7, [sp], #4
 8002108:	4770      	bx	lr
 800210a:	bf00      	nop
 800210c:	200010a0 	.word	0x200010a0
 8002110:	2000109c 	.word	0x2000109c

08002114 <OS_TaskInitTCB>:
* Note(s)    : This function is INTERNAL to uC/OS-III and your application should not call it.
************************************************************************************************************************
*/

void  OS_TaskInitTCB (OS_TCB  *p_tcb)
{
 8002114:	b580      	push	{r7, lr}
 8002116:	b084      	sub	sp, #16
 8002118:	af00      	add	r7, sp, #0
 800211a:	6078      	str	r0, [r7, #4]
#if defined(OS_CFG_TLS_TBL_SIZE) && (OS_CFG_TLS_TBL_SIZE > 0u)
    OS_TLS_ID   id;
#endif


    p_tcb->StkPtr               = (CPU_STK          *)0;
 800211c:	687b      	ldr	r3, [r7, #4]
 800211e:	2200      	movs	r2, #0
 8002120:	601a      	str	r2, [r3, #0]
    p_tcb->StkLimitPtr          = (CPU_STK          *)0;
 8002122:	687b      	ldr	r3, [r7, #4]
 8002124:	2200      	movs	r2, #0
 8002126:	609a      	str	r2, [r3, #8]

    p_tcb->ExtPtr               = (void             *)0;
 8002128:	687b      	ldr	r3, [r7, #4]
 800212a:	2200      	movs	r2, #0
 800212c:	605a      	str	r2, [r3, #4]

    p_tcb->NextPtr              = (OS_TCB           *)0;
 800212e:	687b      	ldr	r3, [r7, #4]
 8002130:	2200      	movs	r2, #0
 8002132:	60da      	str	r2, [r3, #12]
    p_tcb->PrevPtr              = (OS_TCB           *)0;
 8002134:	687b      	ldr	r3, [r7, #4]
 8002136:	2200      	movs	r2, #0
 8002138:	611a      	str	r2, [r3, #16]

#if (OS_CFG_TICK_EN > 0u)
    p_tcb->TickNextPtr          = (OS_TCB           *)0;
 800213a:	687b      	ldr	r3, [r7, #4]
 800213c:	2200      	movs	r2, #0
 800213e:	615a      	str	r2, [r3, #20]
    p_tcb->TickPrevPtr          = (OS_TCB           *)0;
 8002140:	687b      	ldr	r3, [r7, #4]
 8002142:	2200      	movs	r2, #0
 8002144:	619a      	str	r2, [r3, #24]
#if (OS_CFG_DBG_EN > 0u)
    p_tcb->NamePtr              = (CPU_CHAR *)((void *)"?Task");
#endif

#if ((OS_CFG_DBG_EN > 0u) || (OS_CFG_STAT_TASK_STK_CHK_EN > 0u))
    p_tcb->StkBasePtr           = (CPU_STK          *)0;
 8002146:	687b      	ldr	r3, [r7, #4]
 8002148:	2200      	movs	r2, #0
 800214a:	61da      	str	r2, [r3, #28]
#if (OS_CFG_TS_EN > 0u)
    p_tcb->TS                   =                     0u;
#endif

#if (OS_MSG_EN > 0u)
    p_tcb->MsgPtr               = (void             *)0;
 800214c:	687b      	ldr	r3, [r7, #4]
 800214e:	2200      	movs	r2, #0
 8002150:	655a      	str	r2, [r3, #84]	@ 0x54
    p_tcb->MsgSize              =                     0u;
 8002152:	687b      	ldr	r3, [r7, #4]
 8002154:	2200      	movs	r2, #0
 8002156:	f8a3 2058 	strh.w	r2, [r3, #88]	@ 0x58
#endif

#if (OS_CFG_TASK_Q_EN > 0u)
    OS_MsgQInit(&p_tcb->MsgQ,
 800215a:	687b      	ldr	r3, [r7, #4]
 800215c:	335c      	adds	r3, #92	@ 0x5c
 800215e:	2100      	movs	r1, #0
 8002160:	4618      	mov	r0, r3
 8002162:	f7ff f9bb 	bl	80014dc <OS_MsgQInit>
                 0u);
#if (OS_CFG_TASK_PROFILE_EN > 0u)
    p_tcb->MsgQPendTime         =                     0u;
 8002166:	687b      	ldr	r3, [r7, #4]
 8002168:	2200      	movs	r2, #0
 800216a:	669a      	str	r2, [r3, #104]	@ 0x68
    p_tcb->MsgQPendTimeMax      =                     0u;
 800216c:	687b      	ldr	r3, [r7, #4]
 800216e:	2200      	movs	r2, #0
 8002170:	66da      	str	r2, [r3, #108]	@ 0x6c
#endif
#endif

#if (OS_CFG_FLAG_EN > 0u)
    p_tcb->FlagsPend            =                     0u;
 8002172:	687b      	ldr	r3, [r7, #4]
 8002174:	2200      	movs	r2, #0
 8002176:	675a      	str	r2, [r3, #116]	@ 0x74
    p_tcb->FlagsOpt             =                     0u;
 8002178:	687b      	ldr	r3, [r7, #4]
 800217a:	2200      	movs	r2, #0
 800217c:	f8a3 207c 	strh.w	r2, [r3, #124]	@ 0x7c
    p_tcb->FlagsRdy             =                     0u;
 8002180:	687b      	ldr	r3, [r7, #4]
 8002182:	2200      	movs	r2, #0
 8002184:	679a      	str	r2, [r3, #120]	@ 0x78
#endif

#if (OS_CFG_TASK_REG_TBL_SIZE > 0u)
    for (reg_id = 0u; reg_id < OS_CFG_TASK_REG_TBL_SIZE; reg_id++) {
 8002186:	2300      	movs	r3, #0
 8002188:	73fb      	strb	r3, [r7, #15]
 800218a:	e008      	b.n	800219e <OS_TaskInitTCB+0x8a>
        p_tcb->RegTbl[reg_id]   =                     0u;
 800218c:	7bfa      	ldrb	r2, [r7, #15]
 800218e:	687b      	ldr	r3, [r7, #4]
 8002190:	321c      	adds	r2, #28
 8002192:	2100      	movs	r1, #0
 8002194:	f843 1022 	str.w	r1, [r3, r2, lsl #2]
    for (reg_id = 0u; reg_id < OS_CFG_TASK_REG_TBL_SIZE; reg_id++) {
 8002198:	7bfb      	ldrb	r3, [r7, #15]
 800219a:	3301      	adds	r3, #1
 800219c:	73fb      	strb	r3, [r7, #15]
 800219e:	7bfb      	ldrb	r3, [r7, #15]
 80021a0:	2b00      	cmp	r3, #0
 80021a2:	d0f3      	beq.n	800218c <OS_TaskInitTCB+0x78>
    for (id = 0u; id < OS_CFG_TLS_TBL_SIZE; id++) {
        p_tcb->TLS_Tbl[id]      =                     0u;
    }
#endif

    p_tcb->SemCtr               =                     0u;
 80021a4:	687b      	ldr	r3, [r7, #4]
 80021a6:	2200      	movs	r2, #0
 80021a8:	641a      	str	r2, [r3, #64]	@ 0x40
#if (OS_CFG_TASK_PROFILE_EN > 0u)
    p_tcb->SemPendTime          =                     0u;
 80021aa:	687b      	ldr	r3, [r7, #4]
 80021ac:	2200      	movs	r2, #0
 80021ae:	f8c3 2098 	str.w	r2, [r3, #152]	@ 0x98
    p_tcb->SemPendTimeMax       =                     0u;
 80021b2:	687b      	ldr	r3, [r7, #4]
 80021b4:	2200      	movs	r2, #0
 80021b6:	f8c3 209c 	str.w	r2, [r3, #156]	@ 0x9c
#endif

#if ((OS_CFG_DBG_EN > 0u) || (OS_CFG_STAT_TASK_STK_CHK_EN > 0u))
    p_tcb->StkSize              =                     0u;
 80021ba:	687b      	ldr	r3, [r7, #4]
 80021bc:	2200      	movs	r2, #0
 80021be:	639a      	str	r2, [r3, #56]	@ 0x38
#endif


#if (OS_CFG_TASK_SUSPEND_EN > 0u)
    p_tcb->SuspendCtr           =                     0u;
 80021c0:	687b      	ldr	r3, [r7, #4]
 80021c2:	2200      	movs	r2, #0
 80021c4:	f883 207e 	strb.w	r2, [r3, #126]	@ 0x7e
#endif

#if (OS_CFG_STAT_TASK_STK_CHK_EN > 0u)
    p_tcb->StkFree              =                     0u;
 80021c8:	687b      	ldr	r3, [r7, #4]
 80021ca:	2200      	movs	r2, #0
 80021cc:	f8c3 20a4 	str.w	r2, [r3, #164]	@ 0xa4
    p_tcb->StkUsed              =                     0u;
 80021d0:	687b      	ldr	r3, [r7, #4]
 80021d2:	2200      	movs	r2, #0
 80021d4:	f8c3 20a0 	str.w	r2, [r3, #160]	@ 0xa0
#endif

    p_tcb->Opt                  =                     0u;
 80021d8:	687b      	ldr	r3, [r7, #4]
 80021da:	2200      	movs	r2, #0
 80021dc:	879a      	strh	r2, [r3, #60]	@ 0x3c

#if (OS_CFG_TICK_EN > 0u)
    p_tcb->TickRemain           =                     0u;
 80021de:	687b      	ldr	r3, [r7, #4]
 80021e0:	2200      	movs	r2, #0
 80021e2:	645a      	str	r2, [r3, #68]	@ 0x44
    p_tcb->TickCtrPrev          =                     0u;
 80021e4:	687b      	ldr	r3, [r7, #4]
 80021e6:	2200      	movs	r2, #0
 80021e8:	649a      	str	r2, [r3, #72]	@ 0x48
#endif

#if (OS_CFG_SCHED_ROUND_ROBIN_EN > 0u)
    p_tcb->TimeQuanta           =                     0u;
 80021ea:	687b      	ldr	r3, [r7, #4]
 80021ec:	2200      	movs	r2, #0
 80021ee:	64da      	str	r2, [r3, #76]	@ 0x4c
    p_tcb->TimeQuantaCtr        =                     0u;
 80021f0:	687b      	ldr	r3, [r7, #4]
 80021f2:	2200      	movs	r2, #0
 80021f4:	651a      	str	r2, [r3, #80]	@ 0x50
#endif

#if (OS_CFG_TASK_PROFILE_EN > 0u)
    p_tcb->CPUUsage             =                     0u;
 80021f6:	687b      	ldr	r3, [r7, #4]
 80021f8:	2200      	movs	r2, #0
 80021fa:	f8a3 2080 	strh.w	r2, [r3, #128]	@ 0x80
    p_tcb->CPUUsageMax          =                     0u;
 80021fe:	687b      	ldr	r3, [r7, #4]
 8002200:	2200      	movs	r2, #0
 8002202:	f8a3 2082 	strh.w	r2, [r3, #130]	@ 0x82
    p_tcb->CtxSwCtr             =                     0u;
 8002206:	687b      	ldr	r3, [r7, #4]
 8002208:	2200      	movs	r2, #0
 800220a:	f8c3 2084 	str.w	r2, [r3, #132]	@ 0x84
    p_tcb->CyclesDelta          =                     0u;
 800220e:	687b      	ldr	r3, [r7, #4]
 8002210:	2200      	movs	r2, #0
 8002212:	f8c3 2088 	str.w	r2, [r3, #136]	@ 0x88
#if (OS_CFG_TS_EN > 0u)
    p_tcb->CyclesStart          =  OS_TS_GET();                 /* Read the current timestamp and save                  */
#else
    p_tcb->CyclesStart          =                     0u;
 8002216:	687b      	ldr	r3, [r7, #4]
 8002218:	2200      	movs	r2, #0
 800221a:	f8c3 208c 	str.w	r2, [r3, #140]	@ 0x8c
#endif
    p_tcb->CyclesTotal          =                     0u;
 800221e:	687b      	ldr	r3, [r7, #4]
 8002220:	2200      	movs	r2, #0
 8002222:	f8c3 2090 	str.w	r2, [r3, #144]	@ 0x90
#endif
#if (OS_CFG_SCHED_LOCK_TIME_MEAS_EN > 0u)
    p_tcb->SchedLockTimeMax     =                     0u;
#endif

    p_tcb->PendNextPtr          = (OS_TCB           *)0;
 8002226:	687b      	ldr	r3, [r7, #4]
 8002228:	2200      	movs	r2, #0
 800222a:	621a      	str	r2, [r3, #32]
    p_tcb->PendPrevPtr          = (OS_TCB           *)0;
 800222c:	687b      	ldr	r3, [r7, #4]
 800222e:	2200      	movs	r2, #0
 8002230:	625a      	str	r2, [r3, #36]	@ 0x24
    p_tcb->PendObjPtr           = (OS_PEND_OBJ      *)0;
 8002232:	687b      	ldr	r3, [r7, #4]
 8002234:	2200      	movs	r2, #0
 8002236:	629a      	str	r2, [r3, #40]	@ 0x28
    p_tcb->PendOn               =  OS_TASK_PEND_ON_NOTHING;
 8002238:	687b      	ldr	r3, [r7, #4]
 800223a:	2200      	movs	r2, #0
 800223c:	f883 202c 	strb.w	r2, [r3, #44]	@ 0x2c
    p_tcb->PendStatus           =  OS_STATUS_PEND_OK;
 8002240:	687b      	ldr	r3, [r7, #4]
 8002242:	2200      	movs	r2, #0
 8002244:	f883 202d 	strb.w	r2, [r3, #45]	@ 0x2d
    p_tcb->TaskState            =  OS_TASK_STATE_RDY;
 8002248:	687b      	ldr	r3, [r7, #4]
 800224a:	2200      	movs	r2, #0
 800224c:	f883 202e 	strb.w	r2, [r3, #46]	@ 0x2e

    p_tcb->Prio                 =  OS_PRIO_INIT;
 8002250:	687b      	ldr	r3, [r7, #4]
 8002252:	2240      	movs	r2, #64	@ 0x40
 8002254:	f883 202f 	strb.w	r2, [r3, #47]	@ 0x2f
#if (OS_CFG_MUTEX_EN > 0u)
    p_tcb->BasePrio             =  OS_PRIO_INIT;
 8002258:	687b      	ldr	r3, [r7, #4]
 800225a:	2240      	movs	r2, #64	@ 0x40
 800225c:	f883 2030 	strb.w	r2, [r3, #48]	@ 0x30
    p_tcb->MutexGrpHeadPtr      = (OS_MUTEX         *)0;
 8002260:	687b      	ldr	r3, [r7, #4]
 8002262:	2200      	movs	r2, #0
 8002264:	635a      	str	r2, [r3, #52]	@ 0x34
#if (OS_CFG_DBG_EN > 0u)
    p_tcb->DbgPrevPtr           = (OS_TCB           *)0;
    p_tcb->DbgNextPtr           = (OS_TCB           *)0;
    p_tcb->DbgNamePtr           = (CPU_CHAR *)((void *)" ");
#endif
}
 8002266:	bf00      	nop
 8002268:	3710      	adds	r7, #16
 800226a:	46bd      	mov	sp, r7
 800226c:	bd80      	pop	{r7, pc}
	...

08002270 <OS_TaskReturn>:
* Note(s)    : This function is INTERNAL to uC/OS-III and your application should not call it.
************************************************************************************************************************
*/

void  OS_TaskReturn (void)
{
 8002270:	b580      	push	{r7, lr}
 8002272:	b082      	sub	sp, #8
 8002274:	af00      	add	r7, sp, #0
    OS_ERR  err;



    OSTaskReturnHook(OSTCBCurPtr);                              /* Call hook to let user decide on what to do           */
 8002276:	4b07      	ldr	r3, [pc, #28]	@ (8002294 <OS_TaskReturn+0x24>)
 8002278:	681b      	ldr	r3, [r3, #0]
 800227a:	4618      	mov	r0, r3
 800227c:	f7fe fa06 	bl	800068c <OSTaskReturnHook>
#if (OS_CFG_TASK_DEL_EN > 0u)
    OSTaskDel((OS_TCB *)0,                                      /* Delete task if it accidentally returns!              */
 8002280:	1dbb      	adds	r3, r7, #6
 8002282:	4619      	mov	r1, r3
 8002284:	2000      	movs	r0, #0
 8002286:	f7ff fe25 	bl	8001ed4 <OSTaskDel>
        OSTimeDly(OSCfg_TickRate_Hz,
                  OS_OPT_TIME_DLY,
                  &err);
    }
#endif
}
 800228a:	bf00      	nop
 800228c:	3708      	adds	r7, #8
 800228e:	46bd      	mov	sp, r7
 8002290:	bd80      	pop	{r7, pc}
 8002292:	bf00      	nop
 8002294:	20001188 	.word	0x20001188

08002298 <OS_TaskChangePrio>:
************************************************************************************************************************
*/

void  OS_TaskChangePrio(OS_TCB  *p_tcb,
                        OS_PRIO  prio_new)
{
 8002298:	b580      	push	{r7, lr}
 800229a:	b084      	sub	sp, #16
 800229c:	af00      	add	r7, sp, #0
 800229e:	6078      	str	r0, [r7, #4]
 80022a0:	460b      	mov	r3, r1
 80022a2:	70fb      	strb	r3, [r7, #3]
    OS_PRIO  prio_cur;
#endif


    do {
        p_tcb_owner = (OS_TCB *)0;
 80022a4:	2300      	movs	r3, #0
 80022a6:	60fb      	str	r3, [r7, #12]
#if (OS_CFG_MUTEX_EN > 0u)
        prio_cur    =  p_tcb->Prio;
 80022a8:	687b      	ldr	r3, [r7, #4]
 80022aa:	f893 302f 	ldrb.w	r3, [r3, #47]	@ 0x2f
 80022ae:	72fb      	strb	r3, [r7, #11]
#endif
        switch (p_tcb->TaskState) {
 80022b0:	687b      	ldr	r3, [r7, #4]
 80022b2:	f893 302e 	ldrb.w	r3, [r3, #46]	@ 0x2e
 80022b6:	2b07      	cmp	r3, #7
 80022b8:	f200 8085 	bhi.w	80023c6 <OS_TaskChangePrio+0x12e>
 80022bc:	a201      	add	r2, pc, #4	@ (adr r2, 80022c4 <OS_TaskChangePrio+0x2c>)
 80022be:	f852 f023 	ldr.w	pc, [r2, r3, lsl #2]
 80022c2:	bf00      	nop
 80022c4:	080022e5 	.word	0x080022e5
 80022c8:	08002319 	.word	0x08002319
 80022cc:	08002323 	.word	0x08002323
 80022d0:	08002323 	.word	0x08002323
 80022d4:	08002319 	.word	0x08002319
 80022d8:	08002319 	.word	0x08002319
 80022dc:	08002323 	.word	0x08002323
 80022e0:	08002323 	.word	0x08002323
            case OS_TASK_STATE_RDY:
                 OS_RdyListRemove(p_tcb);                       /* Remove from current priority                         */
 80022e4:	6878      	ldr	r0, [r7, #4]
 80022e6:	f7fe ff89 	bl	80011fc <OS_RdyListRemove>
                 p_tcb->Prio = prio_new;                        /* Set new task priority                                */
 80022ea:	687b      	ldr	r3, [r7, #4]
 80022ec:	78fa      	ldrb	r2, [r7, #3]
 80022ee:	f883 202f 	strb.w	r2, [r3, #47]	@ 0x2f
                 OS_PrioInsert(p_tcb->Prio);
 80022f2:	687b      	ldr	r3, [r7, #4]
 80022f4:	f893 302f 	ldrb.w	r3, [r3, #47]	@ 0x2f
 80022f8:	4618      	mov	r0, r3
 80022fa:	f7ff fb09 	bl	8001910 <OS_PrioInsert>
                 if (p_tcb == OSTCBCurPtr) {
 80022fe:	4b34      	ldr	r3, [pc, #208]	@ (80023d0 <OS_TaskChangePrio+0x138>)
 8002300:	681b      	ldr	r3, [r3, #0]
 8002302:	687a      	ldr	r2, [r7, #4]
 8002304:	429a      	cmp	r2, r3
 8002306:	d103      	bne.n	8002310 <OS_TaskChangePrio+0x78>
                     OS_RdyListInsertHead(p_tcb);
 8002308:	6878      	ldr	r0, [r7, #4]
 800230a:	f7fe fec3 	bl	8001094 <OS_RdyListInsertHead>
                 } else {
                     OS_RdyListInsertTail(p_tcb);
                 }
                 break;
 800230e:	e053      	b.n	80023b8 <OS_TaskChangePrio+0x120>
                     OS_RdyListInsertTail(p_tcb);
 8002310:	6878      	ldr	r0, [r7, #4]
 8002312:	f7fe fef3 	bl	80010fc <OS_RdyListInsertTail>
                 break;
 8002316:	e04f      	b.n	80023b8 <OS_TaskChangePrio+0x120>

            case OS_TASK_STATE_DLY:                             /* Nothing to do except change the priority in the OS_TCB*/
            case OS_TASK_STATE_SUSPENDED:
            case OS_TASK_STATE_DLY_SUSPENDED:
                 p_tcb->Prio = prio_new;                        /* Set new task priority                                */
 8002318:	687b      	ldr	r3, [r7, #4]
 800231a:	78fa      	ldrb	r2, [r7, #3]
 800231c:	f883 202f 	strb.w	r2, [r3, #47]	@ 0x2f
                 break;
 8002320:	e04a      	b.n	80023b8 <OS_TaskChangePrio+0x120>

            case OS_TASK_STATE_PEND:
            case OS_TASK_STATE_PEND_TIMEOUT:
            case OS_TASK_STATE_PEND_SUSPENDED:
            case OS_TASK_STATE_PEND_TIMEOUT_SUSPENDED:
                 p_tcb->Prio = prio_new;                        /* Set new task priority                                */
 8002322:	687b      	ldr	r3, [r7, #4]
 8002324:	78fa      	ldrb	r2, [r7, #3]
 8002326:	f883 202f 	strb.w	r2, [r3, #47]	@ 0x2f
                 switch (p_tcb->PendOn) {                       /* What to do depends on what we are pending on         */
 800232a:	687b      	ldr	r3, [r7, #4]
 800232c:	f893 302c 	ldrb.w	r3, [r3, #44]	@ 0x2c
 8002330:	2b06      	cmp	r3, #6
 8002332:	dc3d      	bgt.n	80023b0 <OS_TaskChangePrio+0x118>
 8002334:	2b05      	cmp	r3, #5
 8002336:	da04      	bge.n	8002342 <OS_TaskChangePrio+0xaa>
 8002338:	2b01      	cmp	r3, #1
 800233a:	d002      	beq.n	8002342 <OS_TaskChangePrio+0xaa>
 800233c:	2b04      	cmp	r3, #4
 800233e:	d004      	beq.n	800234a <OS_TaskChangePrio+0xb2>

                     case OS_TASK_PEND_ON_TASK_Q:
                     case OS_TASK_PEND_ON_TASK_SEM:
                     default:
                                                                /* Default case.                                        */
                          break;
 8002340:	e036      	b.n	80023b0 <OS_TaskChangePrio+0x118>
                          OS_PendListChangePrio(p_tcb);
 8002342:	6878      	ldr	r0, [r7, #4]
 8002344:	f7fe fd1d 	bl	8000d82 <OS_PendListChangePrio>
                          break;
 8002348:	e035      	b.n	80023b6 <OS_TaskChangePrio+0x11e>
                          OS_PendListChangePrio(p_tcb);
 800234a:	6878      	ldr	r0, [r7, #4]
 800234c:	f7fe fd19 	bl	8000d82 <OS_PendListChangePrio>
                          p_tcb_owner = ((OS_MUTEX *)((void *)p_tcb->PendObjPtr))->OwnerTCBPtr;
 8002350:	687b      	ldr	r3, [r7, #4]
 8002352:	6a9b      	ldr	r3, [r3, #40]	@ 0x28
 8002354:	691b      	ldr	r3, [r3, #16]
 8002356:	60fb      	str	r3, [r7, #12]
                          if (prio_cur > prio_new) {            /* Are we increasing the priority?                      */
 8002358:	7afa      	ldrb	r2, [r7, #11]
 800235a:	78fb      	ldrb	r3, [r7, #3]
 800235c:	429a      	cmp	r2, r3
 800235e:	d908      	bls.n	8002372 <OS_TaskChangePrio+0xda>
                              if (p_tcb_owner->Prio <= prio_new) { /* Yes, do we need to give this prio to the owner?   */
 8002360:	68fb      	ldr	r3, [r7, #12]
 8002362:	f893 302f 	ldrb.w	r3, [r3, #47]	@ 0x2f
 8002366:	78fa      	ldrb	r2, [r7, #3]
 8002368:	429a      	cmp	r2, r3
 800236a:	d323      	bcc.n	80023b4 <OS_TaskChangePrio+0x11c>
                                  p_tcb_owner = (OS_TCB *)0;
 800236c:	2300      	movs	r3, #0
 800236e:	60fb      	str	r3, [r7, #12]
                          break;
 8002370:	e020      	b.n	80023b4 <OS_TaskChangePrio+0x11c>
                              if (p_tcb_owner->Prio == prio_cur) { /* No, is it required to check for a lower prio?     */
 8002372:	68fb      	ldr	r3, [r7, #12]
 8002374:	f893 302f 	ldrb.w	r3, [r3, #47]	@ 0x2f
 8002378:	7afa      	ldrb	r2, [r7, #11]
 800237a:	429a      	cmp	r2, r3
 800237c:	d115      	bne.n	80023aa <OS_TaskChangePrio+0x112>
                                  prio_new = OS_MutexGrpPrioFindHighest(p_tcb_owner);
 800237e:	68f8      	ldr	r0, [r7, #12]
 8002380:	f7ff fa27 	bl	80017d2 <OS_MutexGrpPrioFindHighest>
 8002384:	4603      	mov	r3, r0
 8002386:	70fb      	strb	r3, [r7, #3]
                                  prio_new = (prio_new > p_tcb_owner->BasePrio) ? p_tcb_owner->BasePrio : prio_new;
 8002388:	68fb      	ldr	r3, [r7, #12]
 800238a:	f893 3030 	ldrb.w	r3, [r3, #48]	@ 0x30
 800238e:	78fa      	ldrb	r2, [r7, #3]
 8002390:	4293      	cmp	r3, r2
 8002392:	bf28      	it	cs
 8002394:	4613      	movcs	r3, r2
 8002396:	70fb      	strb	r3, [r7, #3]
                                  if (prio_new == p_tcb_owner->Prio) {
 8002398:	68fb      	ldr	r3, [r7, #12]
 800239a:	f893 302f 	ldrb.w	r3, [r3, #47]	@ 0x2f
 800239e:	78fa      	ldrb	r2, [r7, #3]
 80023a0:	429a      	cmp	r2, r3
 80023a2:	d107      	bne.n	80023b4 <OS_TaskChangePrio+0x11c>
                                      p_tcb_owner = (OS_TCB *)0;
 80023a4:	2300      	movs	r3, #0
 80023a6:	60fb      	str	r3, [r7, #12]
                          break;
 80023a8:	e004      	b.n	80023b4 <OS_TaskChangePrio+0x11c>
                                  p_tcb_owner = (OS_TCB *)0;
 80023aa:	2300      	movs	r3, #0
 80023ac:	60fb      	str	r3, [r7, #12]
                          break;
 80023ae:	e001      	b.n	80023b4 <OS_TaskChangePrio+0x11c>
                          break;
 80023b0:	bf00      	nop
 80023b2:	e000      	b.n	80023b6 <OS_TaskChangePrio+0x11e>
                          break;
 80023b4:	bf00      	nop
                 }
                 break;
 80023b6:	bf00      	nop

            default:
                 return;
        }
        p_tcb = p_tcb_owner;
 80023b8:	68fb      	ldr	r3, [r7, #12]
 80023ba:	607b      	str	r3, [r7, #4]
    } while (p_tcb != (OS_TCB *)0);
 80023bc:	687b      	ldr	r3, [r7, #4]
 80023be:	2b00      	cmp	r3, #0
 80023c0:	f47f af70 	bne.w	80022a4 <OS_TaskChangePrio+0xc>
 80023c4:	e000      	b.n	80023c8 <OS_TaskChangePrio+0x130>
                 return;
 80023c6:	bf00      	nop
}
 80023c8:	3710      	adds	r7, #16
 80023ca:	46bd      	mov	sp, r7
 80023cc:	bd80      	pop	{r7, pc}
 80023ce:	bf00      	nop
 80023d0:	20001188 	.word	0x20001188

080023d4 <OS_TickInit>:
* Note(s)    : This function is INTERNAL to uC/OS-III and your application should not call it.
************************************************************************************************************************
*/

void  OS_TickInit (OS_ERR  *p_err)
{
 80023d4:	b480      	push	{r7}
 80023d6:	b083      	sub	sp, #12
 80023d8:	af00      	add	r7, sp, #0
 80023da:	6078      	str	r0, [r7, #4]
    *p_err                = OS_ERR_NONE;
 80023dc:	687b      	ldr	r3, [r7, #4]
 80023de:	2200      	movs	r2, #0
 80023e0:	801a      	strh	r2, [r3, #0]

    OSTickCtr             = 0u;                               /* Clear the tick counter                               */
 80023e2:	4b06      	ldr	r3, [pc, #24]	@ (80023fc <OS_TickInit+0x28>)
 80023e4:	2200      	movs	r2, #0
 80023e6:	601a      	str	r2, [r3, #0]

#if (OS_CFG_DYN_TICK_EN > 0u)
    OSTickCtrStep         = 0u;
#endif

    OSTickList.TCB_Ptr    = (OS_TCB *)0;
 80023e8:	4b05      	ldr	r3, [pc, #20]	@ (8002400 <OS_TickInit+0x2c>)
 80023ea:	2200      	movs	r2, #0
 80023ec:	601a      	str	r2, [r3, #0]

#if (OS_CFG_DBG_EN > 0u)
    OSTickList.NbrEntries = 0u;
    OSTickList.NbrUpdated = 0u;
#endif
}
 80023ee:	bf00      	nop
 80023f0:	370c      	adds	r7, #12
 80023f2:	46bd      	mov	sp, r7
 80023f4:	f85d 7b04 	ldr.w	r7, [sp], #4
 80023f8:	4770      	bx	lr
 80023fa:	bf00      	nop
 80023fc:	200010a4 	.word	0x200010a4
 8002400:	200010a8 	.word	0x200010a8

08002404 <OS_TickUpdate>:
* Note(s)    : This function is INTERNAL to uC/OS-III and your application should not call it.
************************************************************************************************************************
*/

void  OS_TickUpdate (OS_TICK  ticks)
{
 8002404:	b580      	push	{r7, lr}
 8002406:	b084      	sub	sp, #16
 8002408:	af00      	add	r7, sp, #0
 800240a:	6078      	str	r0, [r7, #4]
#if (OS_CFG_TS_EN > 0u)
    CPU_TS  ts_start;
#endif
    CPU_SR_ALLOC();
 800240c:	2300      	movs	r3, #0
 800240e:	60fb      	str	r3, [r7, #12]


    CPU_CRITICAL_ENTER();
 8002410:	2040      	movs	r0, #64	@ 0x40
 8002412:	f7fd fedd 	bl	80001d0 <CPU_SR_Save>
 8002416:	60f8      	str	r0, [r7, #12]

    OSTickCtr += ticks;                                         /* Keep track of the number of ticks                    */
 8002418:	4b07      	ldr	r3, [pc, #28]	@ (8002438 <OS_TickUpdate+0x34>)
 800241a:	681a      	ldr	r2, [r3, #0]
 800241c:	687b      	ldr	r3, [r7, #4]
 800241e:	4413      	add	r3, r2
 8002420:	4a05      	ldr	r2, [pc, #20]	@ (8002438 <OS_TickUpdate+0x34>)
 8002422:	6013      	str	r3, [r2, #0]
    OSTickTime = OS_TS_GET() - ts_start;
    if (OSTickTimeMax < OSTickTime) {
        OSTickTimeMax = OSTickTime;
    }
#else
    OS_TickListUpdate(ticks);
 8002424:	6878      	ldr	r0, [r7, #4]
 8002426:	f000 f961 	bl	80026ec <OS_TickListUpdate>
        OSTickCtrStep = 0u;
    }

    OS_DynTickSet(OSTickCtrStep);
#endif
    CPU_CRITICAL_EXIT();
 800242a:	68f8      	ldr	r0, [r7, #12]
 800242c:	f7fd fede 	bl	80001ec <CPU_SR_Restore>
}
 8002430:	bf00      	nop
 8002432:	3710      	adds	r7, #16
 8002434:	46bd      	mov	sp, r7
 8002436:	bd80      	pop	{r7, pc}
 8002438:	200010a4 	.word	0x200010a4

0800243c <OS_TickListInsert>:

CPU_BOOLEAN  OS_TickListInsert (OS_TCB   *p_tcb,
                                OS_TICK   elapsed,
                                OS_TICK   tick_base,
                                OS_TICK   time)
{
 800243c:	b480      	push	{r7}
 800243e:	b08b      	sub	sp, #44	@ 0x2c
 8002440:	af00      	add	r7, sp, #0
 8002442:	60f8      	str	r0, [r7, #12]
 8002444:	60b9      	str	r1, [r7, #8]
 8002446:	607a      	str	r2, [r7, #4]
 8002448:	603b      	str	r3, [r7, #0]
    OS_TICK_LIST  *p_list;
    OS_TICK        delta;
    OS_TICK        remain;


    delta = (time + tick_base) - (OSTickCtr + elapsed);         /* How many ticks until our delay expires?              */
 800244a:	683a      	ldr	r2, [r7, #0]
 800244c:	687b      	ldr	r3, [r7, #4]
 800244e:	441a      	add	r2, r3
 8002450:	4b49      	ldr	r3, [pc, #292]	@ (8002578 <OS_TickListInsert+0x13c>)
 8002452:	6819      	ldr	r1, [r3, #0]
 8002454:	68bb      	ldr	r3, [r7, #8]
 8002456:	440b      	add	r3, r1
 8002458:	1ad3      	subs	r3, r2, r3
 800245a:	61fb      	str	r3, [r7, #28]

    if (delta == 0u) {
 800245c:	69fb      	ldr	r3, [r7, #28]
 800245e:	2b00      	cmp	r3, #0
 8002460:	d104      	bne.n	800246c <OS_TickListInsert+0x30>
        p_tcb->TickRemain = 0u;
 8002462:	68fb      	ldr	r3, [r7, #12]
 8002464:	2200      	movs	r2, #0
 8002466:	645a      	str	r2, [r3, #68]	@ 0x44
        return (OS_FALSE);
 8002468:	2300      	movs	r3, #0
 800246a:	e07e      	b.n	800256a <OS_TickListInsert+0x12e>
    }

    OS_TRACE_TASK_DLY(delta);

    p_list = &OSTickList;
 800246c:	4b43      	ldr	r3, [pc, #268]	@ (800257c <OS_TickListInsert+0x140>)
 800246e:	61bb      	str	r3, [r7, #24]
    if (p_list->TCB_Ptr == (OS_TCB *)0) {                       /* Is the list empty?                                   */
 8002470:	69bb      	ldr	r3, [r7, #24]
 8002472:	681b      	ldr	r3, [r3, #0]
 8002474:	2b00      	cmp	r3, #0
 8002476:	d10d      	bne.n	8002494 <OS_TickListInsert+0x58>
        p_tcb->TickRemain   = delta;                            /* Yes, Store time in TCB                               */
 8002478:	68fb      	ldr	r3, [r7, #12]
 800247a:	69fa      	ldr	r2, [r7, #28]
 800247c:	645a      	str	r2, [r3, #68]	@ 0x44
        p_tcb->TickNextPtr  = (OS_TCB *)0;
 800247e:	68fb      	ldr	r3, [r7, #12]
 8002480:	2200      	movs	r2, #0
 8002482:	615a      	str	r2, [r3, #20]
        p_tcb->TickPrevPtr  = (OS_TCB *)0;
 8002484:	68fb      	ldr	r3, [r7, #12]
 8002486:	2200      	movs	r2, #0
 8002488:	619a      	str	r2, [r3, #24]
        p_list->TCB_Ptr     = p_tcb;                            /* Point to TCB of task to place in the list            */
 800248a:	69bb      	ldr	r3, [r7, #24]
 800248c:	68fa      	ldr	r2, [r7, #12]
 800248e:	601a      	str	r2, [r3, #0]
        OS_DynTickSet(OSTickCtrStep);
#endif
#if (OS_CFG_DBG_EN > 0u)
        p_list->NbrEntries  = 1u;                               /* List contains 1 entry                                */
#endif
        return (OS_TRUE);
 8002490:	2301      	movs	r3, #1
 8002492:	e06a      	b.n	800256a <OS_TickListInsert+0x12e>

#if (OS_CFG_DBG_EN > 0u)
    p_list->NbrEntries++;                                       /* Update debug counter to reflect the new entry.       */
#endif

    p_tcb2 = p_list->TCB_Ptr;
 8002494:	69bb      	ldr	r3, [r7, #24]
 8002496:	681b      	ldr	r3, [r3, #0]
 8002498:	623b      	str	r3, [r7, #32]
    remain = p_tcb2->TickRemain - elapsed;                      /* How many ticks until the head's delay expires?       */
 800249a:	6a3b      	ldr	r3, [r7, #32]
 800249c:	6c5a      	ldr	r2, [r3, #68]	@ 0x44
 800249e:	68bb      	ldr	r3, [r7, #8]
 80024a0:	1ad3      	subs	r3, r2, r3
 80024a2:	617b      	str	r3, [r7, #20]

    if ((delta               <   remain) &&                     /* If our entry is the new head of the tick list    ... */
 80024a4:	69fa      	ldr	r2, [r7, #28]
 80024a6:	697b      	ldr	r3, [r7, #20]
 80024a8:	429a      	cmp	r2, r3
 80024aa:	d219      	bcs.n	80024e0 <OS_TickListInsert+0xa4>
        (p_tcb2->TickPrevPtr == (OS_TCB *)0)) {
 80024ac:	6a3b      	ldr	r3, [r7, #32]
 80024ae:	699b      	ldr	r3, [r3, #24]
    if ((delta               <   remain) &&                     /* If our entry is the new head of the tick list    ... */
 80024b0:	2b00      	cmp	r3, #0
 80024b2:	d115      	bne.n	80024e0 <OS_TickListInsert+0xa4>
        p_tcb->TickRemain    =  delta;                          /* ... the delta is equivalent to the full delay    ... */
 80024b4:	68fb      	ldr	r3, [r7, #12]
 80024b6:	69fa      	ldr	r2, [r7, #28]
 80024b8:	645a      	str	r2, [r3, #68]	@ 0x44
        p_tcb2->TickRemain   =  remain - delta;                 /* ... the previous head's delta is now relative to it. */
 80024ba:	697a      	ldr	r2, [r7, #20]
 80024bc:	69fb      	ldr	r3, [r7, #28]
 80024be:	1ad2      	subs	r2, r2, r3
 80024c0:	6a3b      	ldr	r3, [r7, #32]
 80024c2:	645a      	str	r2, [r3, #68]	@ 0x44

        p_tcb->TickPrevPtr   = (OS_TCB *)0;
 80024c4:	68fb      	ldr	r3, [r7, #12]
 80024c6:	2200      	movs	r2, #0
 80024c8:	619a      	str	r2, [r3, #24]
        p_tcb->TickNextPtr   =  p_tcb2;
 80024ca:	68fb      	ldr	r3, [r7, #12]
 80024cc:	6a3a      	ldr	r2, [r7, #32]
 80024ce:	615a      	str	r2, [r3, #20]
        p_tcb2->TickPrevPtr  =  p_tcb;
 80024d0:	6a3b      	ldr	r3, [r7, #32]
 80024d2:	68fa      	ldr	r2, [r7, #12]
 80024d4:	619a      	str	r2, [r3, #24]
        p_list->TCB_Ptr      =  p_tcb;
 80024d6:	69bb      	ldr	r3, [r7, #24]
 80024d8:	68fa      	ldr	r2, [r7, #12]
 80024da:	601a      	str	r2, [r3, #0]
                                                                /* In DTM, a new list head must update the tick     ... */
        OSTickCtrStep        =  delta;                          /* ... timer to interrupt at the new delay value.       */
        OS_DynTickSet(OSTickCtrStep);
#endif

        return (OS_TRUE);
 80024dc:	2301      	movs	r3, #1
 80024de:	e044      	b.n	800256a <OS_TickListInsert+0x12e>
    }

                                                                /* Our entry comes after the current list head.         */
    delta  -= remain;                                           /* Make delta relative to the head.                     */
 80024e0:	69fa      	ldr	r2, [r7, #28]
 80024e2:	697b      	ldr	r3, [r7, #20]
 80024e4:	1ad3      	subs	r3, r2, r3
 80024e6:	61fb      	str	r3, [r7, #28]
    p_tcb1  = p_tcb2;
 80024e8:	6a3b      	ldr	r3, [r7, #32]
 80024ea:	627b      	str	r3, [r7, #36]	@ 0x24
    p_tcb2  = p_tcb1->TickNextPtr;
 80024ec:	6a7b      	ldr	r3, [r7, #36]	@ 0x24
 80024ee:	695b      	ldr	r3, [r3, #20]
 80024f0:	623b      	str	r3, [r7, #32]

    while ((p_tcb2 !=        (OS_TCB *)0) &&                    /* Find the appropriate position in the delta list.     */
 80024f2:	e009      	b.n	8002508 <OS_TickListInsert+0xcc>
           (delta  >= p_tcb2->TickRemain)) {
        delta  -= p_tcb2->TickRemain;
 80024f4:	6a3b      	ldr	r3, [r7, #32]
 80024f6:	6c5b      	ldr	r3, [r3, #68]	@ 0x44
 80024f8:	69fa      	ldr	r2, [r7, #28]
 80024fa:	1ad3      	subs	r3, r2, r3
 80024fc:	61fb      	str	r3, [r7, #28]
        p_tcb1  = p_tcb2;
 80024fe:	6a3b      	ldr	r3, [r7, #32]
 8002500:	627b      	str	r3, [r7, #36]	@ 0x24
        p_tcb2  = p_tcb2->TickNextPtr;
 8002502:	6a3b      	ldr	r3, [r7, #32]
 8002504:	695b      	ldr	r3, [r3, #20]
 8002506:	623b      	str	r3, [r7, #32]
    while ((p_tcb2 !=        (OS_TCB *)0) &&                    /* Find the appropriate position in the delta list.     */
 8002508:	6a3b      	ldr	r3, [r7, #32]
 800250a:	2b00      	cmp	r3, #0
 800250c:	d004      	beq.n	8002518 <OS_TickListInsert+0xdc>
           (delta  >= p_tcb2->TickRemain)) {
 800250e:	6a3b      	ldr	r3, [r7, #32]
 8002510:	6c5b      	ldr	r3, [r3, #68]	@ 0x44
    while ((p_tcb2 !=        (OS_TCB *)0) &&                    /* Find the appropriate position in the delta list.     */
 8002512:	69fa      	ldr	r2, [r7, #28]
 8002514:	429a      	cmp	r2, r3
 8002516:	d2ed      	bcs.n	80024f4 <OS_TickListInsert+0xb8>
    }

    if (p_tcb2 != (OS_TCB *)0) {                                /* Our entry is not the last element in the list.       */
 8002518:	6a3b      	ldr	r3, [r7, #32]
 800251a:	2b00      	cmp	r3, #0
 800251c:	d018      	beq.n	8002550 <OS_TickListInsert+0x114>
        p_tcb1               = p_tcb2->TickPrevPtr;
 800251e:	6a3b      	ldr	r3, [r7, #32]
 8002520:	699b      	ldr	r3, [r3, #24]
 8002522:	627b      	str	r3, [r7, #36]	@ 0x24
        p_tcb->TickRemain    = delta;                           /* Store remaining time                                 */
 8002524:	68fb      	ldr	r3, [r7, #12]
 8002526:	69fa      	ldr	r2, [r7, #28]
 8002528:	645a      	str	r2, [r3, #68]	@ 0x44
        p_tcb->TickPrevPtr   = p_tcb1;
 800252a:	68fb      	ldr	r3, [r7, #12]
 800252c:	6a7a      	ldr	r2, [r7, #36]	@ 0x24
 800252e:	619a      	str	r2, [r3, #24]
        p_tcb->TickNextPtr   = p_tcb2;
 8002530:	68fb      	ldr	r3, [r7, #12]
 8002532:	6a3a      	ldr	r2, [r7, #32]
 8002534:	615a      	str	r2, [r3, #20]
        p_tcb2->TickRemain  -= delta;                           /* Reduce time of next entry in the list                */
 8002536:	6a3b      	ldr	r3, [r7, #32]
 8002538:	6c5a      	ldr	r2, [r3, #68]	@ 0x44
 800253a:	69fb      	ldr	r3, [r7, #28]
 800253c:	1ad2      	subs	r2, r2, r3
 800253e:	6a3b      	ldr	r3, [r7, #32]
 8002540:	645a      	str	r2, [r3, #68]	@ 0x44
        p_tcb2->TickPrevPtr  = p_tcb;
 8002542:	6a3b      	ldr	r3, [r7, #32]
 8002544:	68fa      	ldr	r2, [r7, #12]
 8002546:	619a      	str	r2, [r3, #24]
        p_tcb1->TickNextPtr  = p_tcb;
 8002548:	6a7b      	ldr	r3, [r7, #36]	@ 0x24
 800254a:	68fa      	ldr	r2, [r7, #12]
 800254c:	615a      	str	r2, [r3, #20]
 800254e:	e00b      	b.n	8002568 <OS_TickListInsert+0x12c>

    } else {                                                    /* Our entry belongs at the end of the list.            */
        p_tcb->TickRemain    = delta;
 8002550:	68fb      	ldr	r3, [r7, #12]
 8002552:	69fa      	ldr	r2, [r7, #28]
 8002554:	645a      	str	r2, [r3, #68]	@ 0x44
        p_tcb->TickPrevPtr   = p_tcb1;
 8002556:	68fb      	ldr	r3, [r7, #12]
 8002558:	6a7a      	ldr	r2, [r7, #36]	@ 0x24
 800255a:	619a      	str	r2, [r3, #24]
        p_tcb->TickNextPtr   = (OS_TCB *)0;
 800255c:	68fb      	ldr	r3, [r7, #12]
 800255e:	2200      	movs	r2, #0
 8002560:	615a      	str	r2, [r3, #20]
        p_tcb1->TickNextPtr  = p_tcb;
 8002562:	6a7b      	ldr	r3, [r7, #36]	@ 0x24
 8002564:	68fa      	ldr	r2, [r7, #12]
 8002566:	615a      	str	r2, [r3, #20]
    }

    return (OS_TRUE);
 8002568:	2301      	movs	r3, #1
}
 800256a:	4618      	mov	r0, r3
 800256c:	372c      	adds	r7, #44	@ 0x2c
 800256e:	46bd      	mov	sp, r7
 8002570:	f85d 7b04 	ldr.w	r7, [sp], #4
 8002574:	4770      	bx	lr
 8002576:	bf00      	nop
 8002578:	200010a4 	.word	0x200010a4
 800257c:	200010a8 	.word	0x200010a8

08002580 <OS_TickListInsertDly>:

void  OS_TickListInsertDly (OS_TCB   *p_tcb,
                            OS_TICK   time,
                            OS_OPT    opt,
                            OS_ERR   *p_err)
{
 8002580:	b580      	push	{r7, lr}
 8002582:	b088      	sub	sp, #32
 8002584:	af00      	add	r7, sp, #0
 8002586:	60f8      	str	r0, [r7, #12]
 8002588:	60b9      	str	r1, [r7, #8]
 800258a:	603b      	str	r3, [r7, #0]
 800258c:	4613      	mov	r3, r2
 800258e:	80fb      	strh	r3, [r7, #6]


#if (OS_CFG_DYN_TICK_EN > 0u)
    elapsed  = OS_DynTickGet();
#else
    elapsed  = 0u;
 8002590:	2300      	movs	r3, #0
 8002592:	61bb      	str	r3, [r7, #24]
#endif

    if (opt == OS_OPT_TIME_MATCH) {                             /* MATCH to absolute tick ctr value mode                */
 8002594:	88fb      	ldrh	r3, [r7, #6]
 8002596:	2b04      	cmp	r3, #4
 8002598:	d102      	bne.n	80025a0 <OS_TickListInsertDly+0x20>
        tick_base = 0u;                                         /* tick_base + time == time                             */
 800259a:	2300      	movs	r3, #0
 800259c:	61fb      	str	r3, [r7, #28]
 800259e:	e03b      	b.n	8002618 <OS_TickListInsertDly+0x98>

    } else if (opt == OS_OPT_TIME_PERIODIC) {                   /* PERIODIC mode.                                       */
 80025a0:	88fb      	ldrh	r3, [r7, #6]
 80025a2:	2b08      	cmp	r3, #8
 80025a4:	d135      	bne.n	8002612 <OS_TickListInsertDly+0x92>
        if (time == 0u) {
 80025a6:	68bb      	ldr	r3, [r7, #8]
 80025a8:	2b00      	cmp	r3, #0
 80025aa:	d104      	bne.n	80025b6 <OS_TickListInsertDly+0x36>
           *p_err = OS_ERR_TIME_ZERO_DLY;                       /* Infinite frequency is invalid.                       */
 80025ac:	683b      	ldr	r3, [r7, #0]
 80025ae:	f247 227e 	movw	r2, #29310	@ 0x727e
 80025b2:	801a      	strh	r2, [r3, #0]
            return;
 80025b4:	e047      	b.n	8002646 <OS_TickListInsertDly+0xc6>
        }

        tick_base = p_tcb->TickCtrPrev;
 80025b6:	68fb      	ldr	r3, [r7, #12]
 80025b8:	6c9b      	ldr	r3, [r3, #72]	@ 0x48
 80025ba:	61fb      	str	r3, [r7, #28]

#if (OS_CFG_DYN_TICK_EN > 0u)                                   /* How far is our tick-base from the system time?       */
        base_offset = OSTickCtr + elapsed - tick_base;
#else
        base_offset = OSTickCtr - tick_base;
 80025bc:	4b23      	ldr	r3, [pc, #140]	@ (800264c <OS_TickListInsertDly+0xcc>)
 80025be:	681a      	ldr	r2, [r3, #0]
 80025c0:	69fb      	ldr	r3, [r7, #28]
 80025c2:	1ad3      	subs	r3, r2, r3
 80025c4:	617b      	str	r3, [r7, #20]
#endif

        if (base_offset >= time) {                              /* If our task missed the last period, move         ... */
 80025c6:	697a      	ldr	r2, [r7, #20]
 80025c8:	68bb      	ldr	r3, [r7, #8]
 80025ca:	429a      	cmp	r2, r3
 80025cc:	d31a      	bcc.n	8002604 <OS_TickListInsertDly+0x84>
            tick_base += time * (base_offset / time);           /* ... tick_base up to the next one.                    */
 80025ce:	697a      	ldr	r2, [r7, #20]
 80025d0:	68bb      	ldr	r3, [r7, #8]
 80025d2:	fbb2 f3f3 	udiv	r3, r2, r3
 80025d6:	68ba      	ldr	r2, [r7, #8]
 80025d8:	fb02 f303 	mul.w	r3, r2, r3
 80025dc:	69fa      	ldr	r2, [r7, #28]
 80025de:	4413      	add	r3, r2
 80025e0:	61fb      	str	r3, [r7, #28]
            if ((base_offset % time) != 0u) {
 80025e2:	697b      	ldr	r3, [r7, #20]
 80025e4:	68ba      	ldr	r2, [r7, #8]
 80025e6:	fbb3 f2f2 	udiv	r2, r3, r2
 80025ea:	68b9      	ldr	r1, [r7, #8]
 80025ec:	fb01 f202 	mul.w	r2, r1, r2
 80025f0:	1a9b      	subs	r3, r3, r2
 80025f2:	2b00      	cmp	r3, #0
 80025f4:	d003      	beq.n	80025fe <OS_TickListInsertDly+0x7e>
                tick_base += time;                              /* Account for rounding errors with integer division    */
 80025f6:	69fa      	ldr	r2, [r7, #28]
 80025f8:	68bb      	ldr	r3, [r7, #8]
 80025fa:	4413      	add	r3, r2
 80025fc:	61fb      	str	r3, [r7, #28]
            }

            p_tcb->TickCtrPrev = tick_base;                     /* Adjust the periodic tick base                        */
 80025fe:	68fb      	ldr	r3, [r7, #12]
 8002600:	69fa      	ldr	r2, [r7, #28]
 8002602:	649a      	str	r2, [r3, #72]	@ 0x48
        }

        p_tcb->TickCtrPrev += time;                             /* Update for the next time we perform a periodic dly.  */
 8002604:	68fb      	ldr	r3, [r7, #12]
 8002606:	6c9a      	ldr	r2, [r3, #72]	@ 0x48
 8002608:	68bb      	ldr	r3, [r7, #8]
 800260a:	441a      	add	r2, r3
 800260c:	68fb      	ldr	r3, [r7, #12]
 800260e:	649a      	str	r2, [r3, #72]	@ 0x48
 8002610:	e002      	b.n	8002618 <OS_TickListInsertDly+0x98>

    } else {                                                    /* RELATIVE time delay mode                             */
#if (OS_CFG_DYN_TICK_EN > 0u)                                   /* Our base is always the current system time.          */
        tick_base = OSTickCtr + elapsed;
#else
        tick_base = OSTickCtr;
 8002612:	4b0e      	ldr	r3, [pc, #56]	@ (800264c <OS_TickListInsertDly+0xcc>)
 8002614:	681b      	ldr	r3, [r3, #0]
 8002616:	61fb      	str	r3, [r7, #28]
#endif
    }

    valid_dly = OS_TickListInsert(p_tcb, elapsed, tick_base, time);
 8002618:	68bb      	ldr	r3, [r7, #8]
 800261a:	69fa      	ldr	r2, [r7, #28]
 800261c:	69b9      	ldr	r1, [r7, #24]
 800261e:	68f8      	ldr	r0, [r7, #12]
 8002620:	f7ff ff0c 	bl	800243c <OS_TickListInsert>
 8002624:	4603      	mov	r3, r0
 8002626:	74fb      	strb	r3, [r7, #19]

    if (valid_dly == OS_TRUE) {
 8002628:	7cfb      	ldrb	r3, [r7, #19]
 800262a:	2b01      	cmp	r3, #1
 800262c:	d107      	bne.n	800263e <OS_TickListInsertDly+0xbe>
        p_tcb->TaskState = OS_TASK_STATE_DLY;
 800262e:	68fb      	ldr	r3, [r7, #12]
 8002630:	2201      	movs	r2, #1
 8002632:	f883 202e 	strb.w	r2, [r3, #46]	@ 0x2e
       *p_err            = OS_ERR_NONE;
 8002636:	683b      	ldr	r3, [r7, #0]
 8002638:	2200      	movs	r2, #0
 800263a:	801a      	strh	r2, [r3, #0]
 800263c:	e003      	b.n	8002646 <OS_TickListInsertDly+0xc6>
    } else {
       *p_err = OS_ERR_TIME_ZERO_DLY;
 800263e:	683b      	ldr	r3, [r7, #0]
 8002640:	f247 227e 	movw	r2, #29310	@ 0x727e
 8002644:	801a      	strh	r2, [r3, #0]
    }
}
 8002646:	3720      	adds	r7, #32
 8002648:	46bd      	mov	sp, r7
 800264a:	bd80      	pop	{r7, pc}
 800264c:	200010a4 	.word	0x200010a4

08002650 <OS_TickListRemove>:
*              2) This function is assumed to be called with interrupts disabled.
************************************************************************************************************************
*/

void  OS_TickListRemove (OS_TCB  *p_tcb)
{
 8002650:	b480      	push	{r7}
 8002652:	b087      	sub	sp, #28
 8002654:	af00      	add	r7, sp, #0
 8002656:	6078      	str	r0, [r7, #4]

#if (OS_CFG_DYN_TICK_EN > 0u)
    elapsed = OS_DynTickGet();
#endif

    p_tcb1 = p_tcb->TickPrevPtr;
 8002658:	687b      	ldr	r3, [r7, #4]
 800265a:	699b      	ldr	r3, [r3, #24]
 800265c:	617b      	str	r3, [r7, #20]
    p_tcb2 = p_tcb->TickNextPtr;
 800265e:	687b      	ldr	r3, [r7, #4]
 8002660:	695b      	ldr	r3, [r3, #20]
 8002662:	613b      	str	r3, [r7, #16]
    p_list = &OSTickList;
 8002664:	4b20      	ldr	r3, [pc, #128]	@ (80026e8 <OS_TickListRemove+0x98>)
 8002666:	60fb      	str	r3, [r7, #12]
    if (p_tcb1 == (OS_TCB *)0) {
 8002668:	697b      	ldr	r3, [r7, #20]
 800266a:	2b00      	cmp	r3, #0
 800266c:	d11d      	bne.n	80026aa <OS_TickListRemove+0x5a>
        if (p_tcb2 == (OS_TCB *)0) {                            /* Remove the ONLY entry in the list?                   */
 800266e:	693b      	ldr	r3, [r7, #16]
 8002670:	2b00      	cmp	r3, #0
 8002672:	d106      	bne.n	8002682 <OS_TickListRemove+0x32>
            p_list->TCB_Ptr      = (OS_TCB *)0;
 8002674:	68fb      	ldr	r3, [r7, #12]
 8002676:	2200      	movs	r2, #0
 8002678:	601a      	str	r2, [r3, #0]
#if (OS_CFG_DBG_EN > 0u)
            p_list->NbrEntries   =           0u;
#endif
            p_tcb->TickRemain    =           0u;
 800267a:	687b      	ldr	r3, [r7, #4]
 800267c:	2200      	movs	r2, #0
 800267e:	645a      	str	r2, [r3, #68]	@ 0x44
        p_list->NbrEntries--;
#endif
        p_tcb->TickNextPtr       = (OS_TCB *)0;
        p_tcb->TickRemain        =           0u;
    }
}
 8002680:	e02c      	b.n	80026dc <OS_TickListRemove+0x8c>
            p_tcb2->TickPrevPtr  = (OS_TCB *)0;
 8002682:	693b      	ldr	r3, [r7, #16]
 8002684:	2200      	movs	r2, #0
 8002686:	619a      	str	r2, [r3, #24]
            p_tcb2->TickRemain  += p_tcb->TickRemain;           /* Add back the ticks to the delta                      */
 8002688:	693b      	ldr	r3, [r7, #16]
 800268a:	6c5a      	ldr	r2, [r3, #68]	@ 0x44
 800268c:	687b      	ldr	r3, [r7, #4]
 800268e:	6c5b      	ldr	r3, [r3, #68]	@ 0x44
 8002690:	441a      	add	r2, r3
 8002692:	693b      	ldr	r3, [r7, #16]
 8002694:	645a      	str	r2, [r3, #68]	@ 0x44
            p_list->TCB_Ptr      = p_tcb2;
 8002696:	68fb      	ldr	r3, [r7, #12]
 8002698:	693a      	ldr	r2, [r7, #16]
 800269a:	601a      	str	r2, [r3, #0]
            p_tcb->TickNextPtr          = (OS_TCB *)0;
 800269c:	687b      	ldr	r3, [r7, #4]
 800269e:	2200      	movs	r2, #0
 80026a0:	615a      	str	r2, [r3, #20]
            p_tcb->TickRemain           =           0u;
 80026a2:	687b      	ldr	r3, [r7, #4]
 80026a4:	2200      	movs	r2, #0
 80026a6:	645a      	str	r2, [r3, #68]	@ 0x44
}
 80026a8:	e018      	b.n	80026dc <OS_TickListRemove+0x8c>
        p_tcb1->TickNextPtr = p_tcb2;
 80026aa:	697b      	ldr	r3, [r7, #20]
 80026ac:	693a      	ldr	r2, [r7, #16]
 80026ae:	615a      	str	r2, [r3, #20]
        if (p_tcb2 != (OS_TCB *)0) {
 80026b0:	693b      	ldr	r3, [r7, #16]
 80026b2:	2b00      	cmp	r3, #0
 80026b4:	d009      	beq.n	80026ca <OS_TickListRemove+0x7a>
            p_tcb2->TickPrevPtr  = p_tcb1;
 80026b6:	693b      	ldr	r3, [r7, #16]
 80026b8:	697a      	ldr	r2, [r7, #20]
 80026ba:	619a      	str	r2, [r3, #24]
            p_tcb2->TickRemain  += p_tcb->TickRemain;            /* Add back the ticks to the delta list                 */
 80026bc:	693b      	ldr	r3, [r7, #16]
 80026be:	6c5a      	ldr	r2, [r3, #68]	@ 0x44
 80026c0:	687b      	ldr	r3, [r7, #4]
 80026c2:	6c5b      	ldr	r3, [r3, #68]	@ 0x44
 80026c4:	441a      	add	r2, r3
 80026c6:	693b      	ldr	r3, [r7, #16]
 80026c8:	645a      	str	r2, [r3, #68]	@ 0x44
        p_tcb->TickPrevPtr       = (OS_TCB *)0;
 80026ca:	687b      	ldr	r3, [r7, #4]
 80026cc:	2200      	movs	r2, #0
 80026ce:	619a      	str	r2, [r3, #24]
        p_tcb->TickNextPtr       = (OS_TCB *)0;
 80026d0:	687b      	ldr	r3, [r7, #4]
 80026d2:	2200      	movs	r2, #0
 80026d4:	615a      	str	r2, [r3, #20]
        p_tcb->TickRemain        =           0u;
 80026d6:	687b      	ldr	r3, [r7, #4]
 80026d8:	2200      	movs	r2, #0
 80026da:	645a      	str	r2, [r3, #68]	@ 0x44
}
 80026dc:	bf00      	nop
 80026de:	371c      	adds	r7, #28
 80026e0:	46bd      	mov	sp, r7
 80026e2:	f85d 7b04 	ldr.w	r7, [sp], #4
 80026e6:	4770      	bx	lr
 80026e8:	200010a8 	.word	0x200010a8

080026ec <OS_TickListUpdate>:
* Note(s)    : 1) This function is INTERNAL to uC/OS-III and your application MUST NOT call it.
************************************************************************************************************************
*/

static  void  OS_TickListUpdate (OS_TICK  ticks)
{
 80026ec:	b580      	push	{r7, lr}
 80026ee:	b086      	sub	sp, #24
 80026f0:	af00      	add	r7, sp, #0
 80026f2:	6078      	str	r0, [r7, #4]


#if (OS_CFG_DBG_EN > 0u)
    nbr_updated = 0u;
#endif
    p_list      = &OSTickList;
 80026f4:	4b5e      	ldr	r3, [pc, #376]	@ (8002870 <OS_TickListUpdate+0x184>)
 80026f6:	60fb      	str	r3, [r7, #12]
    p_tcb       = p_list->TCB_Ptr;
 80026f8:	68fb      	ldr	r3, [r7, #12]
 80026fa:	681b      	ldr	r3, [r3, #0]
 80026fc:	617b      	str	r3, [r7, #20]
    if (p_tcb != (OS_TCB *)0) {
 80026fe:	697b      	ldr	r3, [r7, #20]
 8002700:	2b00      	cmp	r3, #0
 8002702:	f000 80b0 	beq.w	8002866 <OS_TickListUpdate+0x17a>
        if (p_tcb->TickRemain <= ticks) {
 8002706:	697b      	ldr	r3, [r7, #20]
 8002708:	6c5b      	ldr	r3, [r3, #68]	@ 0x44
 800270a:	687a      	ldr	r2, [r7, #4]
 800270c:	429a      	cmp	r2, r3
 800270e:	d308      	bcc.n	8002722 <OS_TickListUpdate+0x36>
            ticks              = ticks - p_tcb->TickRemain;
 8002710:	697b      	ldr	r3, [r7, #20]
 8002712:	6c5b      	ldr	r3, [r3, #68]	@ 0x44
 8002714:	687a      	ldr	r2, [r7, #4]
 8002716:	1ad3      	subs	r3, r2, r3
 8002718:	607b      	str	r3, [r7, #4]
            p_tcb->TickRemain  = 0u;
 800271a:	697b      	ldr	r3, [r7, #20]
 800271c:	2200      	movs	r2, #0
 800271e:	645a      	str	r2, [r3, #68]	@ 0x44
 8002720:	e09a      	b.n	8002858 <OS_TickListUpdate+0x16c>
        } else {
            p_tcb->TickRemain -= ticks;
 8002722:	697b      	ldr	r3, [r7, #20]
 8002724:	6c5a      	ldr	r2, [r3, #68]	@ 0x44
 8002726:	687b      	ldr	r3, [r7, #4]
 8002728:	1ad2      	subs	r2, r2, r3
 800272a:	697b      	ldr	r3, [r7, #20]
 800272c:	645a      	str	r2, [r3, #68]	@ 0x44
        }

        while (p_tcb->TickRemain == 0u) {
 800272e:	e093      	b.n	8002858 <OS_TickListUpdate+0x16c>
#if (OS_CFG_DBG_EN > 0u)
            nbr_updated++;
#endif

            switch (p_tcb->TaskState) {
 8002730:	697b      	ldr	r3, [r7, #20]
 8002732:	f893 302e 	ldrb.w	r3, [r3, #46]	@ 0x2e
 8002736:	2b01      	cmp	r3, #1
 8002738:	d002      	beq.n	8002740 <OS_TickListUpdate+0x54>
 800273a:	2b05      	cmp	r3, #5
 800273c:	d008      	beq.n	8002750 <OS_TickListUpdate+0x64>
 800273e:	e00c      	b.n	800275a <OS_TickListUpdate+0x6e>
                case OS_TASK_STATE_DLY:
                     p_tcb->TaskState = OS_TASK_STATE_RDY;
 8002740:	697b      	ldr	r3, [r7, #20]
 8002742:	2200      	movs	r2, #0
 8002744:	f883 202e 	strb.w	r2, [r3, #46]	@ 0x2e
                     OS_RdyListInsert(p_tcb);                            /* Insert the task in the ready list                    */
 8002748:	6978      	ldr	r0, [r7, #20]
 800274a:	f7fe fc85 	bl	8001058 <OS_RdyListInsert>
                     break;
 800274e:	e062      	b.n	8002816 <OS_TickListUpdate+0x12a>

                case OS_TASK_STATE_DLY_SUSPENDED:
                     p_tcb->TaskState = OS_TASK_STATE_SUSPENDED;
 8002750:	697b      	ldr	r3, [r7, #20]
 8002752:	2204      	movs	r2, #4
 8002754:	f883 202e 	strb.w	r2, [r3, #46]	@ 0x2e
                     break;
 8002758:	e05d      	b.n	8002816 <OS_TickListUpdate+0x12a>

                default:
#if (OS_CFG_MUTEX_EN > 0u)
                     p_tcb_owner = (OS_TCB *)0;
 800275a:	2300      	movs	r3, #0
 800275c:	613b      	str	r3, [r7, #16]
                     if (p_tcb->PendOn == OS_TASK_PEND_ON_MUTEX) {
 800275e:	697b      	ldr	r3, [r7, #20]
 8002760:	f893 302c 	ldrb.w	r3, [r3, #44]	@ 0x2c
 8002764:	2b04      	cmp	r3, #4
 8002766:	d103      	bne.n	8002770 <OS_TickListUpdate+0x84>
                         p_tcb_owner = (OS_TCB *)((OS_MUTEX *)((void *)p_tcb->PendObjPtr))->OwnerTCBPtr;
 8002768:	697b      	ldr	r3, [r7, #20]
 800276a:	6a9b      	ldr	r3, [r3, #40]	@ 0x28
 800276c:	691b      	ldr	r3, [r3, #16]
 800276e:	613b      	str	r3, [r7, #16]
                     }
#endif

#if (OS_MSG_EN > 0u)
                     p_tcb->MsgPtr  = (void *)0;
 8002770:	697b      	ldr	r3, [r7, #20]
 8002772:	2200      	movs	r2, #0
 8002774:	655a      	str	r2, [r3, #84]	@ 0x54
                     p_tcb->MsgSize = 0u;
 8002776:	697b      	ldr	r3, [r7, #20]
 8002778:	2200      	movs	r2, #0
 800277a:	f8a3 2058 	strh.w	r2, [r3, #88]	@ 0x58
#endif
#if (OS_CFG_TS_EN > 0u)
                     p_tcb->TS      = OS_TS_GET();
#endif
                     OS_PendListRemove(p_tcb);                           /* Remove task from pend list                           */
 800277e:	6978      	ldr	r0, [r7, #20]
 8002780:	f7fe fb8f 	bl	8000ea2 <OS_PendListRemove>

                     switch (p_tcb->TaskState) {
 8002784:	697b      	ldr	r3, [r7, #20]
 8002786:	f893 302e 	ldrb.w	r3, [r3, #46]	@ 0x2e
 800278a:	2b03      	cmp	r3, #3
 800278c:	d002      	beq.n	8002794 <OS_TickListUpdate+0xa8>
 800278e:	2b07      	cmp	r3, #7
 8002790:	d008      	beq.n	80027a4 <OS_TickListUpdate+0xb8>
                         case OS_TASK_STATE_PEND_TIMEOUT_SUSPENDED:
                              p_tcb->TaskState  = OS_TASK_STATE_SUSPENDED;
                              break;

                         default:
                              break;
 8002792:	e00c      	b.n	80027ae <OS_TickListUpdate+0xc2>
                              OS_RdyListInsert(p_tcb);                   /* Insert the task in the ready list                    */
 8002794:	6978      	ldr	r0, [r7, #20]
 8002796:	f7fe fc5f 	bl	8001058 <OS_RdyListInsert>
                              p_tcb->TaskState  = OS_TASK_STATE_RDY;
 800279a:	697b      	ldr	r3, [r7, #20]
 800279c:	2200      	movs	r2, #0
 800279e:	f883 202e 	strb.w	r2, [r3, #46]	@ 0x2e
                              break;
 80027a2:	e004      	b.n	80027ae <OS_TickListUpdate+0xc2>
                              p_tcb->TaskState  = OS_TASK_STATE_SUSPENDED;
 80027a4:	697b      	ldr	r3, [r7, #20]
 80027a6:	2204      	movs	r2, #4
 80027a8:	f883 202e 	strb.w	r2, [r3, #46]	@ 0x2e
                              break;
 80027ac:	bf00      	nop
                     }
                     p_tcb->PendStatus = OS_STATUS_PEND_TIMEOUT;         /* Indicate pend timed out                              */
 80027ae:	697b      	ldr	r3, [r7, #20]
 80027b0:	2203      	movs	r2, #3
 80027b2:	f883 202d 	strb.w	r2, [r3, #45]	@ 0x2d
                     p_tcb->PendOn     = OS_TASK_PEND_ON_NOTHING;        /* Indicate no longer pending                           */
 80027b6:	697b      	ldr	r3, [r7, #20]
 80027b8:	2200      	movs	r2, #0
 80027ba:	f883 202c 	strb.w	r2, [r3, #44]	@ 0x2c

#if (OS_CFG_MUTEX_EN > 0u)
                     if (p_tcb_owner != (OS_TCB *)0) {
 80027be:	693b      	ldr	r3, [r7, #16]
 80027c0:	2b00      	cmp	r3, #0
 80027c2:	d027      	beq.n	8002814 <OS_TickListUpdate+0x128>
                         if ((p_tcb_owner->Prio != p_tcb_owner->BasePrio) &&
 80027c4:	693b      	ldr	r3, [r7, #16]
 80027c6:	f893 202f 	ldrb.w	r2, [r3, #47]	@ 0x2f
 80027ca:	693b      	ldr	r3, [r7, #16]
 80027cc:	f893 3030 	ldrb.w	r3, [r3, #48]	@ 0x30
 80027d0:	429a      	cmp	r2, r3
 80027d2:	d01f      	beq.n	8002814 <OS_TickListUpdate+0x128>
                             (p_tcb_owner->Prio == p_tcb->Prio)) {       /* Has the owner inherited a priority?                  */
 80027d4:	693b      	ldr	r3, [r7, #16]
 80027d6:	f893 202f 	ldrb.w	r2, [r3, #47]	@ 0x2f
 80027da:	697b      	ldr	r3, [r7, #20]
 80027dc:	f893 302f 	ldrb.w	r3, [r3, #47]	@ 0x2f
                         if ((p_tcb_owner->Prio != p_tcb_owner->BasePrio) &&
 80027e0:	429a      	cmp	r2, r3
 80027e2:	d117      	bne.n	8002814 <OS_TickListUpdate+0x128>
                             prio_new = OS_MutexGrpPrioFindHighest(p_tcb_owner);
 80027e4:	6938      	ldr	r0, [r7, #16]
 80027e6:	f7fe fff4 	bl	80017d2 <OS_MutexGrpPrioFindHighest>
 80027ea:	4603      	mov	r3, r0
 80027ec:	72fb      	strb	r3, [r7, #11]
                             prio_new = (prio_new > p_tcb_owner->BasePrio) ? p_tcb_owner->BasePrio : prio_new;
 80027ee:	693b      	ldr	r3, [r7, #16]
 80027f0:	f893 3030 	ldrb.w	r3, [r3, #48]	@ 0x30
 80027f4:	7afa      	ldrb	r2, [r7, #11]
 80027f6:	4293      	cmp	r3, r2
 80027f8:	bf28      	it	cs
 80027fa:	4613      	movcs	r3, r2
 80027fc:	72fb      	strb	r3, [r7, #11]
                             if (prio_new != p_tcb_owner->Prio) {
 80027fe:	693b      	ldr	r3, [r7, #16]
 8002800:	f893 302f 	ldrb.w	r3, [r3, #47]	@ 0x2f
 8002804:	7afa      	ldrb	r2, [r7, #11]
 8002806:	429a      	cmp	r2, r3
 8002808:	d004      	beq.n	8002814 <OS_TickListUpdate+0x128>
                                 OS_TaskChangePrio(p_tcb_owner, prio_new);
 800280a:	7afb      	ldrb	r3, [r7, #11]
 800280c:	4619      	mov	r1, r3
 800280e:	6938      	ldr	r0, [r7, #16]
 8002810:	f7ff fd42 	bl	8002298 <OS_TaskChangePrio>
                                 OS_TRACE_MUTEX_TASK_PRIO_DISINHERIT(p_tcb_owner, p_tcb_owner->Prio);
                             }
                         }
                     }
#endif
                     break;
 8002814:	bf00      	nop
            }

            p_list->TCB_Ptr = p_tcb->TickNextPtr;
 8002816:	697b      	ldr	r3, [r7, #20]
 8002818:	695a      	ldr	r2, [r3, #20]
 800281a:	68fb      	ldr	r3, [r7, #12]
 800281c:	601a      	str	r2, [r3, #0]
            p_tcb           = p_list->TCB_Ptr;                           /* Get 'p_tcb' again for loop                           */
 800281e:	68fb      	ldr	r3, [r7, #12]
 8002820:	681b      	ldr	r3, [r3, #0]
 8002822:	617b      	str	r3, [r7, #20]
            if (p_tcb == (OS_TCB *)0) {
 8002824:	697b      	ldr	r3, [r7, #20]
 8002826:	2b00      	cmp	r3, #0
 8002828:	d01c      	beq.n	8002864 <OS_TickListUpdate+0x178>
                break;
            } else {
#if (OS_CFG_DBG_EN > 0u)
                p_list->NbrEntries--;
#endif
                p_tcb->TickPrevPtr = (OS_TCB *)0;
 800282a:	697b      	ldr	r3, [r7, #20]
 800282c:	2200      	movs	r2, #0
 800282e:	619a      	str	r2, [r3, #24]
                if (p_tcb->TickRemain <= ticks) {
 8002830:	697b      	ldr	r3, [r7, #20]
 8002832:	6c5b      	ldr	r3, [r3, #68]	@ 0x44
 8002834:	687a      	ldr	r2, [r7, #4]
 8002836:	429a      	cmp	r2, r3
 8002838:	d308      	bcc.n	800284c <OS_TickListUpdate+0x160>
                    ticks              = ticks - p_tcb->TickRemain;
 800283a:	697b      	ldr	r3, [r7, #20]
 800283c:	6c5b      	ldr	r3, [r3, #68]	@ 0x44
 800283e:	687a      	ldr	r2, [r7, #4]
 8002840:	1ad3      	subs	r3, r2, r3
 8002842:	607b      	str	r3, [r7, #4]
                    p_tcb->TickRemain  = 0u;
 8002844:	697b      	ldr	r3, [r7, #20]
 8002846:	2200      	movs	r2, #0
 8002848:	645a      	str	r2, [r3, #68]	@ 0x44
 800284a:	e005      	b.n	8002858 <OS_TickListUpdate+0x16c>
                } else {
                    p_tcb->TickRemain -= ticks;
 800284c:	697b      	ldr	r3, [r7, #20]
 800284e:	6c5a      	ldr	r2, [r3, #68]	@ 0x44
 8002850:	687b      	ldr	r3, [r7, #4]
 8002852:	1ad2      	subs	r2, r2, r3
 8002854:	697b      	ldr	r3, [r7, #20]
 8002856:	645a      	str	r2, [r3, #68]	@ 0x44
        while (p_tcb->TickRemain == 0u) {
 8002858:	697b      	ldr	r3, [r7, #20]
 800285a:	6c5b      	ldr	r3, [r3, #68]	@ 0x44
 800285c:	2b00      	cmp	r3, #0
 800285e:	f43f af67 	beq.w	8002730 <OS_TickListUpdate+0x44>
        }
    }
#if (OS_CFG_DBG_EN > 0u)
    p_list->NbrUpdated = nbr_updated;
#endif
}
 8002862:	e000      	b.n	8002866 <OS_TickListUpdate+0x17a>
                break;
 8002864:	bf00      	nop
}
 8002866:	bf00      	nop
 8002868:	3718      	adds	r7, #24
 800286a:	46bd      	mov	sp, r7
 800286c:	bd80      	pop	{r7, pc}
 800286e:	bf00      	nop
 8002870:	200010a8 	.word	0x200010a8

08002874 <OSTimeDly>:
*/

void  OSTimeDly (OS_TICK   dly,
                 OS_OPT    opt,
                 OS_ERR   *p_err)
{
 8002874:	b580      	push	{r7, lr}
 8002876:	b086      	sub	sp, #24
 8002878:	af00      	add	r7, sp, #0
 800287a:	60f8      	str	r0, [r7, #12]
 800287c:	460b      	mov	r3, r1
 800287e:	607a      	str	r2, [r7, #4]
 8002880:	817b      	strh	r3, [r7, #10]
#if (OS_CFG_TICK_EN > 0u)
    CPU_SR_ALLOC();
 8002882:	2300      	movs	r3, #0
 8002884:	617b      	str	r3, [r7, #20]
    *p_err = OS_ERR_TICK_DISABLED;
    return;
#else

#if (OS_CFG_CALLED_FROM_ISR_CHK_EN > 0u)
    if (OSIntNestingCtr > 0u) {                                 /* Not allowed to call from an ISR                      */
 8002886:	4b2b      	ldr	r3, [pc, #172]	@ (8002934 <OSTimeDly+0xc0>)
 8002888:	781b      	ldrb	r3, [r3, #0]
 800288a:	2b00      	cmp	r3, #0
 800288c:	d004      	beq.n	8002898 <OSTimeDly+0x24>
       *p_err = OS_ERR_TIME_DLY_ISR;
 800288e:	687b      	ldr	r3, [r7, #4]
 8002890:	f247 2275 	movw	r2, #29301	@ 0x7275
 8002894:	801a      	strh	r2, [r3, #0]
        return;
 8002896:	e049      	b.n	800292c <OSTimeDly+0xb8>
    }
#endif

#if (OS_CFG_INVALID_OS_CALLS_CHK_EN > 0u)
    if (OSRunning != OS_STATE_OS_RUNNING) {                     /* Is the kernel running?                               */
 8002898:	4b27      	ldr	r3, [pc, #156]	@ (8002938 <OSTimeDly+0xc4>)
 800289a:	781b      	ldrb	r3, [r3, #0]
 800289c:	2b01      	cmp	r3, #1
 800289e:	d004      	beq.n	80028aa <OSTimeDly+0x36>
       *p_err = OS_ERR_OS_NOT_RUNNING;
 80028a0:	687b      	ldr	r3, [r7, #4]
 80028a2:	f645 6289 	movw	r2, #24201	@ 0x5e89
 80028a6:	801a      	strh	r2, [r3, #0]
        return;
 80028a8:	e040      	b.n	800292c <OSTimeDly+0xb8>
    }
#endif

    if (OSSchedLockNestingCtr > 0u) {                           /* Can't delay when the scheduler is locked             */
 80028aa:	4b24      	ldr	r3, [pc, #144]	@ (800293c <OSTimeDly+0xc8>)
 80028ac:	781b      	ldrb	r3, [r3, #0]
 80028ae:	2b00      	cmp	r3, #0
 80028b0:	d004      	beq.n	80028bc <OSTimeDly+0x48>
       *p_err = OS_ERR_SCHED_LOCKED;
 80028b2:	687b      	ldr	r3, [r7, #4]
 80028b4:	f646 5263 	movw	r2, #28003	@ 0x6d63
 80028b8:	801a      	strh	r2, [r3, #0]
        return;
 80028ba:	e037      	b.n	800292c <OSTimeDly+0xb8>
    }

    switch (opt) {
 80028bc:	897b      	ldrh	r3, [r7, #10]
 80028be:	2b08      	cmp	r3, #8
 80028c0:	bf8c      	ite	hi
 80028c2:	2201      	movhi	r2, #1
 80028c4:	2200      	movls	r2, #0
 80028c6:	b2d2      	uxtb	r2, r2
 80028c8:	2a00      	cmp	r2, #0
 80028ca:	d10c      	bne.n	80028e6 <OSTimeDly+0x72>
 80028cc:	f240 1215 	movw	r2, #277	@ 0x115
 80028d0:	fa22 f303 	lsr.w	r3, r2, r3
 80028d4:	f003 0301 	and.w	r3, r3, #1
 80028d8:	2b00      	cmp	r3, #0
 80028da:	bf14      	ite	ne
 80028dc:	2301      	movne	r3, #1
 80028de:	2300      	moveq	r3, #0
 80028e0:	b2db      	uxtb	r3, r3
 80028e2:	2b00      	cmp	r3, #0
 80028e4:	d104      	bne.n	80028f0 <OSTimeDly+0x7c>
        case OS_OPT_TIME_PERIODIC:
        case OS_OPT_TIME_MATCH:
             break;

        default:
            *p_err = OS_ERR_OPT_INVALID;
 80028e6:	687b      	ldr	r3, [r7, #4]
 80028e8:	f645 6225 	movw	r2, #24101	@ 0x5e25
 80028ec:	801a      	strh	r2, [r3, #0]
             return;
 80028ee:	e01d      	b.n	800292c <OSTimeDly+0xb8>
             break;
 80028f0:	bf00      	nop
    }

#if (OS_CFG_TICK_EN > 0u)
    CPU_CRITICAL_ENTER();
 80028f2:	2040      	movs	r0, #64	@ 0x40
 80028f4:	f7fd fc6c 	bl	80001d0 <CPU_SR_Save>
 80028f8:	6178      	str	r0, [r7, #20]
    OS_TickListInsertDly(OSTCBCurPtr,
 80028fa:	4b11      	ldr	r3, [pc, #68]	@ (8002940 <OSTimeDly+0xcc>)
 80028fc:	6818      	ldr	r0, [r3, #0]
 80028fe:	897a      	ldrh	r2, [r7, #10]
 8002900:	687b      	ldr	r3, [r7, #4]
 8002902:	68f9      	ldr	r1, [r7, #12]
 8002904:	f7ff fe3c 	bl	8002580 <OS_TickListInsertDly>
                         dly,
                         opt,
                         p_err);
    if (*p_err != OS_ERR_NONE) {
 8002908:	687b      	ldr	r3, [r7, #4]
 800290a:	881b      	ldrh	r3, [r3, #0]
 800290c:	2b00      	cmp	r3, #0
 800290e:	d003      	beq.n	8002918 <OSTimeDly+0xa4>
         CPU_CRITICAL_EXIT();
 8002910:	6978      	ldr	r0, [r7, #20]
 8002912:	f7fd fc6b 	bl	80001ec <CPU_SR_Restore>
         return;
 8002916:	e009      	b.n	800292c <OSTimeDly+0xb8>
    }

    OS_RdyListRemove(OSTCBCurPtr);                              /* Remove current task from ready list                  */
 8002918:	4b09      	ldr	r3, [pc, #36]	@ (8002940 <OSTimeDly+0xcc>)
 800291a:	681b      	ldr	r3, [r3, #0]
 800291c:	4618      	mov	r0, r3
 800291e:	f7fe fc6d 	bl	80011fc <OS_RdyListRemove>
    CPU_CRITICAL_EXIT();
 8002922:	6978      	ldr	r0, [r7, #20]
 8002924:	f7fd fc62 	bl	80001ec <CPU_SR_Restore>
    OSSched();                                                  /* Find next task to run!                               */
 8002928:	f7fe f904 	bl	8000b34 <OSSched>
#endif
#endif
}
 800292c:	3718      	adds	r7, #24
 800292e:	46bd      	mov	sp, r7
 8002930:	bd80      	pop	{r7, pc}
 8002932:	bf00      	nop
 8002934:	20000db4 	.word	0x20000db4
 8002938:	20000db5 	.word	0x20000db5
 800293c:	20000fd4 	.word	0x20000fd4
 8002940:	20001188 	.word	0x20001188

08002944 <OSTimeTick>:
* Note(s)    : none
************************************************************************************************************************
*/

void  OSTimeTick (void)
{
 8002944:	b580      	push	{r7, lr}
 8002946:	af00      	add	r7, sp, #0
    if (OSRunning != OS_STATE_OS_RUNNING) {
 8002948:	4b09      	ldr	r3, [pc, #36]	@ (8002970 <OSTimeTick+0x2c>)
 800294a:	781b      	ldrb	r3, [r3, #0]
 800294c:	2b01      	cmp	r3, #1
 800294e:	d10d      	bne.n	800296c <OSTimeTick+0x28>
        return;
    }

    OSTimeTickHook();                                           /* Call user definable hook                             */
 8002950:	f7fd ff72 	bl	8000838 <OSTimeTickHook>

#if (OS_CFG_SCHED_ROUND_ROBIN_EN > 0u)
    OS_SchedRoundRobin(&OSRdyList[OSPrioCur]);                  /* Update quanta ctr for the task which just ran        */
 8002954:	4b07      	ldr	r3, [pc, #28]	@ (8002974 <OSTimeTick+0x30>)
 8002956:	781b      	ldrb	r3, [r3, #0]
 8002958:	00db      	lsls	r3, r3, #3
 800295a:	4a07      	ldr	r2, [pc, #28]	@ (8002978 <OSTimeTick+0x34>)
 800295c:	4413      	add	r3, r2
 800295e:	4618      	mov	r0, r3
 8002960:	f7fe fc90 	bl	8001284 <OS_SchedRoundRobin>
#endif

#if (OS_CFG_TICK_EN > 0u)
    OS_TickUpdate(1u);                                          /* Update from the ISR                                  */
 8002964:	2001      	movs	r0, #1
 8002966:	f7ff fd4d 	bl	8002404 <OS_TickUpdate>
 800296a:	e000      	b.n	800296e <OSTimeTick+0x2a>
        return;
 800296c:	bf00      	nop
#endif
}
 800296e:	bd80      	pop	{r7, pc}
 8002970:	20000db5 	.word	0x20000db5
 8002974:	20000dc8 	.word	0x20000dc8
 8002978:	20000dd4 	.word	0x20000dd4

0800297c <OS_TmrInit>:
* Note(s)    : 1) This function is INTERNAL to uC/OS-III and your application MUST NOT call it.
************************************************************************************************************************
*/

void  OS_TmrInit (OS_ERR  *p_err)
{
 800297c:	b590      	push	{r4, r7, lr}
 800297e:	b08d      	sub	sp, #52	@ 0x34
 8002980:	af0a      	add	r7, sp, #40	@ 0x28
 8002982:	6078      	str	r0, [r7, #4]
#if (OS_CFG_DBG_EN > 0u)
    OSTmrQty             =           0u;                        /* Keep track of the number of timers created           */
    OSTmrDbgListPtr      = (OS_TMR *)0;
#endif

    OSTmrListPtr         = (OS_TMR *)0;                         /* Create an empty timer list                           */
 8002984:	4b29      	ldr	r3, [pc, #164]	@ (8002a2c <OS_TmrInit+0xb0>)
 8002986:	2200      	movs	r2, #0
 8002988:	601a      	str	r2, [r3, #0]
#if (OS_CFG_DBG_EN > 0u)
    OSTmrListEntries     =           0u;
#endif
                                                                /* Calculate Timer to Ticks multiplier                  */
    OSTmrToTicksMult = OSCfg_TickRate_Hz / OSCfg_TmrTaskRate_Hz;
 800298a:	4b29      	ldr	r3, [pc, #164]	@ (8002a30 <OS_TmrInit+0xb4>)
 800298c:	681a      	ldr	r2, [r3, #0]
 800298e:	4b29      	ldr	r3, [pc, #164]	@ (8002a34 <OS_TmrInit+0xb8>)
 8002990:	681b      	ldr	r3, [r3, #0]
 8002992:	fbb2 f3f3 	udiv	r3, r2, r3
 8002996:	4a28      	ldr	r2, [pc, #160]	@ (8002a38 <OS_TmrInit+0xbc>)
 8002998:	6013      	str	r3, [r2, #0]
#if (OS_CFG_TS_EN > 0u)
    OSTmrTaskTime        =           0u;
    OSTmrTaskTimeMax     =           0u;
#endif

    OSMutexCreate(&OSTmrMutex,                                  /* Use a mutex to protect the timers                    */
 800299a:	687a      	ldr	r2, [r7, #4]
 800299c:	2100      	movs	r1, #0
 800299e:	4827      	ldr	r0, [pc, #156]	@ (8002a3c <OS_TmrInit+0xc0>)
 80029a0:	f7fe fdb4 	bl	800150c <OSMutexCreate>
                  (CPU_CHAR *)0,
#else
                  (CPU_CHAR *)"OS Tmr Mutex",
#endif
                  p_err);
    if (*p_err != OS_ERR_NONE) {
 80029a4:	687b      	ldr	r3, [r7, #4]
 80029a6:	881b      	ldrh	r3, [r3, #0]
 80029a8:	2b00      	cmp	r3, #0
 80029aa:	d13b      	bne.n	8002a24 <OS_TmrInit+0xa8>
        return;
    }

    OS_TmrCondCreate();
 80029ac:	f000 fa24 	bl	8002df8 <OS_TmrCondCreate>
                                                                /* -------------- CREATE THE TIMER TASK --------------- */
    if (OSCfg_TmrTaskStkBasePtr == (CPU_STK *)0) {
 80029b0:	4b23      	ldr	r3, [pc, #140]	@ (8002a40 <OS_TmrInit+0xc4>)
 80029b2:	681b      	ldr	r3, [r3, #0]
 80029b4:	2b00      	cmp	r3, #0
 80029b6:	d104      	bne.n	80029c2 <OS_TmrInit+0x46>
       *p_err = OS_ERR_TMR_STK_INVALID;
 80029b8:	687b      	ldr	r3, [r7, #4]
 80029ba:	f247 3247 	movw	r2, #29511	@ 0x7347
 80029be:	801a      	strh	r2, [r3, #0]
        return;
 80029c0:	e031      	b.n	8002a26 <OS_TmrInit+0xaa>
    }

    if (OSCfg_TmrTaskStkSize < OSCfg_StkSizeMin) {
 80029c2:	4b20      	ldr	r3, [pc, #128]	@ (8002a44 <OS_TmrInit+0xc8>)
 80029c4:	681a      	ldr	r2, [r3, #0]
 80029c6:	4b20      	ldr	r3, [pc, #128]	@ (8002a48 <OS_TmrInit+0xcc>)
 80029c8:	681b      	ldr	r3, [r3, #0]
 80029ca:	429a      	cmp	r2, r3
 80029cc:	d204      	bcs.n	80029d8 <OS_TmrInit+0x5c>
       *p_err = OS_ERR_TMR_STK_SIZE_INVALID;
 80029ce:	687b      	ldr	r3, [r7, #4]
 80029d0:	f247 3248 	movw	r2, #29512	@ 0x7348
 80029d4:	801a      	strh	r2, [r3, #0]
        return;
 80029d6:	e026      	b.n	8002a26 <OS_TmrInit+0xaa>
    }

    if (OSCfg_TmrTaskPrio >= (OS_CFG_PRIO_MAX - 1u)) {
 80029d8:	4b1c      	ldr	r3, [pc, #112]	@ (8002a4c <OS_TmrInit+0xd0>)
 80029da:	781b      	ldrb	r3, [r3, #0]
 80029dc:	2b3e      	cmp	r3, #62	@ 0x3e
 80029de:	d904      	bls.n	80029ea <OS_TmrInit+0x6e>
       *p_err = OS_ERR_TMR_PRIO_INVALID;
 80029e0:	687b      	ldr	r3, [r7, #4]
 80029e2:	f247 3246 	movw	r2, #29510	@ 0x7346
 80029e6:	801a      	strh	r2, [r3, #0]
        return;
 80029e8:	e01d      	b.n	8002a26 <OS_TmrInit+0xaa>
    }

    OSTaskCreate(&OSTmrTaskTCB,
 80029ea:	4b18      	ldr	r3, [pc, #96]	@ (8002a4c <OS_TmrInit+0xd0>)
 80029ec:	781b      	ldrb	r3, [r3, #0]
 80029ee:	4a14      	ldr	r2, [pc, #80]	@ (8002a40 <OS_TmrInit+0xc4>)
 80029f0:	6812      	ldr	r2, [r2, #0]
 80029f2:	4917      	ldr	r1, [pc, #92]	@ (8002a50 <OS_TmrInit+0xd4>)
 80029f4:	6809      	ldr	r1, [r1, #0]
 80029f6:	4813      	ldr	r0, [pc, #76]	@ (8002a44 <OS_TmrInit+0xc8>)
 80029f8:	6800      	ldr	r0, [r0, #0]
 80029fa:	687c      	ldr	r4, [r7, #4]
 80029fc:	9408      	str	r4, [sp, #32]
 80029fe:	240b      	movs	r4, #11
 8002a00:	9407      	str	r4, [sp, #28]
 8002a02:	2400      	movs	r4, #0
 8002a04:	9406      	str	r4, [sp, #24]
 8002a06:	2400      	movs	r4, #0
 8002a08:	9405      	str	r4, [sp, #20]
 8002a0a:	2400      	movs	r4, #0
 8002a0c:	9404      	str	r4, [sp, #16]
 8002a0e:	9003      	str	r0, [sp, #12]
 8002a10:	9102      	str	r1, [sp, #8]
 8002a12:	9201      	str	r2, [sp, #4]
 8002a14:	9300      	str	r3, [sp, #0]
 8002a16:	2300      	movs	r3, #0
 8002a18:	4a0e      	ldr	r2, [pc, #56]	@ (8002a54 <OS_TmrInit+0xd8>)
 8002a1a:	2100      	movs	r1, #0
 8002a1c:	480e      	ldr	r0, [pc, #56]	@ (8002a58 <OS_TmrInit+0xdc>)
 8002a1e:	f7ff f945 	bl	8001cac <OSTaskCreate>
 8002a22:	e000      	b.n	8002a26 <OS_TmrInit+0xaa>
        return;
 8002a24:	bf00      	nop
                  0u,
                  0u,
                 (void     *)0,
                 (OS_OPT_TASK_STK_CHK | (OS_OPT)(OS_OPT_TASK_STK_CLR | OS_OPT_TASK_NO_TLS)),
                  p_err);
}
 8002a26:	370c      	adds	r7, #12
 8002a28:	46bd      	mov	sp, r7
 8002a2a:	bd90      	pop	{r4, r7, pc}
 8002a2c:	200010ac 	.word	0x200010ac
 8002a30:	08003f14 	.word	0x08003f14
 8002a34:	08003f1c 	.word	0x08003f1c
 8002a38:	20001184 	.word	0x20001184
 8002a3c:	200010c0 	.word	0x200010c0
 8002a40:	08003f20 	.word	0x08003f20
 8002a44:	08003f28 	.word	0x08003f28
 8002a48:	08003f10 	.word	0x08003f10
 8002a4c:	08003f18 	.word	0x08003f18
 8002a50:	08003f24 	.word	0x08003f24
 8002a54:	08002c91 	.word	0x08002c91
 8002a58:	200010d8 	.word	0x200010d8

08002a5c <OS_TmrLink>:
************************************************************************************************************************
*/

void OS_TmrLink (OS_TMR   *p_tmr,
                 OS_TICK   time)
{
 8002a5c:	b580      	push	{r7, lr}
 8002a5e:	b086      	sub	sp, #24
 8002a60:	af00      	add	r7, sp, #0
 8002a62:	6078      	str	r0, [r7, #4]
 8002a64:	6039      	str	r1, [r7, #0]
    OS_TMR   *p_tmr2;
    OS_TICK   remain;
    OS_TICK   delta;


    if (OSTmrListPtr == (OS_TMR *)0) {                          /* Is the list empty?                                   */
 8002a66:	4b43      	ldr	r3, [pc, #268]	@ (8002b74 <OS_TmrLink+0x118>)
 8002a68:	681b      	ldr	r3, [r3, #0]
 8002a6a:	2b00      	cmp	r3, #0
 8002a6c:	d10e      	bne.n	8002a8c <OS_TmrLink+0x30>
        p_tmr->NextPtr    = (OS_TMR *)0;                        /* Yes, this is the first entry                         */
 8002a6e:	687b      	ldr	r3, [r7, #4]
 8002a70:	2200      	movs	r2, #0
 8002a72:	60da      	str	r2, [r3, #12]
        p_tmr->PrevPtr    = (OS_TMR *)0;
 8002a74:	687b      	ldr	r3, [r7, #4]
 8002a76:	2200      	movs	r2, #0
 8002a78:	611a      	str	r2, [r3, #16]
        OSTmrListPtr      = p_tmr;
 8002a7a:	4a3e      	ldr	r2, [pc, #248]	@ (8002b74 <OS_TmrLink+0x118>)
 8002a7c:	687b      	ldr	r3, [r7, #4]
 8002a7e:	6013      	str	r3, [r2, #0]
#if (OS_CFG_DBG_EN > 0u)
        OSTmrListEntries  = 1u;
#endif
        OSTmrTaskTickBase = time;
 8002a80:	4a3d      	ldr	r2, [pc, #244]	@ (8002b78 <OS_TmrLink+0x11c>)
 8002a82:	683b      	ldr	r3, [r7, #0]
 8002a84:	6013      	str	r3, [r2, #0]
        OS_TmrCondSignal();
 8002a86:	f000 fa6b 	bl	8002f60 <OS_TmrCondSignal>

        return;
 8002a8a:	e070      	b.n	8002b6e <OS_TmrLink+0x112>

#if (OS_CFG_DBG_EN > 0u)
    OSTmrListEntries++;
#endif

    delta = (time + p_tmr->Remain) - OSTmrTaskTickBase;
 8002a8c:	687b      	ldr	r3, [r7, #4]
 8002a8e:	695a      	ldr	r2, [r3, #20]
 8002a90:	683b      	ldr	r3, [r7, #0]
 8002a92:	441a      	add	r2, r3
 8002a94:	4b38      	ldr	r3, [pc, #224]	@ (8002b78 <OS_TmrLink+0x11c>)
 8002a96:	681b      	ldr	r3, [r3, #0]
 8002a98:	1ad3      	subs	r3, r2, r3
 8002a9a:	60fb      	str	r3, [r7, #12]

    p_tmr2 = OSTmrListPtr;                                      /* No,  Insert somewhere in the list in delta order     */
 8002a9c:	4b35      	ldr	r3, [pc, #212]	@ (8002b74 <OS_TmrLink+0x118>)
 8002a9e:	681b      	ldr	r3, [r3, #0]
 8002aa0:	613b      	str	r3, [r7, #16]
    remain = p_tmr2->Remain;
 8002aa2:	693b      	ldr	r3, [r7, #16]
 8002aa4:	695b      	ldr	r3, [r3, #20]
 8002aa6:	60bb      	str	r3, [r7, #8]

    if ((delta           <     remain) &&
 8002aa8:	68fa      	ldr	r2, [r7, #12]
 8002aaa:	68bb      	ldr	r3, [r7, #8]
 8002aac:	429a      	cmp	r2, r3
 8002aae:	d21a      	bcs.n	8002ae6 <OS_TmrLink+0x8a>
        (p_tmr2->PrevPtr == (OS_TMR *)0)) {                     /* Are we the new head of the list?                     */
 8002ab0:	693b      	ldr	r3, [r7, #16]
 8002ab2:	691b      	ldr	r3, [r3, #16]
    if ((delta           <     remain) &&
 8002ab4:	2b00      	cmp	r3, #0
 8002ab6:	d116      	bne.n	8002ae6 <OS_TmrLink+0x8a>
        p_tmr2->Remain    =  remain - delta;
 8002ab8:	68ba      	ldr	r2, [r7, #8]
 8002aba:	68fb      	ldr	r3, [r7, #12]
 8002abc:	1ad2      	subs	r2, r2, r3
 8002abe:	693b      	ldr	r3, [r7, #16]
 8002ac0:	615a      	str	r2, [r3, #20]
        p_tmr->PrevPtr    = (OS_TMR *)0;
 8002ac2:	687b      	ldr	r3, [r7, #4]
 8002ac4:	2200      	movs	r2, #0
 8002ac6:	611a      	str	r2, [r3, #16]
        p_tmr->NextPtr    =  p_tmr2;
 8002ac8:	687b      	ldr	r3, [r7, #4]
 8002aca:	693a      	ldr	r2, [r7, #16]
 8002acc:	60da      	str	r2, [r3, #12]
        p_tmr2->PrevPtr   =  p_tmr;
 8002ace:	693b      	ldr	r3, [r7, #16]
 8002ad0:	687a      	ldr	r2, [r7, #4]
 8002ad2:	611a      	str	r2, [r3, #16]
        OSTmrListPtr      =  p_tmr;
 8002ad4:	4a27      	ldr	r2, [pc, #156]	@ (8002b74 <OS_TmrLink+0x118>)
 8002ad6:	687b      	ldr	r3, [r7, #4]
 8002ad8:	6013      	str	r3, [r2, #0]

        OSTmrTaskTickBase = time;
 8002ada:	4a27      	ldr	r2, [pc, #156]	@ (8002b78 <OS_TmrLink+0x11c>)
 8002adc:	683b      	ldr	r3, [r7, #0]
 8002ade:	6013      	str	r3, [r2, #0]
        OS_TmrCondSignal();
 8002ae0:	f000 fa3e 	bl	8002f60 <OS_TmrCondSignal>

        return;
 8002ae4:	e043      	b.n	8002b6e <OS_TmrLink+0x112>
    }

                                                                /* No                                                   */
    delta  -= remain;                                           /* Make delta relative to the current head.             */
 8002ae6:	68fa      	ldr	r2, [r7, #12]
 8002ae8:	68bb      	ldr	r3, [r7, #8]
 8002aea:	1ad3      	subs	r3, r2, r3
 8002aec:	60fb      	str	r3, [r7, #12]
    p_tmr1  = p_tmr2;
 8002aee:	693b      	ldr	r3, [r7, #16]
 8002af0:	617b      	str	r3, [r7, #20]
    p_tmr2  = p_tmr1->NextPtr;
 8002af2:	697b      	ldr	r3, [r7, #20]
 8002af4:	68db      	ldr	r3, [r3, #12]
 8002af6:	613b      	str	r3, [r7, #16]


    while ((p_tmr2 !=        (OS_TMR *)0) &&                    /* Find the appropriate position in the delta list.     */
 8002af8:	e009      	b.n	8002b0e <OS_TmrLink+0xb2>
           (delta  >= p_tmr2->Remain)) {
        delta  -= p_tmr2->Remain;                               /* Update our delta as we traverse the list.            */
 8002afa:	693b      	ldr	r3, [r7, #16]
 8002afc:	695b      	ldr	r3, [r3, #20]
 8002afe:	68fa      	ldr	r2, [r7, #12]
 8002b00:	1ad3      	subs	r3, r2, r3
 8002b02:	60fb      	str	r3, [r7, #12]
        p_tmr1  = p_tmr2;
 8002b04:	693b      	ldr	r3, [r7, #16]
 8002b06:	617b      	str	r3, [r7, #20]
        p_tmr2  = p_tmr2->NextPtr;
 8002b08:	693b      	ldr	r3, [r7, #16]
 8002b0a:	68db      	ldr	r3, [r3, #12]
 8002b0c:	613b      	str	r3, [r7, #16]
    while ((p_tmr2 !=        (OS_TMR *)0) &&                    /* Find the appropriate position in the delta list.     */
 8002b0e:	693b      	ldr	r3, [r7, #16]
 8002b10:	2b00      	cmp	r3, #0
 8002b12:	d004      	beq.n	8002b1e <OS_TmrLink+0xc2>
           (delta  >= p_tmr2->Remain)) {
 8002b14:	693b      	ldr	r3, [r7, #16]
 8002b16:	695b      	ldr	r3, [r3, #20]
    while ((p_tmr2 !=        (OS_TMR *)0) &&                    /* Find the appropriate position in the delta list.     */
 8002b18:	68fa      	ldr	r2, [r7, #12]
 8002b1a:	429a      	cmp	r2, r3
 8002b1c:	d2ed      	bcs.n	8002afa <OS_TmrLink+0x9e>
    }


    if (p_tmr2 != (OS_TMR *)0) {                                /* Our entry is not the last element in the list.       */
 8002b1e:	693b      	ldr	r3, [r7, #16]
 8002b20:	2b00      	cmp	r3, #0
 8002b22:	d018      	beq.n	8002b56 <OS_TmrLink+0xfa>
        p_tmr1           = p_tmr2->PrevPtr;
 8002b24:	693b      	ldr	r3, [r7, #16]
 8002b26:	691b      	ldr	r3, [r3, #16]
 8002b28:	617b      	str	r3, [r7, #20]
        p_tmr->Remain    = delta;                               /* Store remaining time                                 */
 8002b2a:	687b      	ldr	r3, [r7, #4]
 8002b2c:	68fa      	ldr	r2, [r7, #12]
 8002b2e:	615a      	str	r2, [r3, #20]
        p_tmr->PrevPtr   = p_tmr1;
 8002b30:	687b      	ldr	r3, [r7, #4]
 8002b32:	697a      	ldr	r2, [r7, #20]
 8002b34:	611a      	str	r2, [r3, #16]
        p_tmr->NextPtr   = p_tmr2;
 8002b36:	687b      	ldr	r3, [r7, #4]
 8002b38:	693a      	ldr	r2, [r7, #16]
 8002b3a:	60da      	str	r2, [r3, #12]
        p_tmr2->Remain  -= delta;                               /* Reduce time of next entry in the list                */
 8002b3c:	693b      	ldr	r3, [r7, #16]
 8002b3e:	695a      	ldr	r2, [r3, #20]
 8002b40:	68fb      	ldr	r3, [r7, #12]
 8002b42:	1ad2      	subs	r2, r2, r3
 8002b44:	693b      	ldr	r3, [r7, #16]
 8002b46:	615a      	str	r2, [r3, #20]
        p_tmr2->PrevPtr  = p_tmr;
 8002b48:	693b      	ldr	r3, [r7, #16]
 8002b4a:	687a      	ldr	r2, [r7, #4]
 8002b4c:	611a      	str	r2, [r3, #16]
        p_tmr1->NextPtr  = p_tmr;
 8002b4e:	697b      	ldr	r3, [r7, #20]
 8002b50:	687a      	ldr	r2, [r7, #4]
 8002b52:	60da      	str	r2, [r3, #12]
 8002b54:	e00b      	b.n	8002b6e <OS_TmrLink+0x112>

    } else {                                                    /* Our entry belongs at the end of the list.            */
        p_tmr->Remain    = delta;
 8002b56:	687b      	ldr	r3, [r7, #4]
 8002b58:	68fa      	ldr	r2, [r7, #12]
 8002b5a:	615a      	str	r2, [r3, #20]
        p_tmr->PrevPtr   = p_tmr1;
 8002b5c:	687b      	ldr	r3, [r7, #4]
 8002b5e:	697a      	ldr	r2, [r7, #20]
 8002b60:	611a      	str	r2, [r3, #16]
        p_tmr->NextPtr   = (OS_TMR *)0;
 8002b62:	687b      	ldr	r3, [r7, #4]
 8002b64:	2200      	movs	r2, #0
 8002b66:	60da      	str	r2, [r3, #12]
        p_tmr1->NextPtr  = p_tmr;
 8002b68:	697b      	ldr	r3, [r7, #20]
 8002b6a:	687a      	ldr	r2, [r7, #4]
 8002b6c:	60da      	str	r2, [r3, #12]
    }
}
 8002b6e:	3718      	adds	r7, #24
 8002b70:	46bd      	mov	sp, r7
 8002b72:	bd80      	pop	{r7, pc}
 8002b74:	200010ac 	.word	0x200010ac
 8002b78:	20001180 	.word	0x20001180

08002b7c <OS_TmrUnlink>:
************************************************************************************************************************
*/

void  OS_TmrUnlink (OS_TMR   *p_tmr,
                    OS_TICK   time)
{
 8002b7c:	b580      	push	{r7, lr}
 8002b7e:	b086      	sub	sp, #24
 8002b80:	af00      	add	r7, sp, #0
 8002b82:	6078      	str	r0, [r7, #4]
 8002b84:	6039      	str	r1, [r7, #0]
    OS_TMR   *p_tmr1;
    OS_TMR   *p_tmr2;
    OS_TICK   elapsed;


    p_tmr1                          = p_tmr->PrevPtr;
 8002b86:	687b      	ldr	r3, [r7, #4]
 8002b88:	691b      	ldr	r3, [r3, #16]
 8002b8a:	60fb      	str	r3, [r7, #12]
    p_tmr2                          = p_tmr->NextPtr;
 8002b8c:	687b      	ldr	r3, [r7, #4]
 8002b8e:	68db      	ldr	r3, [r3, #12]
 8002b90:	617b      	str	r3, [r7, #20]
    if (p_tmr1 == (OS_TMR *)0) {
 8002b92:	68fb      	ldr	r3, [r7, #12]
 8002b94:	2b00      	cmp	r3, #0
 8002b96:	d15a      	bne.n	8002c4e <OS_TmrUnlink+0xd2>
        if (p_tmr2 == (OS_TMR *)0) {                            /* Remove the ONLY entry in the list?                   */
 8002b98:	697b      	ldr	r3, [r7, #20]
 8002b9a:	2b00      	cmp	r3, #0
 8002b9c:	d10b      	bne.n	8002bb6 <OS_TmrUnlink+0x3a>
            OSTmrListPtr            = (OS_TMR *)0;
 8002b9e:	4b3a      	ldr	r3, [pc, #232]	@ (8002c88 <OS_TmrUnlink+0x10c>)
 8002ba0:	2200      	movs	r2, #0
 8002ba2:	601a      	str	r2, [r3, #0]
#if (OS_CFG_DBG_EN > 0u)
            OSTmrListEntries        = 0u;
#endif
            p_tmr->Remain           = 0u;
 8002ba4:	687b      	ldr	r3, [r7, #4]
 8002ba6:	2200      	movs	r2, #0
 8002ba8:	615a      	str	r2, [r3, #20]

            OSTmrTaskTickBase       = time;
 8002baa:	4a38      	ldr	r2, [pc, #224]	@ (8002c8c <OS_TmrUnlink+0x110>)
 8002bac:	683b      	ldr	r3, [r7, #0]
 8002bae:	6013      	str	r3, [r2, #0]
            OS_TmrCondSignal();
 8002bb0:	f000 f9d6 	bl	8002f60 <OS_TmrCondSignal>
        }
        p_tmr->PrevPtr              = (OS_TMR *)0;
        p_tmr->NextPtr              = (OS_TMR *)0;
        p_tmr->Remain               =           0u;
    }
}
 8002bb4:	e064      	b.n	8002c80 <OS_TmrUnlink+0x104>
            elapsed                 = time - OSTmrTaskTickBase;
 8002bb6:	4b35      	ldr	r3, [pc, #212]	@ (8002c8c <OS_TmrUnlink+0x110>)
 8002bb8:	681b      	ldr	r3, [r3, #0]
 8002bba:	683a      	ldr	r2, [r7, #0]
 8002bbc:	1ad3      	subs	r3, r2, r3
 8002bbe:	613b      	str	r3, [r7, #16]
            p_tmr2->PrevPtr         = (OS_TMR *)0;
 8002bc0:	697b      	ldr	r3, [r7, #20]
 8002bc2:	2200      	movs	r2, #0
 8002bc4:	611a      	str	r2, [r3, #16]
            p_tmr2->Remain         += p_tmr->Remain;            /* Add back the ticks to the delta                      */
 8002bc6:	697b      	ldr	r3, [r7, #20]
 8002bc8:	695a      	ldr	r2, [r3, #20]
 8002bca:	687b      	ldr	r3, [r7, #4]
 8002bcc:	695b      	ldr	r3, [r3, #20]
 8002bce:	441a      	add	r2, r3
 8002bd0:	697b      	ldr	r3, [r7, #20]
 8002bd2:	615a      	str	r2, [r3, #20]
            OSTmrListPtr            = p_tmr2;
 8002bd4:	4a2c      	ldr	r2, [pc, #176]	@ (8002c88 <OS_TmrUnlink+0x10c>)
 8002bd6:	697b      	ldr	r3, [r7, #20]
 8002bd8:	6013      	str	r3, [r2, #0]
            while ((elapsed >           0u) &&
 8002bda:	e01a      	b.n	8002c12 <OS_TmrUnlink+0x96>
                if (elapsed > p_tmr2->Remain) {
 8002bdc:	697b      	ldr	r3, [r7, #20]
 8002bde:	695b      	ldr	r3, [r3, #20]
 8002be0:	693a      	ldr	r2, [r7, #16]
 8002be2:	429a      	cmp	r2, r3
 8002be4:	d908      	bls.n	8002bf8 <OS_TmrUnlink+0x7c>
                    elapsed        -= p_tmr2->Remain;
 8002be6:	697b      	ldr	r3, [r7, #20]
 8002be8:	695b      	ldr	r3, [r3, #20]
 8002bea:	693a      	ldr	r2, [r7, #16]
 8002bec:	1ad3      	subs	r3, r2, r3
 8002bee:	613b      	str	r3, [r7, #16]
                    p_tmr2->Remain  = 0u;
 8002bf0:	697b      	ldr	r3, [r7, #20]
 8002bf2:	2200      	movs	r2, #0
 8002bf4:	615a      	str	r2, [r3, #20]
 8002bf6:	e007      	b.n	8002c08 <OS_TmrUnlink+0x8c>
                    p_tmr2->Remain -= elapsed;
 8002bf8:	697b      	ldr	r3, [r7, #20]
 8002bfa:	695a      	ldr	r2, [r3, #20]
 8002bfc:	693b      	ldr	r3, [r7, #16]
 8002bfe:	1ad2      	subs	r2, r2, r3
 8002c00:	697b      	ldr	r3, [r7, #20]
 8002c02:	615a      	str	r2, [r3, #20]
                    elapsed         = 0u;
 8002c04:	2300      	movs	r3, #0
 8002c06:	613b      	str	r3, [r7, #16]
                p_tmr1              = p_tmr2;
 8002c08:	697b      	ldr	r3, [r7, #20]
 8002c0a:	60fb      	str	r3, [r7, #12]
                p_tmr2              = p_tmr1->NextPtr;
 8002c0c:	68fb      	ldr	r3, [r7, #12]
 8002c0e:	68db      	ldr	r3, [r3, #12]
 8002c10:	617b      	str	r3, [r7, #20]
            while ((elapsed >           0u) &&
 8002c12:	693b      	ldr	r3, [r7, #16]
 8002c14:	2b00      	cmp	r3, #0
 8002c16:	d002      	beq.n	8002c1e <OS_TmrUnlink+0xa2>
 8002c18:	697b      	ldr	r3, [r7, #20]
 8002c1a:	2b00      	cmp	r3, #0
 8002c1c:	d1de      	bne.n	8002bdc <OS_TmrUnlink+0x60>
            if ((OSTmrListPtr->Remain != p_tmr->Remain) ||      /* Reload if new head has a different delay         ... */
 8002c1e:	4b1a      	ldr	r3, [pc, #104]	@ (8002c88 <OS_TmrUnlink+0x10c>)
 8002c20:	681b      	ldr	r3, [r3, #0]
 8002c22:	695a      	ldr	r2, [r3, #20]
 8002c24:	687b      	ldr	r3, [r7, #4]
 8002c26:	695b      	ldr	r3, [r3, #20]
 8002c28:	429a      	cmp	r2, r3
 8002c2a:	d104      	bne.n	8002c36 <OS_TmrUnlink+0xba>
                (OSTmrListPtr->Remain ==            0u)) {      /* ... or has already timed out.                        */
 8002c2c:	4b16      	ldr	r3, [pc, #88]	@ (8002c88 <OS_TmrUnlink+0x10c>)
 8002c2e:	681b      	ldr	r3, [r3, #0]
 8002c30:	695b      	ldr	r3, [r3, #20]
            if ((OSTmrListPtr->Remain != p_tmr->Remain) ||      /* Reload if new head has a different delay         ... */
 8002c32:	2b00      	cmp	r3, #0
 8002c34:	d104      	bne.n	8002c40 <OS_TmrUnlink+0xc4>
                OSTmrTaskTickBase   = time;
 8002c36:	4a15      	ldr	r2, [pc, #84]	@ (8002c8c <OS_TmrUnlink+0x110>)
 8002c38:	683b      	ldr	r3, [r7, #0]
 8002c3a:	6013      	str	r3, [r2, #0]
                OS_TmrCondSignal();
 8002c3c:	f000 f990 	bl	8002f60 <OS_TmrCondSignal>
            p_tmr->NextPtr          = (OS_TMR *)0;
 8002c40:	687b      	ldr	r3, [r7, #4]
 8002c42:	2200      	movs	r2, #0
 8002c44:	60da      	str	r2, [r3, #12]
            p_tmr->Remain           =           0u;
 8002c46:	687b      	ldr	r3, [r7, #4]
 8002c48:	2200      	movs	r2, #0
 8002c4a:	615a      	str	r2, [r3, #20]
}
 8002c4c:	e018      	b.n	8002c80 <OS_TmrUnlink+0x104>
        p_tmr1->NextPtr             = p_tmr2;
 8002c4e:	68fb      	ldr	r3, [r7, #12]
 8002c50:	697a      	ldr	r2, [r7, #20]
 8002c52:	60da      	str	r2, [r3, #12]
        if (p_tmr2 != (OS_TMR *)0) {
 8002c54:	697b      	ldr	r3, [r7, #20]
 8002c56:	2b00      	cmp	r3, #0
 8002c58:	d009      	beq.n	8002c6e <OS_TmrUnlink+0xf2>
            p_tmr2->PrevPtr         = p_tmr1;
 8002c5a:	697b      	ldr	r3, [r7, #20]
 8002c5c:	68fa      	ldr	r2, [r7, #12]
 8002c5e:	611a      	str	r2, [r3, #16]
            p_tmr2->Remain         += p_tmr->Remain;            /* Add back the ticks to the delta list                 */
 8002c60:	697b      	ldr	r3, [r7, #20]
 8002c62:	695a      	ldr	r2, [r3, #20]
 8002c64:	687b      	ldr	r3, [r7, #4]
 8002c66:	695b      	ldr	r3, [r3, #20]
 8002c68:	441a      	add	r2, r3
 8002c6a:	697b      	ldr	r3, [r7, #20]
 8002c6c:	615a      	str	r2, [r3, #20]
        p_tmr->PrevPtr              = (OS_TMR *)0;
 8002c6e:	687b      	ldr	r3, [r7, #4]
 8002c70:	2200      	movs	r2, #0
 8002c72:	611a      	str	r2, [r3, #16]
        p_tmr->NextPtr              = (OS_TMR *)0;
 8002c74:	687b      	ldr	r3, [r7, #4]
 8002c76:	2200      	movs	r2, #0
 8002c78:	60da      	str	r2, [r3, #12]
        p_tmr->Remain               =           0u;
 8002c7a:	687b      	ldr	r3, [r7, #4]
 8002c7c:	2200      	movs	r2, #0
 8002c7e:	615a      	str	r2, [r3, #20]
}
 8002c80:	bf00      	nop
 8002c82:	3718      	adds	r7, #24
 8002c84:	46bd      	mov	sp, r7
 8002c86:	bd80      	pop	{r7, pc}
 8002c88:	200010ac 	.word	0x200010ac
 8002c8c:	20001180 	.word	0x20001180

08002c90 <OS_TmrTask>:
*              3) Timer callbacks are allowed to make calls to the Timer APIs.
************************************************************************************************************************
*/

void  OS_TmrTask (void  *p_arg)
{
 8002c90:	b580      	push	{r7, lr}
 8002c92:	b088      	sub	sp, #32
 8002c94:	af00      	add	r7, sp, #0
 8002c96:	6078      	str	r0, [r7, #4]
    OS_TICK               elapsed;
    OS_TICK               time;
#if (OS_CFG_TS_EN > 0u)
    CPU_TS                ts_start;
#endif
    CPU_SR_ALLOC();
 8002c98:	2300      	movs	r3, #0
 8002c9a:	613b      	str	r3, [r7, #16]


    (void)p_arg;                                                /* Not using 'p_arg', prevent compiler warning          */

    OS_TmrLock();
 8002c9c:	f000 f89a 	bl	8002dd4 <OS_TmrLock>

    for (;;) {
        if (OSTmrListPtr == (OS_TMR *)0) {
 8002ca0:	4b49      	ldr	r3, [pc, #292]	@ (8002dc8 <OS_TmrTask+0x138>)
 8002ca2:	681b      	ldr	r3, [r3, #0]
 8002ca4:	2b00      	cmp	r3, #0
 8002ca6:	d102      	bne.n	8002cae <OS_TmrTask+0x1e>
            timeout                = 0u;
 8002ca8:	2300      	movs	r3, #0
 8002caa:	61bb      	str	r3, [r7, #24]
 8002cac:	e003      	b.n	8002cb6 <OS_TmrTask+0x26>
        } else {
            timeout                = OSTmrListPtr->Remain;
 8002cae:	4b46      	ldr	r3, [pc, #280]	@ (8002dc8 <OS_TmrTask+0x138>)
 8002cb0:	681b      	ldr	r3, [r3, #0]
 8002cb2:	695b      	ldr	r3, [r3, #20]
 8002cb4:	61bb      	str	r3, [r7, #24]
        }

        OS_TmrCondWait(timeout);                                /* Suspend the timer task until it needs to process ... */
 8002cb6:	69b8      	ldr	r0, [r7, #24]
 8002cb8:	f000 f8c0 	bl	8002e3c <OS_TmrCondWait>
                                                                /* ... the timer list again. Also release the mutex ... */
                                                                /* ... so that application tasks can add/remove timers. */

        if (OSTmrListPtr == (OS_TMR *)0) {                      /* Suppresses static analyzer warnings.                 */
 8002cbc:	4b42      	ldr	r3, [pc, #264]	@ (8002dc8 <OS_TmrTask+0x138>)
 8002cbe:	681b      	ldr	r3, [r3, #0]
 8002cc0:	2b00      	cmp	r3, #0
 8002cc2:	d07f      	beq.n	8002dc4 <OS_TmrTask+0x134>

#if (OS_CFG_TS_EN > 0u)
        ts_start = OS_TS_GET();
#endif

        CPU_CRITICAL_ENTER();
 8002cc4:	2040      	movs	r0, #64	@ 0x40
 8002cc6:	f7fd fa83 	bl	80001d0 <CPU_SR_Save>
 8002cca:	6138      	str	r0, [r7, #16]
#if (OS_CFG_DYN_TICK_EN > 0u)
        time                       = OSTickCtr + OS_DynTickGet();
#else
        time                       = OSTickCtr;
 8002ccc:	4b3f      	ldr	r3, [pc, #252]	@ (8002dcc <OS_TmrTask+0x13c>)
 8002cce:	681b      	ldr	r3, [r3, #0]
 8002cd0:	60fb      	str	r3, [r7, #12]
#endif
        CPU_CRITICAL_EXIT();
 8002cd2:	6938      	ldr	r0, [r7, #16]
 8002cd4:	f7fd fa8a 	bl	80001ec <CPU_SR_Restore>
        elapsed                    = time - OSTmrTaskTickBase;
 8002cd8:	4b3d      	ldr	r3, [pc, #244]	@ (8002dd0 <OS_TmrTask+0x140>)
 8002cda:	681b      	ldr	r3, [r3, #0]
 8002cdc:	68fa      	ldr	r2, [r7, #12]
 8002cde:	1ad3      	subs	r3, r2, r3
 8002ce0:	617b      	str	r3, [r7, #20]
        OSTmrTaskTickBase          = time;
 8002ce2:	4a3b      	ldr	r2, [pc, #236]	@ (8002dd0 <OS_TmrTask+0x140>)
 8002ce4:	68fb      	ldr	r3, [r7, #12]
 8002ce6:	6013      	str	r3, [r2, #0]

                                                                /* Update the delta values.                             */
        p_tmr = OSTmrListPtr;
 8002ce8:	4b37      	ldr	r3, [pc, #220]	@ (8002dc8 <OS_TmrTask+0x138>)
 8002cea:	681b      	ldr	r3, [r3, #0]
 8002cec:	61fb      	str	r3, [r7, #28]
        while ((elapsed !=          0u) &&
 8002cee:	e018      	b.n	8002d22 <OS_TmrTask+0x92>
               (p_tmr   != (OS_TMR *)0)) {

            if (elapsed > p_tmr->Remain) {
 8002cf0:	69fb      	ldr	r3, [r7, #28]
 8002cf2:	695b      	ldr	r3, [r3, #20]
 8002cf4:	697a      	ldr	r2, [r7, #20]
 8002cf6:	429a      	cmp	r2, r3
 8002cf8:	d908      	bls.n	8002d0c <OS_TmrTask+0x7c>
                elapsed           -= p_tmr->Remain;
 8002cfa:	69fb      	ldr	r3, [r7, #28]
 8002cfc:	695b      	ldr	r3, [r3, #20]
 8002cfe:	697a      	ldr	r2, [r7, #20]
 8002d00:	1ad3      	subs	r3, r2, r3
 8002d02:	617b      	str	r3, [r7, #20]
                p_tmr->Remain      = 0u;
 8002d04:	69fb      	ldr	r3, [r7, #28]
 8002d06:	2200      	movs	r2, #0
 8002d08:	615a      	str	r2, [r3, #20]
 8002d0a:	e007      	b.n	8002d1c <OS_TmrTask+0x8c>
            } else {
                p_tmr->Remain     -= elapsed;
 8002d0c:	69fb      	ldr	r3, [r7, #28]
 8002d0e:	695a      	ldr	r2, [r3, #20]
 8002d10:	697b      	ldr	r3, [r7, #20]
 8002d12:	1ad2      	subs	r2, r2, r3
 8002d14:	69fb      	ldr	r3, [r7, #28]
 8002d16:	615a      	str	r2, [r3, #20]
                elapsed            = 0u;
 8002d18:	2300      	movs	r3, #0
 8002d1a:	617b      	str	r3, [r7, #20]
            }

            p_tmr                  = p_tmr->NextPtr;
 8002d1c:	69fb      	ldr	r3, [r7, #28]
 8002d1e:	68db      	ldr	r3, [r3, #12]
 8002d20:	61fb      	str	r3, [r7, #28]
        while ((elapsed !=          0u) &&
 8002d22:	697b      	ldr	r3, [r7, #20]
 8002d24:	2b00      	cmp	r3, #0
 8002d26:	d002      	beq.n	8002d2e <OS_TmrTask+0x9e>
 8002d28:	69fb      	ldr	r3, [r7, #28]
 8002d2a:	2b00      	cmp	r3, #0
 8002d2c:	d1e0      	bne.n	8002cf0 <OS_TmrTask+0x60>
        }

                                                                /* Process timers that have expired.                    */
        p_tmr                      = OSTmrListPtr;
 8002d2e:	4b26      	ldr	r3, [pc, #152]	@ (8002dc8 <OS_TmrTask+0x138>)
 8002d30:	681b      	ldr	r3, [r3, #0]
 8002d32:	61fb      	str	r3, [r7, #28]

        while ((p_tmr         != (OS_TMR *)0) &&
 8002d34:	e03d      	b.n	8002db2 <OS_TmrTask+0x122>
               (p_tmr->Remain ==          0u)) {
            p_tmr->State           = OS_TMR_STATE_TIMEOUT;
 8002d36:	69fb      	ldr	r3, [r7, #28]
 8002d38:	2204      	movs	r2, #4
 8002d3a:	f883 2022 	strb.w	r2, [r3, #34]	@ 0x22
                                                                /* Execute callback function if available               */
            p_fnct                 = p_tmr->CallbackPtr;
 8002d3e:	69fb      	ldr	r3, [r7, #28]
 8002d40:	685b      	ldr	r3, [r3, #4]
 8002d42:	60bb      	str	r3, [r7, #8]
            if (p_fnct != (OS_TMR_CALLBACK_PTR)0u) {
 8002d44:	68bb      	ldr	r3, [r7, #8]
 8002d46:	2b00      	cmp	r3, #0
 8002d48:	d005      	beq.n	8002d56 <OS_TmrTask+0xc6>
                (*p_fnct)(p_tmr, p_tmr->CallbackPtrArg);
 8002d4a:	69fb      	ldr	r3, [r7, #28]
 8002d4c:	689a      	ldr	r2, [r3, #8]
 8002d4e:	68bb      	ldr	r3, [r7, #8]
 8002d50:	4611      	mov	r1, r2
 8002d52:	69f8      	ldr	r0, [r7, #28]
 8002d54:	4798      	blx	r3
            }

            if (p_tmr->State == OS_TMR_STATE_TIMEOUT) {
 8002d56:	69fb      	ldr	r3, [r7, #28]
 8002d58:	f893 3022 	ldrb.w	r3, [r3, #34]	@ 0x22
 8002d5c:	2b04      	cmp	r3, #4
 8002d5e:	d125      	bne.n	8002dac <OS_TmrTask+0x11c>
                OS_TmrUnlink(p_tmr, OSTmrTaskTickBase);
 8002d60:	4b1b      	ldr	r3, [pc, #108]	@ (8002dd0 <OS_TmrTask+0x140>)
 8002d62:	681b      	ldr	r3, [r3, #0]
 8002d64:	4619      	mov	r1, r3
 8002d66:	69f8      	ldr	r0, [r7, #28]
 8002d68:	f7ff ff08 	bl	8002b7c <OS_TmrUnlink>

                if (p_tmr->Opt == OS_OPT_TMR_PERIODIC) {
 8002d6c:	69fb      	ldr	r3, [r7, #28]
 8002d6e:	8c1b      	ldrh	r3, [r3, #32]
 8002d70:	2b02      	cmp	r3, #2
 8002d72:	d10e      	bne.n	8002d92 <OS_TmrTask+0x102>
                    p_tmr->State   = OS_TMR_STATE_RUNNING;
 8002d74:	69fb      	ldr	r3, [r7, #28]
 8002d76:	2202      	movs	r2, #2
 8002d78:	f883 2022 	strb.w	r2, [r3, #34]	@ 0x22
                    p_tmr->Remain  = p_tmr->Period;
 8002d7c:	69fb      	ldr	r3, [r7, #28]
 8002d7e:	69da      	ldr	r2, [r3, #28]
 8002d80:	69fb      	ldr	r3, [r7, #28]
 8002d82:	615a      	str	r2, [r3, #20]
                    OS_TmrLink(p_tmr, OSTmrTaskTickBase);
 8002d84:	4b12      	ldr	r3, [pc, #72]	@ (8002dd0 <OS_TmrTask+0x140>)
 8002d86:	681b      	ldr	r3, [r3, #0]
 8002d88:	4619      	mov	r1, r3
 8002d8a:	69f8      	ldr	r0, [r7, #28]
 8002d8c:	f7ff fe66 	bl	8002a5c <OS_TmrLink>
 8002d90:	e00c      	b.n	8002dac <OS_TmrTask+0x11c>
                } else {
                    p_tmr->PrevPtr = (OS_TMR *)0;
 8002d92:	69fb      	ldr	r3, [r7, #28]
 8002d94:	2200      	movs	r2, #0
 8002d96:	611a      	str	r2, [r3, #16]
                    p_tmr->NextPtr = (OS_TMR *)0;
 8002d98:	69fb      	ldr	r3, [r7, #28]
 8002d9a:	2200      	movs	r2, #0
 8002d9c:	60da      	str	r2, [r3, #12]
                    p_tmr->Remain  = 0u;
 8002d9e:	69fb      	ldr	r3, [r7, #28]
 8002da0:	2200      	movs	r2, #0
 8002da2:	615a      	str	r2, [r3, #20]
                    p_tmr->State   = OS_TMR_STATE_COMPLETED;
 8002da4:	69fb      	ldr	r3, [r7, #28]
 8002da6:	2203      	movs	r2, #3
 8002da8:	f883 2022 	strb.w	r2, [r3, #34]	@ 0x22
                }
            }

            p_tmr                  = OSTmrListPtr;
 8002dac:	4b06      	ldr	r3, [pc, #24]	@ (8002dc8 <OS_TmrTask+0x138>)
 8002dae:	681b      	ldr	r3, [r3, #0]
 8002db0:	61fb      	str	r3, [r7, #28]
        while ((p_tmr         != (OS_TMR *)0) &&
 8002db2:	69fb      	ldr	r3, [r7, #28]
 8002db4:	2b00      	cmp	r3, #0
 8002db6:	f43f af73 	beq.w	8002ca0 <OS_TmrTask+0x10>
               (p_tmr->Remain ==          0u)) {
 8002dba:	69fb      	ldr	r3, [r7, #28]
 8002dbc:	695b      	ldr	r3, [r3, #20]
        while ((p_tmr         != (OS_TMR *)0) &&
 8002dbe:	2b00      	cmp	r3, #0
 8002dc0:	d0b9      	beq.n	8002d36 <OS_TmrTask+0xa6>
 8002dc2:	e76d      	b.n	8002ca0 <OS_TmrTask+0x10>
            continue;
 8002dc4:	bf00      	nop
        if (OSTmrListPtr == (OS_TMR *)0) {
 8002dc6:	e76b      	b.n	8002ca0 <OS_TmrTask+0x10>
 8002dc8:	200010ac 	.word	0x200010ac
 8002dcc:	200010a4 	.word	0x200010a4
 8002dd0:	20001180 	.word	0x20001180

08002dd4 <OS_TmrLock>:
* Note(s)    : 1) These functions are INTERNAL to uC/OS-III and your application MUST NOT call them.
************************************************************************************************************************
*/

static  void  OS_TmrLock (void)
{
 8002dd4:	b580      	push	{r7, lr}
 8002dd6:	b084      	sub	sp, #16
 8002dd8:	af02      	add	r7, sp, #8
    OS_ERR  err;


    OSMutexPend(&OSTmrMutex, 0u, OS_OPT_PEND_BLOCKING, (CPU_TS *)0, &err);
 8002dda:	1dbb      	adds	r3, r7, #6
 8002ddc:	9300      	str	r3, [sp, #0]
 8002dde:	2300      	movs	r3, #0
 8002de0:	2200      	movs	r2, #0
 8002de2:	2100      	movs	r1, #0
 8002de4:	4803      	ldr	r0, [pc, #12]	@ (8002df4 <OS_TmrLock+0x20>)
 8002de6:	f7fe fbd9 	bl	800159c <OSMutexPend>
}
 8002dea:	bf00      	nop
 8002dec:	3708      	adds	r7, #8
 8002dee:	46bd      	mov	sp, r7
 8002df0:	bd80      	pop	{r7, pc}
 8002df2:	bf00      	nop
 8002df4:	200010c0 	.word	0x200010c0

08002df8 <OS_TmrCondCreate>:
* Note(s)    : 1) This function is INTERNAL to uC/OS-III and your application MUST NOT call it.
************************************************************************************************************************
*/

static  void  OS_TmrCondCreate (void)
{
 8002df8:	b580      	push	{r7, lr}
 8002dfa:	b082      	sub	sp, #8
 8002dfc:	af00      	add	r7, sp, #0
    CPU_SR_ALLOC();
 8002dfe:	2300      	movs	r3, #0
 8002e00:	607b      	str	r3, [r7, #4]


    CPU_CRITICAL_ENTER();
 8002e02:	2040      	movs	r0, #64	@ 0x40
 8002e04:	f7fd f9e4 	bl	80001d0 <CPU_SR_Save>
 8002e08:	6078      	str	r0, [r7, #4]
#if (OS_OBJ_TYPE_REQ > 0u)
    OSTmrCond.Type  = OS_OBJ_TYPE_COND;                         /* Mark the data structure as a condition variable.     */
 8002e0a:	4b08      	ldr	r3, [pc, #32]	@ (8002e2c <OS_TmrCondCreate+0x34>)
 8002e0c:	4a08      	ldr	r2, [pc, #32]	@ (8002e30 <OS_TmrCondCreate+0x38>)
 8002e0e:	601a      	str	r2, [r3, #0]
#endif
    OSTmrCond.Mutex = &OSTmrMutex;                              /* Bind the timer mutex to the condition variable.      */
 8002e10:	4b06      	ldr	r3, [pc, #24]	@ (8002e2c <OS_TmrCondCreate+0x34>)
 8002e12:	4a08      	ldr	r2, [pc, #32]	@ (8002e34 <OS_TmrCondCreate+0x3c>)
 8002e14:	60da      	str	r2, [r3, #12]
    OS_PendListInit(&OSTmrCond.PendList);                       /* Initialize the waiting list                          */
 8002e16:	4808      	ldr	r0, [pc, #32]	@ (8002e38 <OS_TmrCondCreate+0x40>)
 8002e18:	f7fd ffd0 	bl	8000dbc <OS_PendListInit>
    CPU_CRITICAL_EXIT();
 8002e1c:	6878      	ldr	r0, [r7, #4]
 8002e1e:	f7fd f9e5 	bl	80001ec <CPU_SR_Restore>
}
 8002e22:	bf00      	nop
 8002e24:	3708      	adds	r7, #8
 8002e26:	46bd      	mov	sp, r7
 8002e28:	bd80      	pop	{r7, pc}
 8002e2a:	bf00      	nop
 8002e2c:	200010b0 	.word	0x200010b0
 8002e30:	444e4f43 	.word	0x444e4f43
 8002e34:	200010c0 	.word	0x200010c0
 8002e38:	200010b4 	.word	0x200010b4

08002e3c <OS_TmrCondWait>:
* Note(s)    : 1) This function is INTERNAL to uC/OS-III and your application MUST NOT call it.
************************************************************************************************************************
*/

static  void  OS_TmrCondWait (OS_TICK  timeout)
{
 8002e3c:	b580      	push	{r7, lr}
 8002e3e:	b088      	sub	sp, #32
 8002e40:	af02      	add	r7, sp, #8
 8002e42:	6078      	str	r0, [r7, #4]
    OS_TCB        *p_tcb;
    OS_PEND_LIST  *p_pend_list;
    CPU_TS         ts;
    CPU_SR_ALLOC();
 8002e44:	2300      	movs	r3, #0
 8002e46:	617b      	str	r3, [r7, #20]


    CPU_CRITICAL_ENTER();
 8002e48:	2040      	movs	r0, #64	@ 0x40
 8002e4a:	f7fd f9c1 	bl	80001d0 <CPU_SR_Save>
 8002e4e:	6178      	str	r0, [r7, #20]
#if (OS_CFG_TS_EN > 0u)
    ts             = OS_TS_GET();                               /* Get timestamp                                        */
    OSTmrMutex.TS  = ts;
#else
    ts             = 0u;
 8002e50:	2300      	movs	r3, #0
 8002e52:	613b      	str	r3, [r7, #16]
#endif
                                                                /* Release mutex to other tasks.                        */
    OS_MutexGrpRemove(&OSTmrTaskTCB, &OSTmrMutex);
 8002e54:	493d      	ldr	r1, [pc, #244]	@ (8002f4c <OS_TmrCondWait+0x110>)
 8002e56:	483e      	ldr	r0, [pc, #248]	@ (8002f50 <OS_TmrCondWait+0x114>)
 8002e58:	f7fe fc9e 	bl	8001798 <OS_MutexGrpRemove>
    p_pend_list                    = &OSTmrMutex.PendList;
 8002e5c:	4b3d      	ldr	r3, [pc, #244]	@ (8002f54 <OS_TmrCondWait+0x118>)
 8002e5e:	60fb      	str	r3, [r7, #12]

    if (OSTmrTaskTCB.Prio != OSTmrTaskTCB.BasePrio) {           /* Restore our original prio.                           */
 8002e60:	4b3b      	ldr	r3, [pc, #236]	@ (8002f50 <OS_TmrCondWait+0x114>)
 8002e62:	f893 202f 	ldrb.w	r2, [r3, #47]	@ 0x2f
 8002e66:	4b3a      	ldr	r3, [pc, #232]	@ (8002f50 <OS_TmrCondWait+0x114>)
 8002e68:	f893 3030 	ldrb.w	r3, [r3, #48]	@ 0x30
 8002e6c:	429a      	cmp	r2, r3
 8002e6e:	d00a      	beq.n	8002e86 <OS_TmrCondWait+0x4a>
        OS_TRACE_MUTEX_TASK_PRIO_DISINHERIT(&OSTmrTaskTCB, OSTmrTaskTCB.Prio);
        OSTmrTaskTCB.Prio          = OSTmrTaskTCB.BasePrio;
 8002e70:	4b37      	ldr	r3, [pc, #220]	@ (8002f50 <OS_TmrCondWait+0x114>)
 8002e72:	f893 2030 	ldrb.w	r2, [r3, #48]	@ 0x30
 8002e76:	4b36      	ldr	r3, [pc, #216]	@ (8002f50 <OS_TmrCondWait+0x114>)
 8002e78:	f883 202f 	strb.w	r2, [r3, #47]	@ 0x2f
        OSPrioCur                  = OSTmrTaskTCB.BasePrio;
 8002e7c:	4b34      	ldr	r3, [pc, #208]	@ (8002f50 <OS_TmrCondWait+0x114>)
 8002e7e:	f893 2030 	ldrb.w	r2, [r3, #48]	@ 0x30
 8002e82:	4b35      	ldr	r3, [pc, #212]	@ (8002f58 <OS_TmrCondWait+0x11c>)
 8002e84:	701a      	strb	r2, [r3, #0]
    }

    if (p_pend_list->HeadPtr == (OS_TCB *)0) {                  /* Any task waiting on mutex?                           */
 8002e86:	68fb      	ldr	r3, [r7, #12]
 8002e88:	681b      	ldr	r3, [r3, #0]
 8002e8a:	2b00      	cmp	r3, #0
 8002e8c:	d106      	bne.n	8002e9c <OS_TmrCondWait+0x60>
        OSTmrMutex.OwnerTCBPtr     = (OS_TCB *)0;               /* No                                                   */
 8002e8e:	4b2f      	ldr	r3, [pc, #188]	@ (8002f4c <OS_TmrCondWait+0x110>)
 8002e90:	2200      	movs	r2, #0
 8002e92:	611a      	str	r2, [r3, #16]
        OSTmrMutex.OwnerNestingCtr =           0u;
 8002e94:	4b2d      	ldr	r3, [pc, #180]	@ (8002f4c <OS_TmrCondWait+0x110>)
 8002e96:	2200      	movs	r2, #0
 8002e98:	751a      	strb	r2, [r3, #20]
 8002e9a:	e014      	b.n	8002ec6 <OS_TmrCondWait+0x8a>
    } else {
        p_tcb                      = p_pend_list->HeadPtr;      /* Yes, give mutex to new owner                         */
 8002e9c:	68fb      	ldr	r3, [r7, #12]
 8002e9e:	681b      	ldr	r3, [r3, #0]
 8002ea0:	60bb      	str	r3, [r7, #8]
        OSTmrMutex.OwnerTCBPtr     = p_tcb;
 8002ea2:	4a2a      	ldr	r2, [pc, #168]	@ (8002f4c <OS_TmrCondWait+0x110>)
 8002ea4:	68bb      	ldr	r3, [r7, #8]
 8002ea6:	6113      	str	r3, [r2, #16]
        OSTmrMutex.OwnerNestingCtr =           1u;
 8002ea8:	4b28      	ldr	r3, [pc, #160]	@ (8002f4c <OS_TmrCondWait+0x110>)
 8002eaa:	2201      	movs	r2, #1
 8002eac:	751a      	strb	r2, [r3, #20]
        OS_MutexGrpAdd(p_tcb, &OSTmrMutex);
 8002eae:	4927      	ldr	r1, [pc, #156]	@ (8002f4c <OS_TmrCondWait+0x110>)
 8002eb0:	68b8      	ldr	r0, [r7, #8]
 8002eb2:	f7fe fc5f 	bl	8001774 <OS_MutexGrpAdd>
                                                                /* Post to mutex                                        */
        OS_Post((OS_PEND_OBJ *)((void *)&OSTmrMutex),
 8002eb6:	693b      	ldr	r3, [r7, #16]
 8002eb8:	9300      	str	r3, [sp, #0]
 8002eba:	2300      	movs	r3, #0
 8002ebc:	2200      	movs	r2, #0
 8002ebe:	68b9      	ldr	r1, [r7, #8]
 8002ec0:	4822      	ldr	r0, [pc, #136]	@ (8002f4c <OS_TmrCondWait+0x110>)
 8002ec2:	f7fe f83d 	bl	8000f40 <OS_Post>
                                (void *) 0,
                                         0u,
                                         ts);
    }

    OS_Pend((OS_PEND_OBJ *)((void *)&OSTmrCond),                /* Pend on the condition variable.                      */
 8002ec6:	687b      	ldr	r3, [r7, #4]
 8002ec8:	2203      	movs	r2, #3
 8002eca:	4921      	ldr	r1, [pc, #132]	@ (8002f50 <OS_TmrCondWait+0x114>)
 8002ecc:	4823      	ldr	r0, [pc, #140]	@ (8002f5c <OS_TmrCondWait+0x120>)
 8002ece:	f7fd ff2f 	bl	8000d30 <OS_Pend>
                                   &OSTmrTaskTCB,
                                    OS_TASK_PEND_ON_COND,
                                    timeout);
    CPU_CRITICAL_EXIT();
 8002ed2:	6978      	ldr	r0, [r7, #20]
 8002ed4:	f7fd f98a 	bl	80001ec <CPU_SR_Restore>

    OSSched();
 8002ed8:	f7fd fe2c 	bl	8000b34 <OSSched>

    CPU_CRITICAL_ENTER();                                       /* Either we timed out, or were signaled.               */
 8002edc:	2040      	movs	r0, #64	@ 0x40
 8002ede:	f7fd f977 	bl	80001d0 <CPU_SR_Save>
 8002ee2:	6178      	str	r0, [r7, #20]

    if (OSTmrMutex.OwnerTCBPtr == (OS_TCB *)0) {                /* Can we grab the mutex?                               */
 8002ee4:	4b19      	ldr	r3, [pc, #100]	@ (8002f4c <OS_TmrCondWait+0x110>)
 8002ee6:	691b      	ldr	r3, [r3, #16]
 8002ee8:	2b00      	cmp	r3, #0
 8002eea:	d10d      	bne.n	8002f08 <OS_TmrCondWait+0xcc>
        OS_MutexGrpAdd(&OSTmrTaskTCB, &OSTmrMutex);             /* Yes, no-one else pending.                            */
 8002eec:	4917      	ldr	r1, [pc, #92]	@ (8002f4c <OS_TmrCondWait+0x110>)
 8002eee:	4818      	ldr	r0, [pc, #96]	@ (8002f50 <OS_TmrCondWait+0x114>)
 8002ef0:	f7fe fc40 	bl	8001774 <OS_MutexGrpAdd>
        OSTmrMutex.OwnerTCBPtr     = &OSTmrTaskTCB;
 8002ef4:	4b15      	ldr	r3, [pc, #84]	@ (8002f4c <OS_TmrCondWait+0x110>)
 8002ef6:	4a16      	ldr	r2, [pc, #88]	@ (8002f50 <OS_TmrCondWait+0x114>)
 8002ef8:	611a      	str	r2, [r3, #16]
        OSTmrMutex.OwnerNestingCtr = 1u;
 8002efa:	4b14      	ldr	r3, [pc, #80]	@ (8002f4c <OS_TmrCondWait+0x110>)
 8002efc:	2201      	movs	r2, #1
 8002efe:	751a      	strb	r2, [r3, #20]
        CPU_CRITICAL_EXIT();
 8002f00:	6978      	ldr	r0, [r7, #20]
 8002f02:	f7fd f973 	bl	80001ec <CPU_SR_Restore>
                                         0u);
        CPU_CRITICAL_EXIT();

        OSSched();
    }
}
 8002f06:	e01c      	b.n	8002f42 <OS_TmrCondWait+0x106>
        p_tcb = OSTmrMutex.OwnerTCBPtr;                         /* No, we need to wait for it.                          */
 8002f08:	4b10      	ldr	r3, [pc, #64]	@ (8002f4c <OS_TmrCondWait+0x110>)
 8002f0a:	691b      	ldr	r3, [r3, #16]
 8002f0c:	60bb      	str	r3, [r7, #8]
        if (p_tcb->Prio > OSTmrTaskTCB.Prio) {                  /* See if mutex owner has a lower priority than TmrTask.*/
 8002f0e:	68bb      	ldr	r3, [r7, #8]
 8002f10:	f893 202f 	ldrb.w	r2, [r3, #47]	@ 0x2f
 8002f14:	4b0e      	ldr	r3, [pc, #56]	@ (8002f50 <OS_TmrCondWait+0x114>)
 8002f16:	f893 302f 	ldrb.w	r3, [r3, #47]	@ 0x2f
 8002f1a:	429a      	cmp	r2, r3
 8002f1c:	d906      	bls.n	8002f2c <OS_TmrCondWait+0xf0>
            OS_TaskChangePrio(p_tcb, OSTmrTaskTCB.Prio);
 8002f1e:	4b0c      	ldr	r3, [pc, #48]	@ (8002f50 <OS_TmrCondWait+0x114>)
 8002f20:	f893 302f 	ldrb.w	r3, [r3, #47]	@ 0x2f
 8002f24:	4619      	mov	r1, r3
 8002f26:	68b8      	ldr	r0, [r7, #8]
 8002f28:	f7ff f9b6 	bl	8002298 <OS_TaskChangePrio>
        OS_Pend((OS_PEND_OBJ *)((void *)&OSTmrMutex),           /* Block TmrTask until it gets the Mutex.               */
 8002f2c:	2300      	movs	r3, #0
 8002f2e:	2204      	movs	r2, #4
 8002f30:	4907      	ldr	r1, [pc, #28]	@ (8002f50 <OS_TmrCondWait+0x114>)
 8002f32:	4806      	ldr	r0, [pc, #24]	@ (8002f4c <OS_TmrCondWait+0x110>)
 8002f34:	f7fd fefc 	bl	8000d30 <OS_Pend>
        CPU_CRITICAL_EXIT();
 8002f38:	6978      	ldr	r0, [r7, #20]
 8002f3a:	f7fd f957 	bl	80001ec <CPU_SR_Restore>
        OSSched();
 8002f3e:	f7fd fdf9 	bl	8000b34 <OSSched>
}
 8002f42:	bf00      	nop
 8002f44:	3718      	adds	r7, #24
 8002f46:	46bd      	mov	sp, r7
 8002f48:	bd80      	pop	{r7, pc}
 8002f4a:	bf00      	nop
 8002f4c:	200010c0 	.word	0x200010c0
 8002f50:	200010d8 	.word	0x200010d8
 8002f54:	200010c4 	.word	0x200010c4
 8002f58:	20000dc8 	.word	0x20000dc8
 8002f5c:	200010b0 	.word	0x200010b0

08002f60 <OS_TmrCondSignal>:
* Note(s)    : 1) This function is INTERNAL to uC/OS-III and your application MUST NOT call it.
************************************************************************************************************************
*/

static  void  OS_TmrCondSignal (void)
{
 8002f60:	b580      	push	{r7, lr}
 8002f62:	b086      	sub	sp, #24
 8002f64:	af02      	add	r7, sp, #8
    OS_PEND_LIST  *p_pend_list;
    CPU_TS         ts;
    CPU_SR_ALLOC();
 8002f66:	2300      	movs	r3, #0
 8002f68:	60fb      	str	r3, [r7, #12]


    CPU_CRITICAL_ENTER();
 8002f6a:	2040      	movs	r0, #64	@ 0x40
 8002f6c:	f7fd f930 	bl	80001d0 <CPU_SR_Save>
 8002f70:	60f8      	str	r0, [r7, #12]
#if (OS_CFG_TS_EN > 0u)
    ts             = OS_TS_GET();                               /* Get timestamp                                        */
    OSTmrMutex.TS  = ts;
#else
    ts             = 0u;
 8002f72:	2300      	movs	r3, #0
 8002f74:	60bb      	str	r3, [r7, #8]
#endif

    p_pend_list    = &OSTmrCond.PendList;
 8002f76:	4b0c      	ldr	r3, [pc, #48]	@ (8002fa8 <OS_TmrCondSignal+0x48>)
 8002f78:	607b      	str	r3, [r7, #4]

    if (p_pend_list->HeadPtr == (OS_TCB *)0) {                  /* Timer task waiting on cond?                          */
 8002f7a:	687b      	ldr	r3, [r7, #4]
 8002f7c:	681b      	ldr	r3, [r3, #0]
 8002f7e:	2b00      	cmp	r3, #0
 8002f80:	d103      	bne.n	8002f8a <OS_TmrCondSignal+0x2a>
        CPU_CRITICAL_EXIT();
 8002f82:	68f8      	ldr	r0, [r7, #12]
 8002f84:	f7fd f932 	bl	80001ec <CPU_SR_Restore>
        return;                                                 /* No, nothing to signal.                               */
 8002f88:	e00a      	b.n	8002fa0 <OS_TmrCondSignal+0x40>
    } else {
                                                                /* Yes, signal the timer task.                          */
        OS_Post((OS_PEND_OBJ *)((void *)&OSTmrCond),
 8002f8a:	68bb      	ldr	r3, [r7, #8]
 8002f8c:	9300      	str	r3, [sp, #0]
 8002f8e:	2300      	movs	r3, #0
 8002f90:	2200      	movs	r2, #0
 8002f92:	4906      	ldr	r1, [pc, #24]	@ (8002fac <OS_TmrCondSignal+0x4c>)
 8002f94:	4806      	ldr	r0, [pc, #24]	@ (8002fb0 <OS_TmrCondSignal+0x50>)
 8002f96:	f7fd ffd3 	bl	8000f40 <OS_Post>
                                (void *) 0,
                                         0u,
                                         ts);
    }

    CPU_CRITICAL_EXIT();
 8002f9a:	68f8      	ldr	r0, [r7, #12]
 8002f9c:	f7fd f926 	bl	80001ec <CPU_SR_Restore>
}
 8002fa0:	3710      	adds	r7, #16
 8002fa2:	46bd      	mov	sp, r7
 8002fa4:	bd80      	pop	{r7, pc}
 8002fa6:	bf00      	nop
 8002fa8:	200010b4 	.word	0x200010b4
 8002fac:	200010d8 	.word	0x200010d8
 8002fb0:	200010b0 	.word	0x200010b0

08002fb4 <HAL_Init>:
  *         need to ensure that the SysTick time base is always set to 1 millisecond
  *         to have correct HAL operation.
  * @retval HAL status
  */
HAL_StatusTypeDef HAL_Init(void)
{
 8002fb4:	b580      	push	{r7, lr}
 8002fb6:	af00      	add	r7, sp, #0
  /* Configure Flash prefetch, Instruction cache, Data cache */ 
#if (INSTRUCTION_CACHE_ENABLE != 0U)
   __HAL_FLASH_INSTRUCTION_CACHE_ENABLE();
 8002fb8:	4b0e      	ldr	r3, [pc, #56]	@ (8002ff4 <HAL_Init+0x40>)
 8002fba:	681b      	ldr	r3, [r3, #0]
 8002fbc:	4a0d      	ldr	r2, [pc, #52]	@ (8002ff4 <HAL_Init+0x40>)
 8002fbe:	f443 7300 	orr.w	r3, r3, #512	@ 0x200
 8002fc2:	6013      	str	r3, [r2, #0]
#endif /* INSTRUCTION_CACHE_ENABLE */

#if (DATA_CACHE_ENABLE != 0U)
   __HAL_FLASH_DATA_CACHE_ENABLE();
 8002fc4:	4b0b      	ldr	r3, [pc, #44]	@ (8002ff4 <HAL_Init+0x40>)
 8002fc6:	681b      	ldr	r3, [r3, #0]
 8002fc8:	4a0a      	ldr	r2, [pc, #40]	@ (8002ff4 <HAL_Init+0x40>)
 8002fca:	f443 6380 	orr.w	r3, r3, #1024	@ 0x400
 8002fce:	6013      	str	r3, [r2, #0]
#endif /* DATA_CACHE_ENABLE */

#if (PREFETCH_ENABLE != 0U)
  __HAL_FLASH_PREFETCH_BUFFER_ENABLE();
 8002fd0:	4b08      	ldr	r3, [pc, #32]	@ (8002ff4 <HAL_Init+0x40>)
 8002fd2:	681b      	ldr	r3, [r3, #0]
 8002fd4:	4a07      	ldr	r2, [pc, #28]	@ (8002ff4 <HAL_Init+0x40>)
 8002fd6:	f443 7380 	orr.w	r3, r3, #256	@ 0x100
 8002fda:	6013      	str	r3, [r2, #0]
#endif /* PREFETCH_ENABLE */

  /* Set Interrupt Group Priority */
  HAL_NVIC_SetPriorityGrouping(NVIC_PRIORITYGROUP_4);
 8002fdc:	2003      	movs	r0, #3
 8002fde:	f000 f8f9 	bl	80031d4 <HAL_NVIC_SetPriorityGrouping>

  /* Use systick as time base source and configure 1ms tick (default clock after Reset is HSI) */
  HAL_InitTick(TICK_INT_PRIORITY);
 8002fe2:	200f      	movs	r0, #15
 8002fe4:	f000 f810 	bl	8003008 <HAL_InitTick>
  
  /* Init the low level hardware */
  HAL_MspInit();
 8002fe8:	f000 f806 	bl	8002ff8 <HAL_MspInit>
  
  /* Return function status */
  return HAL_OK;
 8002fec:	2300      	movs	r3, #0
}
 8002fee:	4618      	mov	r0, r3
 8002ff0:	bd80      	pop	{r7, pc}
 8002ff2:	bf00      	nop
 8002ff4:	40023c00 	.word	0x40023c00

08002ff8 <HAL_MspInit>:
/**
  * @brief  Initializes the MSP.
  * @retval None
  */
__weak void HAL_MspInit(void)
{
 8002ff8:	b480      	push	{r7}
 8002ffa:	af00      	add	r7, sp, #0
  /* NOTE : This function Should not be modified, when the callback is needed,
            the HAL_MspInit could be implemented in the user file
   */
}
 8002ffc:	bf00      	nop
 8002ffe:	46bd      	mov	sp, r7
 8003000:	f85d 7b04 	ldr.w	r7, [sp], #4
 8003004:	4770      	bx	lr
	...

08003008 <HAL_InitTick>:
  *       implementation  in user file.
  * @param TickPriority: Tick interrupt priority.
  * @retval HAL status
  */
__weak HAL_StatusTypeDef HAL_InitTick(uint32_t TickPriority)
{
 8003008:	b580      	push	{r7, lr}
 800300a:	b082      	sub	sp, #8
 800300c:	af00      	add	r7, sp, #0
 800300e:	6078      	str	r0, [r7, #4]
  /*Configure the SysTick to have interrupt in 1ms time basis*/
  HAL_SYSTICK_Config(SystemCoreClock/1000U);
 8003010:	4b09      	ldr	r3, [pc, #36]	@ (8003038 <HAL_InitTick+0x30>)
 8003012:	681b      	ldr	r3, [r3, #0]
 8003014:	4a09      	ldr	r2, [pc, #36]	@ (800303c <HAL_InitTick+0x34>)
 8003016:	fba2 2303 	umull	r2, r3, r2, r3
 800301a:	099b      	lsrs	r3, r3, #6
 800301c:	4618      	mov	r0, r3
 800301e:	f000 f900 	bl	8003222 <HAL_SYSTICK_Config>

  /*Configure the SysTick IRQ priority */
  HAL_NVIC_SetPriority(SysTick_IRQn, TickPriority ,0U);
 8003022:	2200      	movs	r2, #0
 8003024:	6879      	ldr	r1, [r7, #4]
 8003026:	f04f 30ff 	mov.w	r0, #4294967295
 800302a:	f000 f8de 	bl	80031ea <HAL_NVIC_SetPriority>

  /* Return function status */
  return HAL_OK;
 800302e:	2300      	movs	r3, #0
}
 8003030:	4618      	mov	r0, r3
 8003032:	3708      	adds	r7, #8
 8003034:	46bd      	mov	sp, r7
 8003036:	bd80      	pop	{r7, pc}
 8003038:	20000010 	.word	0x20000010
 800303c:	10624dd3 	.word	0x10624dd3

08003040 <HAL_GetTick>:
  * @note This function is declared as __weak to be overwritten in case of other 
  *       implementations in user file.
  * @retval tick value
  */
__weak uint32_t HAL_GetTick(void)
{
 8003040:	b480      	push	{r7}
 8003042:	af00      	add	r7, sp, #0
  return uwTick;
 8003044:	4b03      	ldr	r3, [pc, #12]	@ (8003054 <HAL_GetTick+0x14>)
 8003046:	681b      	ldr	r3, [r3, #0]
}
 8003048:	4618      	mov	r0, r3
 800304a:	46bd      	mov	sp, r7
 800304c:	f85d 7b04 	ldr.w	r7, [sp], #4
 8003050:	4770      	bx	lr
 8003052:	bf00      	nop
 8003054:	20001190 	.word	0x20001190

08003058 <HAL_GetREVID>:
/**
  * @brief  Returns the device revision identifier.
  * @retval Device revision identifier
  */
uint32_t HAL_GetREVID(void)
{
 8003058:	b480      	push	{r7}
 800305a:	af00      	add	r7, sp, #0
   return((DBGMCU->IDCODE) >> 16U);
 800305c:	4b03      	ldr	r3, [pc, #12]	@ (800306c <HAL_GetREVID+0x14>)
 800305e:	681b      	ldr	r3, [r3, #0]
 8003060:	0c1b      	lsrs	r3, r3, #16
}
 8003062:	4618      	mov	r0, r3
 8003064:	46bd      	mov	sp, r7
 8003066:	f85d 7b04 	ldr.w	r7, [sp], #4
 800306a:	4770      	bx	lr
 800306c:	e0042000 	.word	0xe0042000

08003070 <NVIC_SetPriorityGrouping>:
           In case of a conflict between priority grouping and available
           priority bits (__NVIC_PRIO_BITS), the smallest possible priority group is set.
  \param [in]      PriorityGroup  Priority grouping field.
 */
__STATIC_INLINE void NVIC_SetPriorityGrouping(uint32_t PriorityGroup)
{
 8003070:	b480      	push	{r7}
 8003072:	b085      	sub	sp, #20
 8003074:	af00      	add	r7, sp, #0
 8003076:	6078      	str	r0, [r7, #4]
  uint32_t reg_value;
  uint32_t PriorityGroupTmp = (PriorityGroup & (uint32_t)0x07UL);             /* only values 0..7 are used          */
 8003078:	687b      	ldr	r3, [r7, #4]
 800307a:	f003 0307 	and.w	r3, r3, #7
 800307e:	60fb      	str	r3, [r7, #12]

  reg_value  =  SCB->AIRCR;                                                   /* read old register configuration    */
 8003080:	4b0c      	ldr	r3, [pc, #48]	@ (80030b4 <NVIC_SetPriorityGrouping+0x44>)
 8003082:	68db      	ldr	r3, [r3, #12]
 8003084:	60bb      	str	r3, [r7, #8]
  reg_value &= ~((uint32_t)(SCB_AIRCR_VECTKEY_Msk | SCB_AIRCR_PRIGROUP_Msk)); /* clear bits to change               */
 8003086:	68ba      	ldr	r2, [r7, #8]
 8003088:	f64f 03ff 	movw	r3, #63743	@ 0xf8ff
 800308c:	4013      	ands	r3, r2
 800308e:	60bb      	str	r3, [r7, #8]
  reg_value  =  (reg_value                                   |
                ((uint32_t)0x5FAUL << SCB_AIRCR_VECTKEY_Pos) |
                (PriorityGroupTmp << 8U)                      );              /* Insert write key and priorty group */
 8003090:	68fb      	ldr	r3, [r7, #12]
 8003092:	021a      	lsls	r2, r3, #8
                ((uint32_t)0x5FAUL << SCB_AIRCR_VECTKEY_Pos) |
 8003094:	68bb      	ldr	r3, [r7, #8]
 8003096:	4313      	orrs	r3, r2
  reg_value  =  (reg_value                                   |
 8003098:	f043 63bf 	orr.w	r3, r3, #100139008	@ 0x5f80000
 800309c:	f443 3300 	orr.w	r3, r3, #131072	@ 0x20000
 80030a0:	60bb      	str	r3, [r7, #8]
  SCB->AIRCR =  reg_value;
 80030a2:	4a04      	ldr	r2, [pc, #16]	@ (80030b4 <NVIC_SetPriorityGrouping+0x44>)
 80030a4:	68bb      	ldr	r3, [r7, #8]
 80030a6:	60d3      	str	r3, [r2, #12]
}
 80030a8:	bf00      	nop
 80030aa:	3714      	adds	r7, #20
 80030ac:	46bd      	mov	sp, r7
 80030ae:	f85d 7b04 	ldr.w	r7, [sp], #4
 80030b2:	4770      	bx	lr
 80030b4:	e000ed00 	.word	0xe000ed00

080030b8 <NVIC_GetPriorityGrouping>:
  \brief   Get Priority Grouping
  \details Reads the priority grouping field from the NVIC Interrupt Controller.
  \return                Priority grouping field (SCB->AIRCR [10:8] PRIGROUP field).
 */
__STATIC_INLINE uint32_t NVIC_GetPriorityGrouping(void)
{
 80030b8:	b480      	push	{r7}
 80030ba:	af00      	add	r7, sp, #0
  return ((uint32_t)((SCB->AIRCR & SCB_AIRCR_PRIGROUP_Msk) >> SCB_AIRCR_PRIGROUP_Pos));
 80030bc:	4b04      	ldr	r3, [pc, #16]	@ (80030d0 <NVIC_GetPriorityGrouping+0x18>)
 80030be:	68db      	ldr	r3, [r3, #12]
 80030c0:	0a1b      	lsrs	r3, r3, #8
 80030c2:	f003 0307 	and.w	r3, r3, #7
}
 80030c6:	4618      	mov	r0, r3
 80030c8:	46bd      	mov	sp, r7
 80030ca:	f85d 7b04 	ldr.w	r7, [sp], #4
 80030ce:	4770      	bx	lr
 80030d0:	e000ed00 	.word	0xe000ed00

080030d4 <NVIC_SetPriority>:
  \note    The priority cannot be set for every core interrupt.
  \param [in]      IRQn  Interrupt number.
  \param [in]  priority  Priority to set.
 */
__STATIC_INLINE void NVIC_SetPriority(IRQn_Type IRQn, uint32_t priority)
{
 80030d4:	b480      	push	{r7}
 80030d6:	b083      	sub	sp, #12
 80030d8:	af00      	add	r7, sp, #0
 80030da:	4603      	mov	r3, r0
 80030dc:	6039      	str	r1, [r7, #0]
 80030de:	71fb      	strb	r3, [r7, #7]
  if ((int32_t)(IRQn) < 0)
 80030e0:	f997 3007 	ldrsb.w	r3, [r7, #7]
 80030e4:	2b00      	cmp	r3, #0
 80030e6:	da0b      	bge.n	8003100 <NVIC_SetPriority+0x2c>
  {
    SCB->SHP[(((uint32_t)(int32_t)IRQn) & 0xFUL)-4UL] = (uint8_t)((priority << (8U - __NVIC_PRIO_BITS)) & (uint32_t)0xFFUL);
 80030e8:	683b      	ldr	r3, [r7, #0]
 80030ea:	b2da      	uxtb	r2, r3
 80030ec:	490c      	ldr	r1, [pc, #48]	@ (8003120 <NVIC_SetPriority+0x4c>)
 80030ee:	79fb      	ldrb	r3, [r7, #7]
 80030f0:	f003 030f 	and.w	r3, r3, #15
 80030f4:	3b04      	subs	r3, #4
 80030f6:	0112      	lsls	r2, r2, #4
 80030f8:	b2d2      	uxtb	r2, r2
 80030fa:	440b      	add	r3, r1
 80030fc:	761a      	strb	r2, [r3, #24]
  }
  else
  {
    NVIC->IP[((uint32_t)(int32_t)IRQn)]               = (uint8_t)((priority << (8U - __NVIC_PRIO_BITS)) & (uint32_t)0xFFUL);
  }
}
 80030fe:	e009      	b.n	8003114 <NVIC_SetPriority+0x40>
    NVIC->IP[((uint32_t)(int32_t)IRQn)]               = (uint8_t)((priority << (8U - __NVIC_PRIO_BITS)) & (uint32_t)0xFFUL);
 8003100:	683b      	ldr	r3, [r7, #0]
 8003102:	b2da      	uxtb	r2, r3
 8003104:	4907      	ldr	r1, [pc, #28]	@ (8003124 <NVIC_SetPriority+0x50>)
 8003106:	f997 3007 	ldrsb.w	r3, [r7, #7]
 800310a:	0112      	lsls	r2, r2, #4
 800310c:	b2d2      	uxtb	r2, r2
 800310e:	440b      	add	r3, r1
 8003110:	f883 2300 	strb.w	r2, [r3, #768]	@ 0x300
}
 8003114:	bf00      	nop
 8003116:	370c      	adds	r7, #12
 8003118:	46bd      	mov	sp, r7
 800311a:	f85d 7b04 	ldr.w	r7, [sp], #4
 800311e:	4770      	bx	lr
 8003120:	e000ed00 	.word	0xe000ed00
 8003124:	e000e100 	.word	0xe000e100

08003128 <NVIC_EncodePriority>:
  \param [in]   PreemptPriority  Preemptive priority value (starting from 0).
  \param [in]       SubPriority  Subpriority value (starting from 0).
  \return                        Encoded priority. Value can be used in the function \ref NVIC_SetPriority().
 */
__STATIC_INLINE uint32_t NVIC_EncodePriority (uint32_t PriorityGroup, uint32_t PreemptPriority, uint32_t SubPriority)
{
 8003128:	b480      	push	{r7}
 800312a:	b089      	sub	sp, #36	@ 0x24
 800312c:	af00      	add	r7, sp, #0
 800312e:	60f8      	str	r0, [r7, #12]
 8003130:	60b9      	str	r1, [r7, #8]
 8003132:	607a      	str	r2, [r7, #4]
  uint32_t PriorityGroupTmp = (PriorityGroup & (uint32_t)0x07UL);   /* only values 0..7 are used          */
 8003134:	68fb      	ldr	r3, [r7, #12]
 8003136:	f003 0307 	and.w	r3, r3, #7
 800313a:	61fb      	str	r3, [r7, #28]
  uint32_t PreemptPriorityBits;
  uint32_t SubPriorityBits;

  PreemptPriorityBits = ((7UL - PriorityGroupTmp) > (uint32_t)(__NVIC_PRIO_BITS)) ? (uint32_t)(__NVIC_PRIO_BITS) : (uint32_t)(7UL - PriorityGroupTmp);
 800313c:	69fb      	ldr	r3, [r7, #28]
 800313e:	f1c3 0307 	rsb	r3, r3, #7
 8003142:	2b04      	cmp	r3, #4
 8003144:	bf28      	it	cs
 8003146:	2304      	movcs	r3, #4
 8003148:	61bb      	str	r3, [r7, #24]
  SubPriorityBits     = ((PriorityGroupTmp + (uint32_t)(__NVIC_PRIO_BITS)) < (uint32_t)7UL) ? (uint32_t)0UL : (uint32_t)((PriorityGroupTmp - 7UL) + (uint32_t)(__NVIC_PRIO_BITS));
 800314a:	69fb      	ldr	r3, [r7, #28]
 800314c:	3304      	adds	r3, #4
 800314e:	2b06      	cmp	r3, #6
 8003150:	d902      	bls.n	8003158 <NVIC_EncodePriority+0x30>
 8003152:	69fb      	ldr	r3, [r7, #28]
 8003154:	3b03      	subs	r3, #3
 8003156:	e000      	b.n	800315a <NVIC_EncodePriority+0x32>
 8003158:	2300      	movs	r3, #0
 800315a:	617b      	str	r3, [r7, #20]

  return (
           ((PreemptPriority & (uint32_t)((1UL << (PreemptPriorityBits)) - 1UL)) << SubPriorityBits) |
 800315c:	f04f 32ff 	mov.w	r2, #4294967295
 8003160:	69bb      	ldr	r3, [r7, #24]
 8003162:	fa02 f303 	lsl.w	r3, r2, r3
 8003166:	43da      	mvns	r2, r3
 8003168:	68bb      	ldr	r3, [r7, #8]
 800316a:	401a      	ands	r2, r3
 800316c:	697b      	ldr	r3, [r7, #20]
 800316e:	409a      	lsls	r2, r3
           ((SubPriority     & (uint32_t)((1UL << (SubPriorityBits    )) - 1UL)))
 8003170:	f04f 31ff 	mov.w	r1, #4294967295
 8003174:	697b      	ldr	r3, [r7, #20]
 8003176:	fa01 f303 	lsl.w	r3, r1, r3
 800317a:	43d9      	mvns	r1, r3
 800317c:	687b      	ldr	r3, [r7, #4]
 800317e:	400b      	ands	r3, r1
           ((PreemptPriority & (uint32_t)((1UL << (PreemptPriorityBits)) - 1UL)) << SubPriorityBits) |
 8003180:	4313      	orrs	r3, r2
         );
}
 8003182:	4618      	mov	r0, r3
 8003184:	3724      	adds	r7, #36	@ 0x24
 8003186:	46bd      	mov	sp, r7
 8003188:	f85d 7b04 	ldr.w	r7, [sp], #4
 800318c:	4770      	bx	lr
	...

08003190 <SysTick_Config>:
  \note    When the variable <b>__Vendor_SysTickConfig</b> is set to 1, then the
           function <b>SysTick_Config</b> is not included. In this case, the file <b><i>device</i>.h</b>
           must contain a vendor-specific implementation of this function.
 */
__STATIC_INLINE uint32_t SysTick_Config(uint32_t ticks)
{
 8003190:	b580      	push	{r7, lr}
 8003192:	b082      	sub	sp, #8
 8003194:	af00      	add	r7, sp, #0
 8003196:	6078      	str	r0, [r7, #4]
  if ((ticks - 1UL) > SysTick_LOAD_RELOAD_Msk)
 8003198:	687b      	ldr	r3, [r7, #4]
 800319a:	3b01      	subs	r3, #1
 800319c:	f1b3 7f80 	cmp.w	r3, #16777216	@ 0x1000000
 80031a0:	d301      	bcc.n	80031a6 <SysTick_Config+0x16>
  {
    return (1UL);                                                   /* Reload value impossible */
 80031a2:	2301      	movs	r3, #1
 80031a4:	e00f      	b.n	80031c6 <SysTick_Config+0x36>
  }

  SysTick->LOAD  = (uint32_t)(ticks - 1UL);                         /* set reload register */
 80031a6:	4a0a      	ldr	r2, [pc, #40]	@ (80031d0 <SysTick_Config+0x40>)
 80031a8:	687b      	ldr	r3, [r7, #4]
 80031aa:	3b01      	subs	r3, #1
 80031ac:	6053      	str	r3, [r2, #4]
  NVIC_SetPriority (SysTick_IRQn, (1UL << __NVIC_PRIO_BITS) - 1UL); /* set Priority for Systick Interrupt */
 80031ae:	210f      	movs	r1, #15
 80031b0:	f04f 30ff 	mov.w	r0, #4294967295
 80031b4:	f7ff ff8e 	bl	80030d4 <NVIC_SetPriority>
  SysTick->VAL   = 0UL;                                             /* Load the SysTick Counter Value */
 80031b8:	4b05      	ldr	r3, [pc, #20]	@ (80031d0 <SysTick_Config+0x40>)
 80031ba:	2200      	movs	r2, #0
 80031bc:	609a      	str	r2, [r3, #8]
  SysTick->CTRL  = SysTick_CTRL_CLKSOURCE_Msk |
 80031be:	4b04      	ldr	r3, [pc, #16]	@ (80031d0 <SysTick_Config+0x40>)
 80031c0:	2207      	movs	r2, #7
 80031c2:	601a      	str	r2, [r3, #0]
                   SysTick_CTRL_TICKINT_Msk   |
                   SysTick_CTRL_ENABLE_Msk;                         /* Enable SysTick IRQ and SysTick Timer */
  return (0UL);                                                     /* Function successful */
 80031c4:	2300      	movs	r3, #0
}
 80031c6:	4618      	mov	r0, r3
 80031c8:	3708      	adds	r7, #8
 80031ca:	46bd      	mov	sp, r7
 80031cc:	bd80      	pop	{r7, pc}
 80031ce:	bf00      	nop
 80031d0:	e000e010 	.word	0xe000e010

080031d4 <HAL_NVIC_SetPriorityGrouping>:
  * @note   When the NVIC_PriorityGroup_0 is selected, IRQ preemption is no more possible. 
  *         The pending IRQ priority will be managed only by the subpriority. 
  * @retval None
  */
void HAL_NVIC_SetPriorityGrouping(uint32_t PriorityGroup)
{
 80031d4:	b580      	push	{r7, lr}
 80031d6:	b082      	sub	sp, #8
 80031d8:	af00      	add	r7, sp, #0
 80031da:	6078      	str	r0, [r7, #4]
  /* Check the parameters */
  assert_param(IS_NVIC_PRIORITY_GROUP(PriorityGroup));
  
  /* Set the PRIGROUP[10:8] bits according to the PriorityGroup parameter value */
  NVIC_SetPriorityGrouping(PriorityGroup);
 80031dc:	6878      	ldr	r0, [r7, #4]
 80031de:	f7ff ff47 	bl	8003070 <NVIC_SetPriorityGrouping>
}
 80031e2:	bf00      	nop
 80031e4:	3708      	adds	r7, #8
 80031e6:	46bd      	mov	sp, r7
 80031e8:	bd80      	pop	{r7, pc}

080031ea <HAL_NVIC_SetPriority>:
  *         This parameter can be a value between 0 and 15
  *         A lower priority value indicates a higher priority.          
  * @retval None
  */
void HAL_NVIC_SetPriority(IRQn_Type IRQn, uint32_t PreemptPriority, uint32_t SubPriority)
{ 
 80031ea:	b580      	push	{r7, lr}
 80031ec:	b086      	sub	sp, #24
 80031ee:	af00      	add	r7, sp, #0
 80031f0:	4603      	mov	r3, r0
 80031f2:	60b9      	str	r1, [r7, #8]
 80031f4:	607a      	str	r2, [r7, #4]
 80031f6:	73fb      	strb	r3, [r7, #15]
  uint32_t prioritygroup = 0x00U;
 80031f8:	2300      	movs	r3, #0
 80031fa:	617b      	str	r3, [r7, #20]
  
  /* Check the parameters */
  assert_param(IS_NVIC_SUB_PRIORITY(SubPriority));
  assert_param(IS_NVIC_PREEMPTION_PRIORITY(PreemptPriority));
  
  prioritygroup = NVIC_GetPriorityGrouping();
 80031fc:	f7ff ff5c 	bl	80030b8 <NVIC_GetPriorityGrouping>
 8003200:	6178      	str	r0, [r7, #20]
  
  NVIC_SetPriority(IRQn, NVIC_EncodePriority(prioritygroup, PreemptPriority, SubPriority));
 8003202:	687a      	ldr	r2, [r7, #4]
 8003204:	68b9      	ldr	r1, [r7, #8]
 8003206:	6978      	ldr	r0, [r7, #20]
 8003208:	f7ff ff8e 	bl	8003128 <NVIC_EncodePriority>
 800320c:	4602      	mov	r2, r0
 800320e:	f997 300f 	ldrsb.w	r3, [r7, #15]
 8003212:	4611      	mov	r1, r2
 8003214:	4618      	mov	r0, r3
 8003216:	f7ff ff5d 	bl	80030d4 <NVIC_SetPriority>
}
 800321a:	bf00      	nop
 800321c:	3718      	adds	r7, #24
 800321e:	46bd      	mov	sp, r7
 8003220:	bd80      	pop	{r7, pc}

08003222 <HAL_SYSTICK_Config>:
  * @param  TicksNumb: Specifies the ticks Number of ticks between two interrupts.
  * @retval status:  - 0  Function succeeded.
  *                  - 1  Function failed.
  */
uint32_t HAL_SYSTICK_Config(uint32_t TicksNumb)
{
 8003222:	b580      	push	{r7, lr}
 8003224:	b082      	sub	sp, #8
 8003226:	af00      	add	r7, sp, #0
 8003228:	6078      	str	r0, [r7, #4]
   return SysTick_Config(TicksNumb);
 800322a:	6878      	ldr	r0, [r7, #4]
 800322c:	f7ff ffb0 	bl	8003190 <SysTick_Config>
 8003230:	4603      	mov	r3, r0
}
 8003232:	4618      	mov	r0, r3
 8003234:	3708      	adds	r7, #8
 8003236:	46bd      	mov	sp, r7
 8003238:	bd80      	pop	{r7, pc}
	...

0800323c <HAL_GPIO_Init>:
  * @param  GPIO_Init: pointer to a GPIO_InitTypeDef structure that contains
  *         the configuration information for the specified GPIO peripheral.
  * @retval None
  */
void HAL_GPIO_Init(GPIO_TypeDef  *GPIOx, GPIO_InitTypeDef *GPIO_Init)
{
 800323c:	b480      	push	{r7}
 800323e:	b089      	sub	sp, #36	@ 0x24
 8003240:	af00      	add	r7, sp, #0
 8003242:	6078      	str	r0, [r7, #4]
 8003244:	6039      	str	r1, [r7, #0]
  uint32_t position;
  uint32_t ioposition = 0x00U;
 8003246:	2300      	movs	r3, #0
 8003248:	617b      	str	r3, [r7, #20]
  uint32_t iocurrent = 0x00U;
 800324a:	2300      	movs	r3, #0
 800324c:	613b      	str	r3, [r7, #16]
  uint32_t temp = 0x00U;
 800324e:	2300      	movs	r3, #0
 8003250:	61bb      	str	r3, [r7, #24]
  assert_param(IS_GPIO_PIN(GPIO_Init->Pin));
  assert_param(IS_GPIO_MODE(GPIO_Init->Mode));
  assert_param(IS_GPIO_PULL(GPIO_Init->Pull));

  /* Configure the port pins */
  for(position = 0U; position < GPIO_NUMBER; position++)
 8003252:	2300      	movs	r3, #0
 8003254:	61fb      	str	r3, [r7, #28]
 8003256:	e16b      	b.n	8003530 <HAL_GPIO_Init+0x2f4>
  {
    /* Get the IO position */
    ioposition = ((uint32_t)0x01U) << position;
 8003258:	2201      	movs	r2, #1
 800325a:	69fb      	ldr	r3, [r7, #28]
 800325c:	fa02 f303 	lsl.w	r3, r2, r3
 8003260:	617b      	str	r3, [r7, #20]
    /* Get the current IO position */
    iocurrent = (uint32_t)(GPIO_Init->Pin) & ioposition;
 8003262:	683b      	ldr	r3, [r7, #0]
 8003264:	681b      	ldr	r3, [r3, #0]
 8003266:	697a      	ldr	r2, [r7, #20]
 8003268:	4013      	ands	r3, r2
 800326a:	613b      	str	r3, [r7, #16]

    if(iocurrent == ioposition)
 800326c:	693a      	ldr	r2, [r7, #16]
 800326e:	697b      	ldr	r3, [r7, #20]
 8003270:	429a      	cmp	r2, r3
 8003272:	f040 815a 	bne.w	800352a <HAL_GPIO_Init+0x2ee>
    {
      /*--------------------- GPIO Mode Configuration ------------------------*/
      /* In case of Alternate function mode selection */
      if((GPIO_Init->Mode == GPIO_MODE_AF_PP) || (GPIO_Init->Mode == GPIO_MODE_AF_OD))
 8003276:	683b      	ldr	r3, [r7, #0]
 8003278:	685b      	ldr	r3, [r3, #4]
 800327a:	2b02      	cmp	r3, #2
 800327c:	d003      	beq.n	8003286 <HAL_GPIO_Init+0x4a>
 800327e:	683b      	ldr	r3, [r7, #0]
 8003280:	685b      	ldr	r3, [r3, #4]
 8003282:	2b12      	cmp	r3, #18
 8003284:	d123      	bne.n	80032ce <HAL_GPIO_Init+0x92>
      {
        /* Check the Alternate function parameter */
        assert_param(IS_GPIO_AF(GPIO_Init->Alternate));
        /* Configure Alternate function mapped with the current IO */
        temp = GPIOx->AFR[position >> 3U];
 8003286:	69fb      	ldr	r3, [r7, #28]
 8003288:	08da      	lsrs	r2, r3, #3
 800328a:	687b      	ldr	r3, [r7, #4]
 800328c:	3208      	adds	r2, #8
 800328e:	f853 3022 	ldr.w	r3, [r3, r2, lsl #2]
 8003292:	61bb      	str	r3, [r7, #24]
        temp &= ~((uint32_t)0xFU << ((uint32_t)(position & (uint32_t)0x07U) * 4U)) ;
 8003294:	69fb      	ldr	r3, [r7, #28]
 8003296:	f003 0307 	and.w	r3, r3, #7
 800329a:	009b      	lsls	r3, r3, #2
 800329c:	220f      	movs	r2, #15
 800329e:	fa02 f303 	lsl.w	r3, r2, r3
 80032a2:	43db      	mvns	r3, r3
 80032a4:	69ba      	ldr	r2, [r7, #24]
 80032a6:	4013      	ands	r3, r2
 80032a8:	61bb      	str	r3, [r7, #24]
        temp |= ((uint32_t)(GPIO_Init->Alternate) << (((uint32_t)position & (uint32_t)0x07U) * 4U));
 80032aa:	683b      	ldr	r3, [r7, #0]
 80032ac:	691a      	ldr	r2, [r3, #16]
 80032ae:	69fb      	ldr	r3, [r7, #28]
 80032b0:	f003 0307 	and.w	r3, r3, #7
 80032b4:	009b      	lsls	r3, r3, #2
 80032b6:	fa02 f303 	lsl.w	r3, r2, r3
 80032ba:	69ba      	ldr	r2, [r7, #24]
 80032bc:	4313      	orrs	r3, r2
 80032be:	61bb      	str	r3, [r7, #24]
        GPIOx->AFR[position >> 3U] = temp;
 80032c0:	69fb      	ldr	r3, [r7, #28]
 80032c2:	08da      	lsrs	r2, r3, #3
 80032c4:	687b      	ldr	r3, [r7, #4]
 80032c6:	3208      	adds	r2, #8
 80032c8:	69b9      	ldr	r1, [r7, #24]
 80032ca:	f843 1022 	str.w	r1, [r3, r2, lsl #2]
      }

      /* Configure IO Direction mode (Input, Output, Alternate or Analog) */
      temp = GPIOx->MODER;
 80032ce:	687b      	ldr	r3, [r7, #4]
 80032d0:	681b      	ldr	r3, [r3, #0]
 80032d2:	61bb      	str	r3, [r7, #24]
      temp &= ~(GPIO_MODER_MODER0 << (position * 2U));
 80032d4:	69fb      	ldr	r3, [r7, #28]
 80032d6:	005b      	lsls	r3, r3, #1
 80032d8:	2203      	movs	r2, #3
 80032da:	fa02 f303 	lsl.w	r3, r2, r3
 80032de:	43db      	mvns	r3, r3
 80032e0:	69ba      	ldr	r2, [r7, #24]
 80032e2:	4013      	ands	r3, r2
 80032e4:	61bb      	str	r3, [r7, #24]
      temp |= ((GPIO_Init->Mode & GPIO_MODE) << (position * 2U));
 80032e6:	683b      	ldr	r3, [r7, #0]
 80032e8:	685b      	ldr	r3, [r3, #4]
 80032ea:	f003 0203 	and.w	r2, r3, #3
 80032ee:	69fb      	ldr	r3, [r7, #28]
 80032f0:	005b      	lsls	r3, r3, #1
 80032f2:	fa02 f303 	lsl.w	r3, r2, r3
 80032f6:	69ba      	ldr	r2, [r7, #24]
 80032f8:	4313      	orrs	r3, r2
 80032fa:	61bb      	str	r3, [r7, #24]
      GPIOx->MODER = temp;
 80032fc:	687b      	ldr	r3, [r7, #4]
 80032fe:	69ba      	ldr	r2, [r7, #24]
 8003300:	601a      	str	r2, [r3, #0]

      /* In case of Output or Alternate function mode selection */
      if((GPIO_Init->Mode == GPIO_MODE_OUTPUT_PP) || (GPIO_Init->Mode == GPIO_MODE_AF_PP) ||
 8003302:	683b      	ldr	r3, [r7, #0]
 8003304:	685b      	ldr	r3, [r3, #4]
 8003306:	2b01      	cmp	r3, #1
 8003308:	d00b      	beq.n	8003322 <HAL_GPIO_Init+0xe6>
 800330a:	683b      	ldr	r3, [r7, #0]
 800330c:	685b      	ldr	r3, [r3, #4]
 800330e:	2b02      	cmp	r3, #2
 8003310:	d007      	beq.n	8003322 <HAL_GPIO_Init+0xe6>
         (GPIO_Init->Mode == GPIO_MODE_OUTPUT_OD) || (GPIO_Init->Mode == GPIO_MODE_AF_OD))
 8003312:	683b      	ldr	r3, [r7, #0]
 8003314:	685b      	ldr	r3, [r3, #4]
      if((GPIO_Init->Mode == GPIO_MODE_OUTPUT_PP) || (GPIO_Init->Mode == GPIO_MODE_AF_PP) ||
 8003316:	2b11      	cmp	r3, #17
 8003318:	d003      	beq.n	8003322 <HAL_GPIO_Init+0xe6>
         (GPIO_Init->Mode == GPIO_MODE_OUTPUT_OD) || (GPIO_Init->Mode == GPIO_MODE_AF_OD))
 800331a:	683b      	ldr	r3, [r7, #0]
 800331c:	685b      	ldr	r3, [r3, #4]
 800331e:	2b12      	cmp	r3, #18
 8003320:	d130      	bne.n	8003384 <HAL_GPIO_Init+0x148>
      {
        /* Check the Speed parameter */
        assert_param(IS_GPIO_SPEED(GPIO_Init->Speed));
        /* Configure the IO Speed */
        temp = GPIOx->OSPEEDR; 
 8003322:	687b      	ldr	r3, [r7, #4]
 8003324:	689b      	ldr	r3, [r3, #8]
 8003326:	61bb      	str	r3, [r7, #24]
        temp &= ~(GPIO_OSPEEDER_OSPEEDR0 << (position * 2U));
 8003328:	69fb      	ldr	r3, [r7, #28]
 800332a:	005b      	lsls	r3, r3, #1
 800332c:	2203      	movs	r2, #3
 800332e:	fa02 f303 	lsl.w	r3, r2, r3
 8003332:	43db      	mvns	r3, r3
 8003334:	69ba      	ldr	r2, [r7, #24]
 8003336:	4013      	ands	r3, r2
 8003338:	61bb      	str	r3, [r7, #24]
        temp |= (GPIO_Init->Speed << (position * 2U));
 800333a:	683b      	ldr	r3, [r7, #0]
 800333c:	68da      	ldr	r2, [r3, #12]
 800333e:	69fb      	ldr	r3, [r7, #28]
 8003340:	005b      	lsls	r3, r3, #1
 8003342:	fa02 f303 	lsl.w	r3, r2, r3
 8003346:	69ba      	ldr	r2, [r7, #24]
 8003348:	4313      	orrs	r3, r2
 800334a:	61bb      	str	r3, [r7, #24]
        GPIOx->OSPEEDR = temp;
 800334c:	687b      	ldr	r3, [r7, #4]
 800334e:	69ba      	ldr	r2, [r7, #24]
 8003350:	609a      	str	r2, [r3, #8]

        /* Configure the IO Output Type */
        temp = GPIOx->OTYPER;
 8003352:	687b      	ldr	r3, [r7, #4]
 8003354:	685b      	ldr	r3, [r3, #4]
 8003356:	61bb      	str	r3, [r7, #24]
        temp &= ~(GPIO_OTYPER_OT_0 << position) ;
 8003358:	2201      	movs	r2, #1
 800335a:	69fb      	ldr	r3, [r7, #28]
 800335c:	fa02 f303 	lsl.w	r3, r2, r3
 8003360:	43db      	mvns	r3, r3
 8003362:	69ba      	ldr	r2, [r7, #24]
 8003364:	4013      	ands	r3, r2
 8003366:	61bb      	str	r3, [r7, #24]
        temp |= (((GPIO_Init->Mode & GPIO_OUTPUT_TYPE) >> 4U) << position);
 8003368:	683b      	ldr	r3, [r7, #0]
 800336a:	685b      	ldr	r3, [r3, #4]
 800336c:	091b      	lsrs	r3, r3, #4
 800336e:	f003 0201 	and.w	r2, r3, #1
 8003372:	69fb      	ldr	r3, [r7, #28]
 8003374:	fa02 f303 	lsl.w	r3, r2, r3
 8003378:	69ba      	ldr	r2, [r7, #24]
 800337a:	4313      	orrs	r3, r2
 800337c:	61bb      	str	r3, [r7, #24]
        GPIOx->OTYPER = temp;
 800337e:	687b      	ldr	r3, [r7, #4]
 8003380:	69ba      	ldr	r2, [r7, #24]
 8003382:	605a      	str	r2, [r3, #4]
      }

      /* Activate the Pull-up or Pull down resistor for the current IO */
      temp = GPIOx->PUPDR;
 8003384:	687b      	ldr	r3, [r7, #4]
 8003386:	68db      	ldr	r3, [r3, #12]
 8003388:	61bb      	str	r3, [r7, #24]
      temp &= ~(GPIO_PUPDR_PUPDR0 << (position * 2U));
 800338a:	69fb      	ldr	r3, [r7, #28]
 800338c:	005b      	lsls	r3, r3, #1
 800338e:	2203      	movs	r2, #3
 8003390:	fa02 f303 	lsl.w	r3, r2, r3
 8003394:	43db      	mvns	r3, r3
 8003396:	69ba      	ldr	r2, [r7, #24]
 8003398:	4013      	ands	r3, r2
 800339a:	61bb      	str	r3, [r7, #24]
      temp |= ((GPIO_Init->Pull) << (position * 2U));
 800339c:	683b      	ldr	r3, [r7, #0]
 800339e:	689a      	ldr	r2, [r3, #8]
 80033a0:	69fb      	ldr	r3, [r7, #28]
 80033a2:	005b      	lsls	r3, r3, #1
 80033a4:	fa02 f303 	lsl.w	r3, r2, r3
 80033a8:	69ba      	ldr	r2, [r7, #24]
 80033aa:	4313      	orrs	r3, r2
 80033ac:	61bb      	str	r3, [r7, #24]
      GPIOx->PUPDR = temp;
 80033ae:	687b      	ldr	r3, [r7, #4]
 80033b0:	69ba      	ldr	r2, [r7, #24]
 80033b2:	60da      	str	r2, [r3, #12]

      /*--------------------- EXTI Mode Configuration ------------------------*/
      /* Configure the External Interrupt or event for the current IO */
      if((GPIO_Init->Mode & EXTI_MODE) == EXTI_MODE)
 80033b4:	683b      	ldr	r3, [r7, #0]
 80033b6:	685b      	ldr	r3, [r3, #4]
 80033b8:	f003 5380 	and.w	r3, r3, #268435456	@ 0x10000000
 80033bc:	2b00      	cmp	r3, #0
 80033be:	f000 80b4 	beq.w	800352a <HAL_GPIO_Init+0x2ee>
      {
        /* Enable SYSCFG Clock */
        __HAL_RCC_SYSCFG_CLK_ENABLE();
 80033c2:	2300      	movs	r3, #0
 80033c4:	60fb      	str	r3, [r7, #12]
 80033c6:	4b60      	ldr	r3, [pc, #384]	@ (8003548 <HAL_GPIO_Init+0x30c>)
 80033c8:	6c5b      	ldr	r3, [r3, #68]	@ 0x44
 80033ca:	4a5f      	ldr	r2, [pc, #380]	@ (8003548 <HAL_GPIO_Init+0x30c>)
 80033cc:	f443 4380 	orr.w	r3, r3, #16384	@ 0x4000
 80033d0:	6453      	str	r3, [r2, #68]	@ 0x44
 80033d2:	4b5d      	ldr	r3, [pc, #372]	@ (8003548 <HAL_GPIO_Init+0x30c>)
 80033d4:	6c5b      	ldr	r3, [r3, #68]	@ 0x44
 80033d6:	f403 4380 	and.w	r3, r3, #16384	@ 0x4000
 80033da:	60fb      	str	r3, [r7, #12]
 80033dc:	68fb      	ldr	r3, [r7, #12]

        temp = SYSCFG->EXTICR[position >> 2U];
 80033de:	4a5b      	ldr	r2, [pc, #364]	@ (800354c <HAL_GPIO_Init+0x310>)
 80033e0:	69fb      	ldr	r3, [r7, #28]
 80033e2:	089b      	lsrs	r3, r3, #2
 80033e4:	3302      	adds	r3, #2
 80033e6:	f852 3023 	ldr.w	r3, [r2, r3, lsl #2]
 80033ea:	61bb      	str	r3, [r7, #24]
        temp &= ~(((uint32_t)0x0FU) << (4U * (position & 0x03U)));
 80033ec:	69fb      	ldr	r3, [r7, #28]
 80033ee:	f003 0303 	and.w	r3, r3, #3
 80033f2:	009b      	lsls	r3, r3, #2
 80033f4:	220f      	movs	r2, #15
 80033f6:	fa02 f303 	lsl.w	r3, r2, r3
 80033fa:	43db      	mvns	r3, r3
 80033fc:	69ba      	ldr	r2, [r7, #24]
 80033fe:	4013      	ands	r3, r2
 8003400:	61bb      	str	r3, [r7, #24]
        temp |= ((uint32_t)(GPIO_GET_INDEX(GPIOx)) << (4U * (position & 0x03U)));
 8003402:	687b      	ldr	r3, [r7, #4]
 8003404:	4a52      	ldr	r2, [pc, #328]	@ (8003550 <HAL_GPIO_Init+0x314>)
 8003406:	4293      	cmp	r3, r2
 8003408:	d02b      	beq.n	8003462 <HAL_GPIO_Init+0x226>
 800340a:	687b      	ldr	r3, [r7, #4]
 800340c:	4a51      	ldr	r2, [pc, #324]	@ (8003554 <HAL_GPIO_Init+0x318>)
 800340e:	4293      	cmp	r3, r2
 8003410:	d025      	beq.n	800345e <HAL_GPIO_Init+0x222>
 8003412:	687b      	ldr	r3, [r7, #4]
 8003414:	4a50      	ldr	r2, [pc, #320]	@ (8003558 <HAL_GPIO_Init+0x31c>)
 8003416:	4293      	cmp	r3, r2
 8003418:	d01f      	beq.n	800345a <HAL_GPIO_Init+0x21e>
 800341a:	687b      	ldr	r3, [r7, #4]
 800341c:	4a4f      	ldr	r2, [pc, #316]	@ (800355c <HAL_GPIO_Init+0x320>)
 800341e:	4293      	cmp	r3, r2
 8003420:	d019      	beq.n	8003456 <HAL_GPIO_Init+0x21a>
 8003422:	687b      	ldr	r3, [r7, #4]
 8003424:	4a4e      	ldr	r2, [pc, #312]	@ (8003560 <HAL_GPIO_Init+0x324>)
 8003426:	4293      	cmp	r3, r2
 8003428:	d013      	beq.n	8003452 <HAL_GPIO_Init+0x216>
 800342a:	687b      	ldr	r3, [r7, #4]
 800342c:	4a4d      	ldr	r2, [pc, #308]	@ (8003564 <HAL_GPIO_Init+0x328>)
 800342e:	4293      	cmp	r3, r2
 8003430:	d00d      	beq.n	800344e <HAL_GPIO_Init+0x212>
 8003432:	687b      	ldr	r3, [r7, #4]
 8003434:	4a4c      	ldr	r2, [pc, #304]	@ (8003568 <HAL_GPIO_Init+0x32c>)
 8003436:	4293      	cmp	r3, r2
 8003438:	d007      	beq.n	800344a <HAL_GPIO_Init+0x20e>
 800343a:	687b      	ldr	r3, [r7, #4]
 800343c:	4a4b      	ldr	r2, [pc, #300]	@ (800356c <HAL_GPIO_Init+0x330>)
 800343e:	4293      	cmp	r3, r2
 8003440:	d101      	bne.n	8003446 <HAL_GPIO_Init+0x20a>
 8003442:	2307      	movs	r3, #7
 8003444:	e00e      	b.n	8003464 <HAL_GPIO_Init+0x228>
 8003446:	2308      	movs	r3, #8
 8003448:	e00c      	b.n	8003464 <HAL_GPIO_Init+0x228>
 800344a:	2306      	movs	r3, #6
 800344c:	e00a      	b.n	8003464 <HAL_GPIO_Init+0x228>
 800344e:	2305      	movs	r3, #5
 8003450:	e008      	b.n	8003464 <HAL_GPIO_Init+0x228>
 8003452:	2304      	movs	r3, #4
 8003454:	e006      	b.n	8003464 <HAL_GPIO_Init+0x228>
 8003456:	2303      	movs	r3, #3
 8003458:	e004      	b.n	8003464 <HAL_GPIO_Init+0x228>
 800345a:	2302      	movs	r3, #2
 800345c:	e002      	b.n	8003464 <HAL_GPIO_Init+0x228>
 800345e:	2301      	movs	r3, #1
 8003460:	e000      	b.n	8003464 <HAL_GPIO_Init+0x228>
 8003462:	2300      	movs	r3, #0
 8003464:	69fa      	ldr	r2, [r7, #28]
 8003466:	f002 0203 	and.w	r2, r2, #3
 800346a:	0092      	lsls	r2, r2, #2
 800346c:	4093      	lsls	r3, r2
 800346e:	69ba      	ldr	r2, [r7, #24]
 8003470:	4313      	orrs	r3, r2
 8003472:	61bb      	str	r3, [r7, #24]
        SYSCFG->EXTICR[position >> 2U] = temp;
 8003474:	4935      	ldr	r1, [pc, #212]	@ (800354c <HAL_GPIO_Init+0x310>)
 8003476:	69fb      	ldr	r3, [r7, #28]
 8003478:	089b      	lsrs	r3, r3, #2
 800347a:	3302      	adds	r3, #2
 800347c:	69ba      	ldr	r2, [r7, #24]
 800347e:	f841 2023 	str.w	r2, [r1, r3, lsl #2]

        /* Clear EXTI line configuration */
        temp = EXTI->IMR;
 8003482:	4b3b      	ldr	r3, [pc, #236]	@ (8003570 <HAL_GPIO_Init+0x334>)
 8003484:	681b      	ldr	r3, [r3, #0]
 8003486:	61bb      	str	r3, [r7, #24]
        temp &= ~((uint32_t)iocurrent);
 8003488:	693b      	ldr	r3, [r7, #16]
 800348a:	43db      	mvns	r3, r3
 800348c:	69ba      	ldr	r2, [r7, #24]
 800348e:	4013      	ands	r3, r2
 8003490:	61bb      	str	r3, [r7, #24]
        if((GPIO_Init->Mode & GPIO_MODE_IT) == GPIO_MODE_IT)
 8003492:	683b      	ldr	r3, [r7, #0]
 8003494:	685b      	ldr	r3, [r3, #4]
 8003496:	f403 3380 	and.w	r3, r3, #65536	@ 0x10000
 800349a:	2b00      	cmp	r3, #0
 800349c:	d003      	beq.n	80034a6 <HAL_GPIO_Init+0x26a>
        {
          temp |= iocurrent;
 800349e:	69ba      	ldr	r2, [r7, #24]
 80034a0:	693b      	ldr	r3, [r7, #16]
 80034a2:	4313      	orrs	r3, r2
 80034a4:	61bb      	str	r3, [r7, #24]
        }
        EXTI->IMR = temp;
 80034a6:	4a32      	ldr	r2, [pc, #200]	@ (8003570 <HAL_GPIO_Init+0x334>)
 80034a8:	69bb      	ldr	r3, [r7, #24]
 80034aa:	6013      	str	r3, [r2, #0]

        temp = EXTI->EMR;
 80034ac:	4b30      	ldr	r3, [pc, #192]	@ (8003570 <HAL_GPIO_Init+0x334>)
 80034ae:	685b      	ldr	r3, [r3, #4]
 80034b0:	61bb      	str	r3, [r7, #24]
        temp &= ~((uint32_t)iocurrent);
 80034b2:	693b      	ldr	r3, [r7, #16]
 80034b4:	43db      	mvns	r3, r3
 80034b6:	69ba      	ldr	r2, [r7, #24]
 80034b8:	4013      	ands	r3, r2
 80034ba:	61bb      	str	r3, [r7, #24]
        if((GPIO_Init->Mode & GPIO_MODE_EVT) == GPIO_MODE_EVT)
 80034bc:	683b      	ldr	r3, [r7, #0]
 80034be:	685b      	ldr	r3, [r3, #4]
 80034c0:	f403 3300 	and.w	r3, r3, #131072	@ 0x20000
 80034c4:	2b00      	cmp	r3, #0
 80034c6:	d003      	beq.n	80034d0 <HAL_GPIO_Init+0x294>
        {
          temp |= iocurrent;
 80034c8:	69ba      	ldr	r2, [r7, #24]
 80034ca:	693b      	ldr	r3, [r7, #16]
 80034cc:	4313      	orrs	r3, r2
 80034ce:	61bb      	str	r3, [r7, #24]
        }
        EXTI->EMR = temp;
 80034d0:	4a27      	ldr	r2, [pc, #156]	@ (8003570 <HAL_GPIO_Init+0x334>)
 80034d2:	69bb      	ldr	r3, [r7, #24]
 80034d4:	6053      	str	r3, [r2, #4]

        /* Clear Rising Falling edge configuration */
        temp = EXTI->RTSR;
 80034d6:	4b26      	ldr	r3, [pc, #152]	@ (8003570 <HAL_GPIO_Init+0x334>)
 80034d8:	689b      	ldr	r3, [r3, #8]
 80034da:	61bb      	str	r3, [r7, #24]
        temp &= ~((uint32_t)iocurrent);
 80034dc:	693b      	ldr	r3, [r7, #16]
 80034de:	43db      	mvns	r3, r3
 80034e0:	69ba      	ldr	r2, [r7, #24]
 80034e2:	4013      	ands	r3, r2
 80034e4:	61bb      	str	r3, [r7, #24]
        if((GPIO_Init->Mode & RISING_EDGE) == RISING_EDGE)
 80034e6:	683b      	ldr	r3, [r7, #0]
 80034e8:	685b      	ldr	r3, [r3, #4]
 80034ea:	f403 1380 	and.w	r3, r3, #1048576	@ 0x100000
 80034ee:	2b00      	cmp	r3, #0
 80034f0:	d003      	beq.n	80034fa <HAL_GPIO_Init+0x2be>
        {
          temp |= iocurrent;
 80034f2:	69ba      	ldr	r2, [r7, #24]
 80034f4:	693b      	ldr	r3, [r7, #16]
 80034f6:	4313      	orrs	r3, r2
 80034f8:	61bb      	str	r3, [r7, #24]
        }
        EXTI->RTSR = temp;
 80034fa:	4a1d      	ldr	r2, [pc, #116]	@ (8003570 <HAL_GPIO_Init+0x334>)
 80034fc:	69bb      	ldr	r3, [r7, #24]
 80034fe:	6093      	str	r3, [r2, #8]

        temp = EXTI->FTSR;
 8003500:	4b1b      	ldr	r3, [pc, #108]	@ (8003570 <HAL_GPIO_Init+0x334>)
 8003502:	68db      	ldr	r3, [r3, #12]
 8003504:	61bb      	str	r3, [r7, #24]
        temp &= ~((uint32_t)iocurrent);
 8003506:	693b      	ldr	r3, [r7, #16]
 8003508:	43db      	mvns	r3, r3
 800350a:	69ba      	ldr	r2, [r7, #24]
 800350c:	4013      	ands	r3, r2
 800350e:	61bb      	str	r3, [r7, #24]
        if((GPIO_Init->Mode & FALLING_EDGE) == FALLING_EDGE)
 8003510:	683b      	ldr	r3, [r7, #0]
 8003512:	685b      	ldr	r3, [r3, #4]
 8003514:	f403 1300 	and.w	r3, r3, #2097152	@ 0x200000
 8003518:	2b00      	cmp	r3, #0
 800351a:	d003      	beq.n	8003524 <HAL_GPIO_Init+0x2e8>
        {
          temp |= iocurrent;
 800351c:	69ba      	ldr	r2, [r7, #24]
 800351e:	693b      	ldr	r3, [r7, #16]
 8003520:	4313      	orrs	r3, r2
 8003522:	61bb      	str	r3, [r7, #24]
        }
        EXTI->FTSR = temp;
 8003524:	4a12      	ldr	r2, [pc, #72]	@ (8003570 <HAL_GPIO_Init+0x334>)
 8003526:	69bb      	ldr	r3, [r7, #24]
 8003528:	60d3      	str	r3, [r2, #12]
  for(position = 0U; position < GPIO_NUMBER; position++)
 800352a:	69fb      	ldr	r3, [r7, #28]
 800352c:	3301      	adds	r3, #1
 800352e:	61fb      	str	r3, [r7, #28]
 8003530:	69fb      	ldr	r3, [r7, #28]
 8003532:	2b0f      	cmp	r3, #15
 8003534:	f67f ae90 	bls.w	8003258 <HAL_GPIO_Init+0x1c>
      }
    }
  }
}
 8003538:	bf00      	nop
 800353a:	bf00      	nop
 800353c:	3724      	adds	r7, #36	@ 0x24
 800353e:	46bd      	mov	sp, r7
 8003540:	f85d 7b04 	ldr.w	r7, [sp], #4
 8003544:	4770      	bx	lr
 8003546:	bf00      	nop
 8003548:	40023800 	.word	0x40023800
 800354c:	40013800 	.word	0x40013800
 8003550:	40020000 	.word	0x40020000
 8003554:	40020400 	.word	0x40020400
 8003558:	40020800 	.word	0x40020800
 800355c:	40020c00 	.word	0x40020c00
 8003560:	40021000 	.word	0x40021000
 8003564:	40021400 	.word	0x40021400
 8003568:	40021800 	.word	0x40021800
 800356c:	40021c00 	.word	0x40021c00
 8003570:	40013c00 	.word	0x40013c00

08003574 <HAL_GPIO_WritePin>:
  *            @arg GPIO_PIN_RESET: to clear the port pin
  *            @arg GPIO_PIN_SET: to set the port pin
  * @retval None
  */
void HAL_GPIO_WritePin(GPIO_TypeDef* GPIOx, uint16_t GPIO_Pin, GPIO_PinState PinState)
{
 8003574:	b480      	push	{r7}
 8003576:	b083      	sub	sp, #12
 8003578:	af00      	add	r7, sp, #0
 800357a:	6078      	str	r0, [r7, #4]
 800357c:	460b      	mov	r3, r1
 800357e:	807b      	strh	r3, [r7, #2]
 8003580:	4613      	mov	r3, r2
 8003582:	707b      	strb	r3, [r7, #1]
  /* Check the parameters */
  assert_param(IS_GPIO_PIN(GPIO_Pin));
  assert_param(IS_GPIO_PIN_ACTION(PinState));

  if(PinState != GPIO_PIN_RESET)
 8003584:	787b      	ldrb	r3, [r7, #1]
 8003586:	2b00      	cmp	r3, #0
 8003588:	d003      	beq.n	8003592 <HAL_GPIO_WritePin+0x1e>
  {
    GPIOx->BSRR = GPIO_Pin;
 800358a:	887a      	ldrh	r2, [r7, #2]
 800358c:	687b      	ldr	r3, [r7, #4]
 800358e:	619a      	str	r2, [r3, #24]
  }
  else
  {
    GPIOx->BSRR = (uint32_t)GPIO_Pin << 16U;
  }
}
 8003590:	e003      	b.n	800359a <HAL_GPIO_WritePin+0x26>
    GPIOx->BSRR = (uint32_t)GPIO_Pin << 16U;
 8003592:	887b      	ldrh	r3, [r7, #2]
 8003594:	041a      	lsls	r2, r3, #16
 8003596:	687b      	ldr	r3, [r7, #4]
 8003598:	619a      	str	r2, [r3, #24]
}
 800359a:	bf00      	nop
 800359c:	370c      	adds	r7, #12
 800359e:	46bd      	mov	sp, r7
 80035a0:	f85d 7b04 	ldr.w	r7, [sp], #4
 80035a4:	4770      	bx	lr

080035a6 <HAL_GPIO_TogglePin>:
  *                      x can be (A..I) to select the GPIO peripheral for STM32F40XX and STM32F427X devices.
  * @param  GPIO_Pin: Specifies the pins to be toggled.
  * @retval None
  */
void HAL_GPIO_TogglePin(GPIO_TypeDef* GPIOx, uint16_t GPIO_Pin)
{
 80035a6:	b480      	push	{r7}
 80035a8:	b083      	sub	sp, #12
 80035aa:	af00      	add	r7, sp, #0
 80035ac:	6078      	str	r0, [r7, #4]
 80035ae:	460b      	mov	r3, r1
 80035b0:	807b      	strh	r3, [r7, #2]
  /* Check the parameters */
  assert_param(IS_GPIO_PIN(GPIO_Pin));

  GPIOx->ODR ^= GPIO_Pin;
 80035b2:	687b      	ldr	r3, [r7, #4]
 80035b4:	695a      	ldr	r2, [r3, #20]
 80035b6:	887b      	ldrh	r3, [r7, #2]
 80035b8:	405a      	eors	r2, r3
 80035ba:	687b      	ldr	r3, [r7, #4]
 80035bc:	615a      	str	r2, [r3, #20]
}
 80035be:	bf00      	nop
 80035c0:	370c      	adds	r7, #12
 80035c2:	46bd      	mov	sp, r7
 80035c4:	f85d 7b04 	ldr.w	r7, [sp], #4
 80035c8:	4770      	bx	lr
	...

080035cc <HAL_RCC_OscConfig>:
  *         supported by this API. User should request a transition to HSE Off
  *         first and then HSE On or HSE Bypass.
  * @retval HAL status
  */
__weak HAL_StatusTypeDef HAL_RCC_OscConfig(RCC_OscInitTypeDef  *RCC_OscInitStruct)
{
 80035cc:	b580      	push	{r7, lr}
 80035ce:	b08e      	sub	sp, #56	@ 0x38
 80035d0:	af00      	add	r7, sp, #0
 80035d2:	6078      	str	r0, [r7, #4]
 uint32_t tickstart = 0U;  
 80035d4:	2300      	movs	r3, #0
 80035d6:	637b      	str	r3, [r7, #52]	@ 0x34
 
  /* Check the parameters */
  assert_param(IS_RCC_OSCILLATORTYPE(RCC_OscInitStruct->OscillatorType));
  /*------------------------------- HSE Configuration ------------------------*/ 
  if(((RCC_OscInitStruct->OscillatorType) & RCC_OSCILLATORTYPE_HSE) == RCC_OSCILLATORTYPE_HSE)
 80035d8:	687b      	ldr	r3, [r7, #4]
 80035da:	681b      	ldr	r3, [r3, #0]
 80035dc:	f003 0301 	and.w	r3, r3, #1
 80035e0:	2b00      	cmp	r3, #0
 80035e2:	d050      	beq.n	8003686 <HAL_RCC_OscConfig+0xba>
  {
    /* Check the parameters */
    assert_param(IS_RCC_HSE(RCC_OscInitStruct->HSEState));
    /* When the HSE is used as system clock or clock source for PLL in these cases HSE will not disabled */
    if((__HAL_RCC_GET_SYSCLK_SOURCE() == RCC_CFGR_SWS_HSE) ||\
 80035e4:	4b96      	ldr	r3, [pc, #600]	@ (8003840 <HAL_RCC_OscConfig+0x274>)
 80035e6:	689b      	ldr	r3, [r3, #8]
 80035e8:	f003 030c 	and.w	r3, r3, #12
 80035ec:	2b04      	cmp	r3, #4
 80035ee:	d00c      	beq.n	800360a <HAL_RCC_OscConfig+0x3e>
      ((__HAL_RCC_GET_SYSCLK_SOURCE() == RCC_CFGR_SWS_PLL) && ((RCC->PLLCFGR & RCC_PLLCFGR_PLLSRC) == RCC_PLLCFGR_PLLSRC_HSE)))
 80035f0:	4b93      	ldr	r3, [pc, #588]	@ (8003840 <HAL_RCC_OscConfig+0x274>)
 80035f2:	689b      	ldr	r3, [r3, #8]
 80035f4:	f003 030c 	and.w	r3, r3, #12
    if((__HAL_RCC_GET_SYSCLK_SOURCE() == RCC_CFGR_SWS_HSE) ||\
 80035f8:	2b08      	cmp	r3, #8
 80035fa:	d112      	bne.n	8003622 <HAL_RCC_OscConfig+0x56>
      ((__HAL_RCC_GET_SYSCLK_SOURCE() == RCC_CFGR_SWS_PLL) && ((RCC->PLLCFGR & RCC_PLLCFGR_PLLSRC) == RCC_PLLCFGR_PLLSRC_HSE)))
 80035fc:	4b90      	ldr	r3, [pc, #576]	@ (8003840 <HAL_RCC_OscConfig+0x274>)
 80035fe:	685b      	ldr	r3, [r3, #4]
 8003600:	f403 0380 	and.w	r3, r3, #4194304	@ 0x400000
 8003604:	f5b3 0f80 	cmp.w	r3, #4194304	@ 0x400000
 8003608:	d10b      	bne.n	8003622 <HAL_RCC_OscConfig+0x56>
    {
      if((__HAL_RCC_GET_FLAG(RCC_FLAG_HSERDY) != RESET) && (RCC_OscInitStruct->HSEState == RCC_HSE_OFF))
 800360a:	4b8d      	ldr	r3, [pc, #564]	@ (8003840 <HAL_RCC_OscConfig+0x274>)
 800360c:	681b      	ldr	r3, [r3, #0]
 800360e:	f403 3300 	and.w	r3, r3, #131072	@ 0x20000
 8003612:	2b00      	cmp	r3, #0
 8003614:	d036      	beq.n	8003684 <HAL_RCC_OscConfig+0xb8>
 8003616:	687b      	ldr	r3, [r7, #4]
 8003618:	685b      	ldr	r3, [r3, #4]
 800361a:	2b00      	cmp	r3, #0
 800361c:	d132      	bne.n	8003684 <HAL_RCC_OscConfig+0xb8>
      {
        return HAL_ERROR;
 800361e:	2301      	movs	r3, #1
 8003620:	e1de      	b.n	80039e0 <HAL_RCC_OscConfig+0x414>
      }
    }
    else
    {
      /* Set the new HSE configuration ---------------------------------------*/
      __HAL_RCC_HSE_CONFIG(RCC_OscInitStruct->HSEState);
 8003622:	687b      	ldr	r3, [r7, #4]
 8003624:	685a      	ldr	r2, [r3, #4]
 8003626:	4b87      	ldr	r3, [pc, #540]	@ (8003844 <HAL_RCC_OscConfig+0x278>)
 8003628:	b2d2      	uxtb	r2, r2
 800362a:	701a      	strb	r2, [r3, #0]
      
      /* Check the HSE State */
      if((RCC_OscInitStruct->HSEState) != RCC_HSE_OFF)
 800362c:	687b      	ldr	r3, [r7, #4]
 800362e:	685b      	ldr	r3, [r3, #4]
 8003630:	2b00      	cmp	r3, #0
 8003632:	d013      	beq.n	800365c <HAL_RCC_OscConfig+0x90>
      {
        /* Get Start Tick*/
        tickstart = HAL_GetTick();
 8003634:	f7ff fd04 	bl	8003040 <HAL_GetTick>
 8003638:	6378      	str	r0, [r7, #52]	@ 0x34
      
        /* Wait till HSE is ready */  
        while(__HAL_RCC_GET_FLAG(RCC_FLAG_HSERDY) == RESET)
 800363a:	e008      	b.n	800364e <HAL_RCC_OscConfig+0x82>
        {
          if((HAL_GetTick() - tickstart ) > HSE_TIMEOUT_VALUE)
 800363c:	f7ff fd00 	bl	8003040 <HAL_GetTick>
 8003640:	4602      	mov	r2, r0
 8003642:	6b7b      	ldr	r3, [r7, #52]	@ 0x34
 8003644:	1ad3      	subs	r3, r2, r3
 8003646:	2b64      	cmp	r3, #100	@ 0x64
 8003648:	d901      	bls.n	800364e <HAL_RCC_OscConfig+0x82>
          {
            return HAL_TIMEOUT;
 800364a:	2303      	movs	r3, #3
 800364c:	e1c8      	b.n	80039e0 <HAL_RCC_OscConfig+0x414>
        while(__HAL_RCC_GET_FLAG(RCC_FLAG_HSERDY) == RESET)
 800364e:	4b7c      	ldr	r3, [pc, #496]	@ (8003840 <HAL_RCC_OscConfig+0x274>)
 8003650:	681b      	ldr	r3, [r3, #0]
 8003652:	f403 3300 	and.w	r3, r3, #131072	@ 0x20000
 8003656:	2b00      	cmp	r3, #0
 8003658:	d0f0      	beq.n	800363c <HAL_RCC_OscConfig+0x70>
 800365a:	e014      	b.n	8003686 <HAL_RCC_OscConfig+0xba>
        }
      }
      else
      {
        /* Get Start Tick*/
        tickstart = HAL_GetTick();
 800365c:	f7ff fcf0 	bl	8003040 <HAL_GetTick>
 8003660:	6378      	str	r0, [r7, #52]	@ 0x34

        /* Wait till HSE is bypassed or disabled */
        while(__HAL_RCC_GET_FLAG(RCC_FLAG_HSERDY) != RESET)
 8003662:	e008      	b.n	8003676 <HAL_RCC_OscConfig+0xaa>
        {
          if((HAL_GetTick() - tickstart ) > HSE_TIMEOUT_VALUE)
 8003664:	f7ff fcec 	bl	8003040 <HAL_GetTick>
 8003668:	4602      	mov	r2, r0
 800366a:	6b7b      	ldr	r3, [r7, #52]	@ 0x34
 800366c:	1ad3      	subs	r3, r2, r3
 800366e:	2b64      	cmp	r3, #100	@ 0x64
 8003670:	d901      	bls.n	8003676 <HAL_RCC_OscConfig+0xaa>
          {
            return HAL_TIMEOUT;
 8003672:	2303      	movs	r3, #3
 8003674:	e1b4      	b.n	80039e0 <HAL_RCC_OscConfig+0x414>
        while(__HAL_RCC_GET_FLAG(RCC_FLAG_HSERDY) != RESET)
 8003676:	4b72      	ldr	r3, [pc, #456]	@ (8003840 <HAL_RCC_OscConfig+0x274>)
 8003678:	681b      	ldr	r3, [r3, #0]
 800367a:	f403 3300 	and.w	r3, r3, #131072	@ 0x20000
 800367e:	2b00      	cmp	r3, #0
 8003680:	d1f0      	bne.n	8003664 <HAL_RCC_OscConfig+0x98>
 8003682:	e000      	b.n	8003686 <HAL_RCC_OscConfig+0xba>
      if((__HAL_RCC_GET_FLAG(RCC_FLAG_HSERDY) != RESET) && (RCC_OscInitStruct->HSEState == RCC_HSE_OFF))
 8003684:	bf00      	nop
        }
      }
    }
  }
  /*----------------------------- HSI Configuration --------------------------*/
  if(((RCC_OscInitStruct->OscillatorType) & RCC_OSCILLATORTYPE_HSI) == RCC_OSCILLATORTYPE_HSI)
 8003686:	687b      	ldr	r3, [r7, #4]
 8003688:	681b      	ldr	r3, [r3, #0]
 800368a:	f003 0302 	and.w	r3, r3, #2
 800368e:	2b00      	cmp	r3, #0
 8003690:	d077      	beq.n	8003782 <HAL_RCC_OscConfig+0x1b6>
    /* Check the parameters */
    assert_param(IS_RCC_HSI(RCC_OscInitStruct->HSIState));
    assert_param(IS_RCC_CALIBRATION_VALUE(RCC_OscInitStruct->HSICalibrationValue));
    
    /* Check if HSI is used as system clock or as PLL source when PLL is selected as system clock */
    if((__HAL_RCC_GET_SYSCLK_SOURCE() == RCC_CFGR_SWS_HSI) ||\
 8003692:	4b6b      	ldr	r3, [pc, #428]	@ (8003840 <HAL_RCC_OscConfig+0x274>)
 8003694:	689b      	ldr	r3, [r3, #8]
 8003696:	f003 030c 	and.w	r3, r3, #12
 800369a:	2b00      	cmp	r3, #0
 800369c:	d00b      	beq.n	80036b6 <HAL_RCC_OscConfig+0xea>
      ((__HAL_RCC_GET_SYSCLK_SOURCE() == RCC_CFGR_SWS_PLL) && ((RCC->PLLCFGR & RCC_PLLCFGR_PLLSRC) == RCC_PLLCFGR_PLLSRC_HSI)))
 800369e:	4b68      	ldr	r3, [pc, #416]	@ (8003840 <HAL_RCC_OscConfig+0x274>)
 80036a0:	689b      	ldr	r3, [r3, #8]
 80036a2:	f003 030c 	and.w	r3, r3, #12
    if((__HAL_RCC_GET_SYSCLK_SOURCE() == RCC_CFGR_SWS_HSI) ||\
 80036a6:	2b08      	cmp	r3, #8
 80036a8:	d126      	bne.n	80036f8 <HAL_RCC_OscConfig+0x12c>
      ((__HAL_RCC_GET_SYSCLK_SOURCE() == RCC_CFGR_SWS_PLL) && ((RCC->PLLCFGR & RCC_PLLCFGR_PLLSRC) == RCC_PLLCFGR_PLLSRC_HSI)))
 80036aa:	4b65      	ldr	r3, [pc, #404]	@ (8003840 <HAL_RCC_OscConfig+0x274>)
 80036ac:	685b      	ldr	r3, [r3, #4]
 80036ae:	f403 0380 	and.w	r3, r3, #4194304	@ 0x400000
 80036b2:	2b00      	cmp	r3, #0
 80036b4:	d120      	bne.n	80036f8 <HAL_RCC_OscConfig+0x12c>
    {
      /* When HSI is used as system clock it will not disabled */
      if((__HAL_RCC_GET_FLAG(RCC_FLAG_HSIRDY) != RESET) && (RCC_OscInitStruct->HSIState != RCC_HSI_ON))
 80036b6:	4b62      	ldr	r3, [pc, #392]	@ (8003840 <HAL_RCC_OscConfig+0x274>)
 80036b8:	681b      	ldr	r3, [r3, #0]
 80036ba:	f003 0302 	and.w	r3, r3, #2
 80036be:	2b00      	cmp	r3, #0
 80036c0:	d005      	beq.n	80036ce <HAL_RCC_OscConfig+0x102>
 80036c2:	687b      	ldr	r3, [r7, #4]
 80036c4:	68db      	ldr	r3, [r3, #12]
 80036c6:	2b01      	cmp	r3, #1
 80036c8:	d001      	beq.n	80036ce <HAL_RCC_OscConfig+0x102>
      {
        return HAL_ERROR;
 80036ca:	2301      	movs	r3, #1
 80036cc:	e188      	b.n	80039e0 <HAL_RCC_OscConfig+0x414>
      }
      /* Otherwise, just the calibration is allowed */
      else
      {
        /* Adjusts the Internal High Speed oscillator (HSI) calibration value.*/
        __HAL_RCC_HSI_CALIBRATIONVALUE_ADJUST(RCC_OscInitStruct->HSICalibrationValue);
 80036ce:	4b5c      	ldr	r3, [pc, #368]	@ (8003840 <HAL_RCC_OscConfig+0x274>)
 80036d0:	681b      	ldr	r3, [r3, #0]
 80036d2:	f023 02f8 	bic.w	r2, r3, #248	@ 0xf8
 80036d6:	687b      	ldr	r3, [r7, #4]
 80036d8:	6919      	ldr	r1, [r3, #16]
 80036da:	23f8      	movs	r3, #248	@ 0xf8
 80036dc:	633b      	str	r3, [r7, #48]	@ 0x30
__attribute__((always_inline)) __STATIC_INLINE uint32_t __RBIT(uint32_t value)
{
  uint32_t result;

#if       (__CORTEX_M >= 0x03U) || (__CORTEX_SC >= 300U)
   __ASM volatile ("rbit %0, %1" : "=r" (result) : "r" (value) );
 80036de:	6b3b      	ldr	r3, [r7, #48]	@ 0x30
 80036e0:	fa93 f3a3 	rbit	r3, r3
 80036e4:	62fb      	str	r3, [r7, #44]	@ 0x2c
    result |= value & 1U;
    s--;
  }
  result <<= s;                        /* shift when v's highest bits are zero */
#endif
  return(result);
 80036e6:	6afb      	ldr	r3, [r7, #44]	@ 0x2c
 80036e8:	fab3 f383 	clz	r3, r3
 80036ec:	fa01 f303 	lsl.w	r3, r1, r3
 80036f0:	4953      	ldr	r1, [pc, #332]	@ (8003840 <HAL_RCC_OscConfig+0x274>)
 80036f2:	4313      	orrs	r3, r2
 80036f4:	600b      	str	r3, [r1, #0]
      if((__HAL_RCC_GET_FLAG(RCC_FLAG_HSIRDY) != RESET) && (RCC_OscInitStruct->HSIState != RCC_HSI_ON))
 80036f6:	e044      	b.n	8003782 <HAL_RCC_OscConfig+0x1b6>
      }
    }
    else
    {
      /* Check the HSI State */
      if((RCC_OscInitStruct->HSIState)!= RCC_HSI_OFF)
 80036f8:	687b      	ldr	r3, [r7, #4]
 80036fa:	68db      	ldr	r3, [r3, #12]
 80036fc:	2b00      	cmp	r3, #0
 80036fe:	d02a      	beq.n	8003756 <HAL_RCC_OscConfig+0x18a>
      {
        /* Enable the Internal High Speed oscillator (HSI). */
        __HAL_RCC_HSI_ENABLE();
 8003700:	4b51      	ldr	r3, [pc, #324]	@ (8003848 <HAL_RCC_OscConfig+0x27c>)
 8003702:	2201      	movs	r2, #1
 8003704:	601a      	str	r2, [r3, #0]

        /* Get Start Tick*/
        tickstart = HAL_GetTick();
 8003706:	f7ff fc9b 	bl	8003040 <HAL_GetTick>
 800370a:	6378      	str	r0, [r7, #52]	@ 0x34

        /* Wait till HSI is ready */  
        while(__HAL_RCC_GET_FLAG(RCC_FLAG_HSIRDY) == RESET)
 800370c:	e008      	b.n	8003720 <HAL_RCC_OscConfig+0x154>
        {
          if((HAL_GetTick() - tickstart ) > HSI_TIMEOUT_VALUE)
 800370e:	f7ff fc97 	bl	8003040 <HAL_GetTick>
 8003712:	4602      	mov	r2, r0
 8003714:	6b7b      	ldr	r3, [r7, #52]	@ 0x34
 8003716:	1ad3      	subs	r3, r2, r3
 8003718:	2b02      	cmp	r3, #2
 800371a:	d901      	bls.n	8003720 <HAL_RCC_OscConfig+0x154>
          {
            return HAL_TIMEOUT;
 800371c:	2303      	movs	r3, #3
 800371e:	e15f      	b.n	80039e0 <HAL_RCC_OscConfig+0x414>
        while(__HAL_RCC_GET_FLAG(RCC_FLAG_HSIRDY) == RESET)
 8003720:	4b47      	ldr	r3, [pc, #284]	@ (8003840 <HAL_RCC_OscConfig+0x274>)
 8003722:	681b      	ldr	r3, [r3, #0]
 8003724:	f003 0302 	and.w	r3, r3, #2
 8003728:	2b00      	cmp	r3, #0
 800372a:	d0f0      	beq.n	800370e <HAL_RCC_OscConfig+0x142>
          }       
        } 
                
        /* Adjusts the Internal High Speed oscillator (HSI) calibration value.*/
        __HAL_RCC_HSI_CALIBRATIONVALUE_ADJUST(RCC_OscInitStruct->HSICalibrationValue);
 800372c:	4b44      	ldr	r3, [pc, #272]	@ (8003840 <HAL_RCC_OscConfig+0x274>)
 800372e:	681b      	ldr	r3, [r3, #0]
 8003730:	f023 02f8 	bic.w	r2, r3, #248	@ 0xf8
 8003734:	687b      	ldr	r3, [r7, #4]
 8003736:	6919      	ldr	r1, [r3, #16]
 8003738:	23f8      	movs	r3, #248	@ 0xf8
 800373a:	62bb      	str	r3, [r7, #40]	@ 0x28
   __ASM volatile ("rbit %0, %1" : "=r" (result) : "r" (value) );
 800373c:	6abb      	ldr	r3, [r7, #40]	@ 0x28
 800373e:	fa93 f3a3 	rbit	r3, r3
 8003742:	627b      	str	r3, [r7, #36]	@ 0x24
  return(result);
 8003744:	6a7b      	ldr	r3, [r7, #36]	@ 0x24
 8003746:	fab3 f383 	clz	r3, r3
 800374a:	fa01 f303 	lsl.w	r3, r1, r3
 800374e:	493c      	ldr	r1, [pc, #240]	@ (8003840 <HAL_RCC_OscConfig+0x274>)
 8003750:	4313      	orrs	r3, r2
 8003752:	600b      	str	r3, [r1, #0]
 8003754:	e015      	b.n	8003782 <HAL_RCC_OscConfig+0x1b6>
      }
      else
      {
        /* Disable the Internal High Speed oscillator (HSI). */
        __HAL_RCC_HSI_DISABLE();
 8003756:	4b3c      	ldr	r3, [pc, #240]	@ (8003848 <HAL_RCC_OscConfig+0x27c>)
 8003758:	2200      	movs	r2, #0
 800375a:	601a      	str	r2, [r3, #0]

        /* Get Start Tick*/
        tickstart = HAL_GetTick();
 800375c:	f7ff fc70 	bl	8003040 <HAL_GetTick>
 8003760:	6378      	str	r0, [r7, #52]	@ 0x34
      
        /* Wait till HSI is ready */  
        while(__HAL_RCC_GET_FLAG(RCC_FLAG_HSIRDY) != RESET)
 8003762:	e008      	b.n	8003776 <HAL_RCC_OscConfig+0x1aa>
        {
          if((HAL_GetTick() - tickstart ) > HSI_TIMEOUT_VALUE)
 8003764:	f7ff fc6c 	bl	8003040 <HAL_GetTick>
 8003768:	4602      	mov	r2, r0
 800376a:	6b7b      	ldr	r3, [r7, #52]	@ 0x34
 800376c:	1ad3      	subs	r3, r2, r3
 800376e:	2b02      	cmp	r3, #2
 8003770:	d901      	bls.n	8003776 <HAL_RCC_OscConfig+0x1aa>
          {
            return HAL_TIMEOUT;
 8003772:	2303      	movs	r3, #3
 8003774:	e134      	b.n	80039e0 <HAL_RCC_OscConfig+0x414>
        while(__HAL_RCC_GET_FLAG(RCC_FLAG_HSIRDY) != RESET)
 8003776:	4b32      	ldr	r3, [pc, #200]	@ (8003840 <HAL_RCC_OscConfig+0x274>)
 8003778:	681b      	ldr	r3, [r3, #0]
 800377a:	f003 0302 	and.w	r3, r3, #2
 800377e:	2b00      	cmp	r3, #0
 8003780:	d1f0      	bne.n	8003764 <HAL_RCC_OscConfig+0x198>
        } 
      }
    }
  }
  /*------------------------------ LSI Configuration -------------------------*/
  if(((RCC_OscInitStruct->OscillatorType) & RCC_OSCILLATORTYPE_LSI) == RCC_OSCILLATORTYPE_LSI)
 8003782:	687b      	ldr	r3, [r7, #4]
 8003784:	681b      	ldr	r3, [r3, #0]
 8003786:	f003 0308 	and.w	r3, r3, #8
 800378a:	2b00      	cmp	r3, #0
 800378c:	d030      	beq.n	80037f0 <HAL_RCC_OscConfig+0x224>
  {
    /* Check the parameters */
    assert_param(IS_RCC_LSI(RCC_OscInitStruct->LSIState));

    /* Check the LSI State */
    if((RCC_OscInitStruct->LSIState)!= RCC_LSI_OFF)
 800378e:	687b      	ldr	r3, [r7, #4]
 8003790:	695b      	ldr	r3, [r3, #20]
 8003792:	2b00      	cmp	r3, #0
 8003794:	d016      	beq.n	80037c4 <HAL_RCC_OscConfig+0x1f8>
    {
      /* Enable the Internal Low Speed oscillator (LSI). */
      __HAL_RCC_LSI_ENABLE();
 8003796:	4b2d      	ldr	r3, [pc, #180]	@ (800384c <HAL_RCC_OscConfig+0x280>)
 8003798:	2201      	movs	r2, #1
 800379a:	601a      	str	r2, [r3, #0]
      
      /* Get Start Tick*/
      tickstart = HAL_GetTick();
 800379c:	f7ff fc50 	bl	8003040 <HAL_GetTick>
 80037a0:	6378      	str	r0, [r7, #52]	@ 0x34
      
      /* Wait till LSI is ready */
      while(__HAL_RCC_GET_FLAG(RCC_FLAG_LSIRDY) == RESET)
 80037a2:	e008      	b.n	80037b6 <HAL_RCC_OscConfig+0x1ea>
      {
        if((HAL_GetTick() - tickstart ) > LSI_TIMEOUT_VALUE)
 80037a4:	f7ff fc4c 	bl	8003040 <HAL_GetTick>
 80037a8:	4602      	mov	r2, r0
 80037aa:	6b7b      	ldr	r3, [r7, #52]	@ 0x34
 80037ac:	1ad3      	subs	r3, r2, r3
 80037ae:	2b02      	cmp	r3, #2
 80037b0:	d901      	bls.n	80037b6 <HAL_RCC_OscConfig+0x1ea>
        {
          return HAL_TIMEOUT;
 80037b2:	2303      	movs	r3, #3
 80037b4:	e114      	b.n	80039e0 <HAL_RCC_OscConfig+0x414>
      while(__HAL_RCC_GET_FLAG(RCC_FLAG_LSIRDY) == RESET)
 80037b6:	4b22      	ldr	r3, [pc, #136]	@ (8003840 <HAL_RCC_OscConfig+0x274>)
 80037b8:	6f5b      	ldr	r3, [r3, #116]	@ 0x74
 80037ba:	f003 0302 	and.w	r3, r3, #2
 80037be:	2b00      	cmp	r3, #0
 80037c0:	d0f0      	beq.n	80037a4 <HAL_RCC_OscConfig+0x1d8>
 80037c2:	e015      	b.n	80037f0 <HAL_RCC_OscConfig+0x224>
      }
    }
    else
    {
      /* Disable the Internal Low Speed oscillator (LSI). */
      __HAL_RCC_LSI_DISABLE();
 80037c4:	4b21      	ldr	r3, [pc, #132]	@ (800384c <HAL_RCC_OscConfig+0x280>)
 80037c6:	2200      	movs	r2, #0
 80037c8:	601a      	str	r2, [r3, #0]
      
      /* Get Start Tick*/
      tickstart = HAL_GetTick();
 80037ca:	f7ff fc39 	bl	8003040 <HAL_GetTick>
 80037ce:	6378      	str	r0, [r7, #52]	@ 0x34
      
      /* Wait till LSI is ready */  
      while(__HAL_RCC_GET_FLAG(RCC_FLAG_LSIRDY) != RESET)
 80037d0:	e008      	b.n	80037e4 <HAL_RCC_OscConfig+0x218>
      {
        if((HAL_GetTick() - tickstart ) > LSI_TIMEOUT_VALUE)
 80037d2:	f7ff fc35 	bl	8003040 <HAL_GetTick>
 80037d6:	4602      	mov	r2, r0
 80037d8:	6b7b      	ldr	r3, [r7, #52]	@ 0x34
 80037da:	1ad3      	subs	r3, r2, r3
 80037dc:	2b02      	cmp	r3, #2
 80037de:	d901      	bls.n	80037e4 <HAL_RCC_OscConfig+0x218>
        {
          return HAL_TIMEOUT;
 80037e0:	2303      	movs	r3, #3
 80037e2:	e0fd      	b.n	80039e0 <HAL_RCC_OscConfig+0x414>
      while(__HAL_RCC_GET_FLAG(RCC_FLAG_LSIRDY) != RESET)
 80037e4:	4b16      	ldr	r3, [pc, #88]	@ (8003840 <HAL_RCC_OscConfig+0x274>)
 80037e6:	6f5b      	ldr	r3, [r3, #116]	@ 0x74
 80037e8:	f003 0302 	and.w	r3, r3, #2
 80037ec:	2b00      	cmp	r3, #0
 80037ee:	d1f0      	bne.n	80037d2 <HAL_RCC_OscConfig+0x206>
        }       
      } 
    }
  }
  /*------------------------------ LSE Configuration -------------------------*/ 
  if(((RCC_OscInitStruct->OscillatorType) & RCC_OSCILLATORTYPE_LSE) == RCC_OSCILLATORTYPE_LSE)
 80037f0:	687b      	ldr	r3, [r7, #4]
 80037f2:	681b      	ldr	r3, [r3, #0]
 80037f4:	f003 0304 	and.w	r3, r3, #4
 80037f8:	2b00      	cmp	r3, #0
 80037fa:	d065      	beq.n	80038c8 <HAL_RCC_OscConfig+0x2fc>
  {
    /* Check the parameters */
    assert_param(IS_RCC_LSE(RCC_OscInitStruct->LSEState));
    
    /* Enable Power Clock*/
    __HAL_RCC_PWR_CLK_ENABLE();
 80037fc:	2300      	movs	r3, #0
 80037fe:	60bb      	str	r3, [r7, #8]
 8003800:	4b0f      	ldr	r3, [pc, #60]	@ (8003840 <HAL_RCC_OscConfig+0x274>)
 8003802:	6c1b      	ldr	r3, [r3, #64]	@ 0x40
 8003804:	4a0e      	ldr	r2, [pc, #56]	@ (8003840 <HAL_RCC_OscConfig+0x274>)
 8003806:	f043 5380 	orr.w	r3, r3, #268435456	@ 0x10000000
 800380a:	6413      	str	r3, [r2, #64]	@ 0x40
 800380c:	4b0c      	ldr	r3, [pc, #48]	@ (8003840 <HAL_RCC_OscConfig+0x274>)
 800380e:	6c1b      	ldr	r3, [r3, #64]	@ 0x40
 8003810:	f003 5380 	and.w	r3, r3, #268435456	@ 0x10000000
 8003814:	60bb      	str	r3, [r7, #8]
 8003816:	68bb      	ldr	r3, [r7, #8]
    
    /* Enable write access to Backup domain */
    PWR->CR |= PWR_CR_DBP;
 8003818:	4b0d      	ldr	r3, [pc, #52]	@ (8003850 <HAL_RCC_OscConfig+0x284>)
 800381a:	681b      	ldr	r3, [r3, #0]
 800381c:	4a0c      	ldr	r2, [pc, #48]	@ (8003850 <HAL_RCC_OscConfig+0x284>)
 800381e:	f443 7380 	orr.w	r3, r3, #256	@ 0x100
 8003822:	6013      	str	r3, [r2, #0]
    
    /* Wait for Backup domain Write protection enable */
    tickstart = HAL_GetTick();
 8003824:	f7ff fc0c 	bl	8003040 <HAL_GetTick>
 8003828:	6378      	str	r0, [r7, #52]	@ 0x34
    
    while((PWR->CR & PWR_CR_DBP) == RESET)
 800382a:	e013      	b.n	8003854 <HAL_RCC_OscConfig+0x288>
    {
      if((HAL_GetTick() - tickstart ) > RCC_DBP_TIMEOUT_VALUE)
 800382c:	f7ff fc08 	bl	8003040 <HAL_GetTick>
 8003830:	4602      	mov	r2, r0
 8003832:	6b7b      	ldr	r3, [r7, #52]	@ 0x34
 8003834:	1ad3      	subs	r3, r2, r3
 8003836:	2b02      	cmp	r3, #2
 8003838:	d90c      	bls.n	8003854 <HAL_RCC_OscConfig+0x288>
      {
        return HAL_TIMEOUT;
 800383a:	2303      	movs	r3, #3
 800383c:	e0d0      	b.n	80039e0 <HAL_RCC_OscConfig+0x414>
 800383e:	bf00      	nop
 8003840:	40023800 	.word	0x40023800
 8003844:	40023802 	.word	0x40023802
 8003848:	42470000 	.word	0x42470000
 800384c:	42470e80 	.word	0x42470e80
 8003850:	40007000 	.word	0x40007000
    while((PWR->CR & PWR_CR_DBP) == RESET)
 8003854:	4b64      	ldr	r3, [pc, #400]	@ (80039e8 <HAL_RCC_OscConfig+0x41c>)
 8003856:	681b      	ldr	r3, [r3, #0]
 8003858:	f403 7380 	and.w	r3, r3, #256	@ 0x100
 800385c:	2b00      	cmp	r3, #0
 800385e:	d0e5      	beq.n	800382c <HAL_RCC_OscConfig+0x260>
      }      
    }

    /* Set the new LSE configuration -----------------------------------------*/
    __HAL_RCC_LSE_CONFIG(RCC_OscInitStruct->LSEState);
 8003860:	687b      	ldr	r3, [r7, #4]
 8003862:	689a      	ldr	r2, [r3, #8]
 8003864:	4b61      	ldr	r3, [pc, #388]	@ (80039ec <HAL_RCC_OscConfig+0x420>)
 8003866:	b2d2      	uxtb	r2, r2
 8003868:	701a      	strb	r2, [r3, #0]
    /* Check the LSE State */
    if((RCC_OscInitStruct->LSEState) != RCC_LSE_OFF)
 800386a:	687b      	ldr	r3, [r7, #4]
 800386c:	689b      	ldr	r3, [r3, #8]
 800386e:	2b00      	cmp	r3, #0
 8003870:	d015      	beq.n	800389e <HAL_RCC_OscConfig+0x2d2>
    {
      /* Get Start Tick*/
      tickstart = HAL_GetTick();
 8003872:	f7ff fbe5 	bl	8003040 <HAL_GetTick>
 8003876:	6378      	str	r0, [r7, #52]	@ 0x34
      
      /* Wait till LSE is ready */  
      while(__HAL_RCC_GET_FLAG(RCC_FLAG_LSERDY) == RESET)
 8003878:	e00a      	b.n	8003890 <HAL_RCC_OscConfig+0x2c4>
      {
        if((HAL_GetTick() - tickstart ) > RCC_LSE_TIMEOUT_VALUE)
 800387a:	f7ff fbe1 	bl	8003040 <HAL_GetTick>
 800387e:	4602      	mov	r2, r0
 8003880:	6b7b      	ldr	r3, [r7, #52]	@ 0x34
 8003882:	1ad3      	subs	r3, r2, r3
 8003884:	f241 3288 	movw	r2, #5000	@ 0x1388
 8003888:	4293      	cmp	r3, r2
 800388a:	d901      	bls.n	8003890 <HAL_RCC_OscConfig+0x2c4>
        {
          return HAL_TIMEOUT;
 800388c:	2303      	movs	r3, #3
 800388e:	e0a7      	b.n	80039e0 <HAL_RCC_OscConfig+0x414>
      while(__HAL_RCC_GET_FLAG(RCC_FLAG_LSERDY) == RESET)
 8003890:	4b57      	ldr	r3, [pc, #348]	@ (80039f0 <HAL_RCC_OscConfig+0x424>)
 8003892:	6f1b      	ldr	r3, [r3, #112]	@ 0x70
 8003894:	f003 0302 	and.w	r3, r3, #2
 8003898:	2b00      	cmp	r3, #0
 800389a:	d0ee      	beq.n	800387a <HAL_RCC_OscConfig+0x2ae>
 800389c:	e014      	b.n	80038c8 <HAL_RCC_OscConfig+0x2fc>
      }
    }
    else
    {
      /* Get Start Tick*/
      tickstart = HAL_GetTick();
 800389e:	f7ff fbcf 	bl	8003040 <HAL_GetTick>
 80038a2:	6378      	str	r0, [r7, #52]	@ 0x34
      
      /* Wait till LSE is ready */  
      while(__HAL_RCC_GET_FLAG(RCC_FLAG_LSERDY) != RESET)
 80038a4:	e00a      	b.n	80038bc <HAL_RCC_OscConfig+0x2f0>
      {
        if((HAL_GetTick() - tickstart ) > RCC_LSE_TIMEOUT_VALUE)
 80038a6:	f7ff fbcb 	bl	8003040 <HAL_GetTick>
 80038aa:	4602      	mov	r2, r0
 80038ac:	6b7b      	ldr	r3, [r7, #52]	@ 0x34
 80038ae:	1ad3      	subs	r3, r2, r3
 80038b0:	f241 3288 	movw	r2, #5000	@ 0x1388
 80038b4:	4293      	cmp	r3, r2
 80038b6:	d901      	bls.n	80038bc <HAL_RCC_OscConfig+0x2f0>
        {
          return HAL_TIMEOUT;
 80038b8:	2303      	movs	r3, #3
 80038ba:	e091      	b.n	80039e0 <HAL_RCC_OscConfig+0x414>
      while(__HAL_RCC_GET_FLAG(RCC_FLAG_LSERDY) != RESET)
 80038bc:	4b4c      	ldr	r3, [pc, #304]	@ (80039f0 <HAL_RCC_OscConfig+0x424>)
 80038be:	6f1b      	ldr	r3, [r3, #112]	@ 0x70
 80038c0:	f003 0302 	and.w	r3, r3, #2
 80038c4:	2b00      	cmp	r3, #0
 80038c6:	d1ee      	bne.n	80038a6 <HAL_RCC_OscConfig+0x2da>
    }
  }
  /*-------------------------------- PLL Configuration -----------------------*/
  /* Check the parameters */
  assert_param(IS_RCC_PLL(RCC_OscInitStruct->PLL.PLLState));
  if ((RCC_OscInitStruct->PLL.PLLState) != RCC_PLL_NONE)
 80038c8:	687b      	ldr	r3, [r7, #4]
 80038ca:	699b      	ldr	r3, [r3, #24]
 80038cc:	2b00      	cmp	r3, #0
 80038ce:	f000 8086 	beq.w	80039de <HAL_RCC_OscConfig+0x412>
  {
    /* Check if the PLL is used as system clock or not */
    if(__HAL_RCC_GET_SYSCLK_SOURCE() != RCC_CFGR_SWS_PLL)
 80038d2:	4b47      	ldr	r3, [pc, #284]	@ (80039f0 <HAL_RCC_OscConfig+0x424>)
 80038d4:	689b      	ldr	r3, [r3, #8]
 80038d6:	f003 030c 	and.w	r3, r3, #12
 80038da:	2b08      	cmp	r3, #8
 80038dc:	d07d      	beq.n	80039da <HAL_RCC_OscConfig+0x40e>
    { 
      if((RCC_OscInitStruct->PLL.PLLState) == RCC_PLL_ON)
 80038de:	687b      	ldr	r3, [r7, #4]
 80038e0:	699b      	ldr	r3, [r3, #24]
 80038e2:	2b02      	cmp	r3, #2
 80038e4:	d162      	bne.n	80039ac <HAL_RCC_OscConfig+0x3e0>
        assert_param(IS_RCC_PLLN_VALUE(RCC_OscInitStruct->PLL.PLLN));
        assert_param(IS_RCC_PLLP_VALUE(RCC_OscInitStruct->PLL.PLLP));
        assert_param(IS_RCC_PLLQ_VALUE(RCC_OscInitStruct->PLL.PLLQ));
      
        /* Disable the main PLL. */
        __HAL_RCC_PLL_DISABLE();
 80038e6:	4b43      	ldr	r3, [pc, #268]	@ (80039f4 <HAL_RCC_OscConfig+0x428>)
 80038e8:	2200      	movs	r2, #0
 80038ea:	601a      	str	r2, [r3, #0]
        
        /* Get Start Tick*/
        tickstart = HAL_GetTick();
 80038ec:	f7ff fba8 	bl	8003040 <HAL_GetTick>
 80038f0:	6378      	str	r0, [r7, #52]	@ 0x34
        
        /* Wait till PLL is ready */  
        while(__HAL_RCC_GET_FLAG(RCC_FLAG_PLLRDY) != RESET)
 80038f2:	e008      	b.n	8003906 <HAL_RCC_OscConfig+0x33a>
        {
          if((HAL_GetTick() - tickstart ) > PLL_TIMEOUT_VALUE)
 80038f4:	f7ff fba4 	bl	8003040 <HAL_GetTick>
 80038f8:	4602      	mov	r2, r0
 80038fa:	6b7b      	ldr	r3, [r7, #52]	@ 0x34
 80038fc:	1ad3      	subs	r3, r2, r3
 80038fe:	2b02      	cmp	r3, #2
 8003900:	d901      	bls.n	8003906 <HAL_RCC_OscConfig+0x33a>
          {
            return HAL_TIMEOUT;
 8003902:	2303      	movs	r3, #3
 8003904:	e06c      	b.n	80039e0 <HAL_RCC_OscConfig+0x414>
        while(__HAL_RCC_GET_FLAG(RCC_FLAG_PLLRDY) != RESET)
 8003906:	4b3a      	ldr	r3, [pc, #232]	@ (80039f0 <HAL_RCC_OscConfig+0x424>)
 8003908:	681b      	ldr	r3, [r3, #0]
 800390a:	f003 7300 	and.w	r3, r3, #33554432	@ 0x2000000
 800390e:	2b00      	cmp	r3, #0
 8003910:	d1f0      	bne.n	80038f4 <HAL_RCC_OscConfig+0x328>
          }
        }        

        /* Configure the main PLL clock source, multiplication and division factors. */
        WRITE_REG(RCC->PLLCFGR, (RCC_OscInitStruct->PLL.PLLSource                                            | \
 8003912:	687b      	ldr	r3, [r7, #4]
 8003914:	69da      	ldr	r2, [r3, #28]
 8003916:	687b      	ldr	r3, [r7, #4]
 8003918:	6a1b      	ldr	r3, [r3, #32]
 800391a:	431a      	orrs	r2, r3
 800391c:	687b      	ldr	r3, [r7, #4]
 800391e:	6a59      	ldr	r1, [r3, #36]	@ 0x24
 8003920:	f647 73c0 	movw	r3, #32704	@ 0x7fc0
 8003924:	613b      	str	r3, [r7, #16]
   __ASM volatile ("rbit %0, %1" : "=r" (result) : "r" (value) );
 8003926:	693b      	ldr	r3, [r7, #16]
 8003928:	fa93 f3a3 	rbit	r3, r3
 800392c:	60fb      	str	r3, [r7, #12]
  return(result);
 800392e:	68fb      	ldr	r3, [r7, #12]
 8003930:	fab3 f383 	clz	r3, r3
 8003934:	fa01 f303 	lsl.w	r3, r1, r3
 8003938:	431a      	orrs	r2, r3
 800393a:	687b      	ldr	r3, [r7, #4]
 800393c:	6a9b      	ldr	r3, [r3, #40]	@ 0x28
 800393e:	085b      	lsrs	r3, r3, #1
 8003940:	1e59      	subs	r1, r3, #1
 8003942:	f44f 3340 	mov.w	r3, #196608	@ 0x30000
 8003946:	61bb      	str	r3, [r7, #24]
   __ASM volatile ("rbit %0, %1" : "=r" (result) : "r" (value) );
 8003948:	69bb      	ldr	r3, [r7, #24]
 800394a:	fa93 f3a3 	rbit	r3, r3
 800394e:	617b      	str	r3, [r7, #20]
  return(result);
 8003950:	697b      	ldr	r3, [r7, #20]
 8003952:	fab3 f383 	clz	r3, r3
 8003956:	fa01 f303 	lsl.w	r3, r1, r3
 800395a:	431a      	orrs	r2, r3
 800395c:	687b      	ldr	r3, [r7, #4]
 800395e:	6ad9      	ldr	r1, [r3, #44]	@ 0x2c
 8003960:	f04f 6370 	mov.w	r3, #251658240	@ 0xf000000
 8003964:	623b      	str	r3, [r7, #32]
   __ASM volatile ("rbit %0, %1" : "=r" (result) : "r" (value) );
 8003966:	6a3b      	ldr	r3, [r7, #32]
 8003968:	fa93 f3a3 	rbit	r3, r3
 800396c:	61fb      	str	r3, [r7, #28]
  return(result);
 800396e:	69fb      	ldr	r3, [r7, #28]
 8003970:	fab3 f383 	clz	r3, r3
 8003974:	fa01 f303 	lsl.w	r3, r1, r3
 8003978:	491d      	ldr	r1, [pc, #116]	@ (80039f0 <HAL_RCC_OscConfig+0x424>)
 800397a:	4313      	orrs	r3, r2
 800397c:	604b      	str	r3, [r1, #4]
                                 RCC_OscInitStruct->PLL.PLLM                                                 | \
                                 (RCC_OscInitStruct->PLL.PLLN << POSITION_VAL(RCC_PLLCFGR_PLLN))             | \
                                 (((RCC_OscInitStruct->PLL.PLLP >> 1U) - 1U) << POSITION_VAL(RCC_PLLCFGR_PLLP)) | \
                                 (RCC_OscInitStruct->PLL.PLLQ << POSITION_VAL(RCC_PLLCFGR_PLLQ))));
        /* Enable the main PLL. */
        __HAL_RCC_PLL_ENABLE();
 800397e:	4b1d      	ldr	r3, [pc, #116]	@ (80039f4 <HAL_RCC_OscConfig+0x428>)
 8003980:	2201      	movs	r2, #1
 8003982:	601a      	str	r2, [r3, #0]

        /* Get Start Tick*/
        tickstart = HAL_GetTick();
 8003984:	f7ff fb5c 	bl	8003040 <HAL_GetTick>
 8003988:	6378      	str	r0, [r7, #52]	@ 0x34
        
        /* Wait till PLL is ready */  
        while(__HAL_RCC_GET_FLAG(RCC_FLAG_PLLRDY) == RESET)
 800398a:	e008      	b.n	800399e <HAL_RCC_OscConfig+0x3d2>
        {
          if((HAL_GetTick() - tickstart ) > PLL_TIMEOUT_VALUE)
 800398c:	f7ff fb58 	bl	8003040 <HAL_GetTick>
 8003990:	4602      	mov	r2, r0
 8003992:	6b7b      	ldr	r3, [r7, #52]	@ 0x34
 8003994:	1ad3      	subs	r3, r2, r3
 8003996:	2b02      	cmp	r3, #2
 8003998:	d901      	bls.n	800399e <HAL_RCC_OscConfig+0x3d2>
          {
            return HAL_TIMEOUT;
 800399a:	2303      	movs	r3, #3
 800399c:	e020      	b.n	80039e0 <HAL_RCC_OscConfig+0x414>
        while(__HAL_RCC_GET_FLAG(RCC_FLAG_PLLRDY) == RESET)
 800399e:	4b14      	ldr	r3, [pc, #80]	@ (80039f0 <HAL_RCC_OscConfig+0x424>)
 80039a0:	681b      	ldr	r3, [r3, #0]
 80039a2:	f003 7300 	and.w	r3, r3, #33554432	@ 0x2000000
 80039a6:	2b00      	cmp	r3, #0
 80039a8:	d0f0      	beq.n	800398c <HAL_RCC_OscConfig+0x3c0>
 80039aa:	e018      	b.n	80039de <HAL_RCC_OscConfig+0x412>
        }
      }
      else
      {
        /* Disable the main PLL. */
        __HAL_RCC_PLL_DISABLE();
 80039ac:	4b11      	ldr	r3, [pc, #68]	@ (80039f4 <HAL_RCC_OscConfig+0x428>)
 80039ae:	2200      	movs	r2, #0
 80039b0:	601a      	str	r2, [r3, #0]
 
        /* Get Start Tick*/
        tickstart = HAL_GetTick();
 80039b2:	f7ff fb45 	bl	8003040 <HAL_GetTick>
 80039b6:	6378      	str	r0, [r7, #52]	@ 0x34
        
        /* Wait till PLL is ready */  
        while(__HAL_RCC_GET_FLAG(RCC_FLAG_PLLRDY) != RESET)
 80039b8:	e008      	b.n	80039cc <HAL_RCC_OscConfig+0x400>
        {
          if((HAL_GetTick() - tickstart ) > PLL_TIMEOUT_VALUE)
 80039ba:	f7ff fb41 	bl	8003040 <HAL_GetTick>
 80039be:	4602      	mov	r2, r0
 80039c0:	6b7b      	ldr	r3, [r7, #52]	@ 0x34
 80039c2:	1ad3      	subs	r3, r2, r3
 80039c4:	2b02      	cmp	r3, #2
 80039c6:	d901      	bls.n	80039cc <HAL_RCC_OscConfig+0x400>
          {
            return HAL_TIMEOUT;
 80039c8:	2303      	movs	r3, #3
 80039ca:	e009      	b.n	80039e0 <HAL_RCC_OscConfig+0x414>
        while(__HAL_RCC_GET_FLAG(RCC_FLAG_PLLRDY) != RESET)
 80039cc:	4b08      	ldr	r3, [pc, #32]	@ (80039f0 <HAL_RCC_OscConfig+0x424>)
 80039ce:	681b      	ldr	r3, [r3, #0]
 80039d0:	f003 7300 	and.w	r3, r3, #33554432	@ 0x2000000
 80039d4:	2b00      	cmp	r3, #0
 80039d6:	d1f0      	bne.n	80039ba <HAL_RCC_OscConfig+0x3ee>
 80039d8:	e001      	b.n	80039de <HAL_RCC_OscConfig+0x412>
        }
      }
    }
    else
    {
      return HAL_ERROR;
 80039da:	2301      	movs	r3, #1
 80039dc:	e000      	b.n	80039e0 <HAL_RCC_OscConfig+0x414>
    }
  }
  return HAL_OK;
 80039de:	2300      	movs	r3, #0
}
 80039e0:	4618      	mov	r0, r3
 80039e2:	3738      	adds	r7, #56	@ 0x38
 80039e4:	46bd      	mov	sp, r7
 80039e6:	bd80      	pop	{r7, pc}
 80039e8:	40007000 	.word	0x40007000
 80039ec:	40023870 	.word	0x40023870
 80039f0:	40023800 	.word	0x40023800
 80039f4:	42470060 	.word	0x42470060

080039f8 <HAL_RCC_ClockConfig>:
  *         HPRE[3:0] bits to ensure that HCLK not exceed the maximum allowed frequency
  *         (for more details refer to section above "Initialization/de-initialization functions")
  * @retval None
  */
HAL_StatusTypeDef HAL_RCC_ClockConfig(RCC_ClkInitTypeDef  *RCC_ClkInitStruct, uint32_t FLatency)
{
 80039f8:	b580      	push	{r7, lr}
 80039fa:	b086      	sub	sp, #24
 80039fc:	af00      	add	r7, sp, #0
 80039fe:	6078      	str	r0, [r7, #4]
 8003a00:	6039      	str	r1, [r7, #0]
  uint32_t tickstart = 0U;   
 8003a02:	2300      	movs	r3, #0
 8003a04:	617b      	str	r3, [r7, #20]
  /* To correctly read data from FLASH memory, the number of wait states (LATENCY) 
    must be correctly programmed according to the frequency of the CPU clock 
    (HCLK) and the supply voltage of the device. */
  
  /* Increasing the number of wait states because of higher CPU frequency */
  if(FLatency > (FLASH->ACR & FLASH_ACR_LATENCY))
 8003a06:	4b81      	ldr	r3, [pc, #516]	@ (8003c0c <HAL_RCC_ClockConfig+0x214>)
 8003a08:	681b      	ldr	r3, [r3, #0]
 8003a0a:	f003 030f 	and.w	r3, r3, #15
 8003a0e:	683a      	ldr	r2, [r7, #0]
 8003a10:	429a      	cmp	r2, r3
 8003a12:	d90c      	bls.n	8003a2e <HAL_RCC_ClockConfig+0x36>
  {    
    /* Program the new number of wait states to the LATENCY bits in the FLASH_ACR register */
    __HAL_FLASH_SET_LATENCY(FLatency);
 8003a14:	4b7d      	ldr	r3, [pc, #500]	@ (8003c0c <HAL_RCC_ClockConfig+0x214>)
 8003a16:	683a      	ldr	r2, [r7, #0]
 8003a18:	b2d2      	uxtb	r2, r2
 8003a1a:	701a      	strb	r2, [r3, #0]
    
    /* Check that the new number of wait states is taken into account to access the Flash
    memory by reading the FLASH_ACR register */
    if((FLASH->ACR & FLASH_ACR_LATENCY) != FLatency)
 8003a1c:	4b7b      	ldr	r3, [pc, #492]	@ (8003c0c <HAL_RCC_ClockConfig+0x214>)
 8003a1e:	681b      	ldr	r3, [r3, #0]
 8003a20:	f003 030f 	and.w	r3, r3, #15
 8003a24:	683a      	ldr	r2, [r7, #0]
 8003a26:	429a      	cmp	r2, r3
 8003a28:	d001      	beq.n	8003a2e <HAL_RCC_ClockConfig+0x36>
    {
      return HAL_ERROR;
 8003a2a:	2301      	movs	r3, #1
 8003a2c:	e0ea      	b.n	8003c04 <HAL_RCC_ClockConfig+0x20c>
    }
  }
 
  /*-------------------------- HCLK Configuration --------------------------*/
  if(((RCC_ClkInitStruct->ClockType) & RCC_CLOCKTYPE_HCLK) == RCC_CLOCKTYPE_HCLK)
 8003a2e:	687b      	ldr	r3, [r7, #4]
 8003a30:	681b      	ldr	r3, [r3, #0]
 8003a32:	f003 0302 	and.w	r3, r3, #2
 8003a36:	2b00      	cmp	r3, #0
 8003a38:	d008      	beq.n	8003a4c <HAL_RCC_ClockConfig+0x54>
  {
    assert_param(IS_RCC_HCLK(RCC_ClkInitStruct->AHBCLKDivider));
    MODIFY_REG(RCC->CFGR, RCC_CFGR_HPRE, RCC_ClkInitStruct->AHBCLKDivider);
 8003a3a:	4b75      	ldr	r3, [pc, #468]	@ (8003c10 <HAL_RCC_ClockConfig+0x218>)
 8003a3c:	689b      	ldr	r3, [r3, #8]
 8003a3e:	f023 02f0 	bic.w	r2, r3, #240	@ 0xf0
 8003a42:	687b      	ldr	r3, [r7, #4]
 8003a44:	689b      	ldr	r3, [r3, #8]
 8003a46:	4972      	ldr	r1, [pc, #456]	@ (8003c10 <HAL_RCC_ClockConfig+0x218>)
 8003a48:	4313      	orrs	r3, r2
 8003a4a:	608b      	str	r3, [r1, #8]
  }
  
  /*------------------------- SYSCLK Configuration ---------------------------*/ 
  if(((RCC_ClkInitStruct->ClockType) & RCC_CLOCKTYPE_SYSCLK) == RCC_CLOCKTYPE_SYSCLK)
 8003a4c:	687b      	ldr	r3, [r7, #4]
 8003a4e:	681b      	ldr	r3, [r3, #0]
 8003a50:	f003 0301 	and.w	r3, r3, #1
 8003a54:	2b00      	cmp	r3, #0
 8003a56:	f000 8086 	beq.w	8003b66 <HAL_RCC_ClockConfig+0x16e>
  {    
    assert_param(IS_RCC_SYSCLKSOURCE(RCC_ClkInitStruct->SYSCLKSource));
    
    /* HSE is selected as System Clock Source */
    if(RCC_ClkInitStruct->SYSCLKSource == RCC_SYSCLKSOURCE_HSE)
 8003a5a:	687b      	ldr	r3, [r7, #4]
 8003a5c:	685b      	ldr	r3, [r3, #4]
 8003a5e:	2b01      	cmp	r3, #1
 8003a60:	d107      	bne.n	8003a72 <HAL_RCC_ClockConfig+0x7a>
    {
      /* Check the HSE ready flag */  
      if(__HAL_RCC_GET_FLAG(RCC_FLAG_HSERDY) == RESET)
 8003a62:	4b6b      	ldr	r3, [pc, #428]	@ (8003c10 <HAL_RCC_ClockConfig+0x218>)
 8003a64:	681b      	ldr	r3, [r3, #0]
 8003a66:	f403 3300 	and.w	r3, r3, #131072	@ 0x20000
 8003a6a:	2b00      	cmp	r3, #0
 8003a6c:	d119      	bne.n	8003aa2 <HAL_RCC_ClockConfig+0xaa>
      {
        return HAL_ERROR;
 8003a6e:	2301      	movs	r3, #1
 8003a70:	e0c8      	b.n	8003c04 <HAL_RCC_ClockConfig+0x20c>
      }
    }
    /* PLL is selected as System Clock Source */
    else if((RCC_ClkInitStruct->SYSCLKSource == RCC_SYSCLKSOURCE_PLLCLK)   || 
 8003a72:	687b      	ldr	r3, [r7, #4]
 8003a74:	685b      	ldr	r3, [r3, #4]
 8003a76:	2b02      	cmp	r3, #2
 8003a78:	d003      	beq.n	8003a82 <HAL_RCC_ClockConfig+0x8a>
            (RCC_ClkInitStruct->SYSCLKSource == RCC_SYSCLKSOURCE_PLLRCLK))
 8003a7a:	687b      	ldr	r3, [r7, #4]
 8003a7c:	685b      	ldr	r3, [r3, #4]
    else if((RCC_ClkInitStruct->SYSCLKSource == RCC_SYSCLKSOURCE_PLLCLK)   || 
 8003a7e:	2b03      	cmp	r3, #3
 8003a80:	d107      	bne.n	8003a92 <HAL_RCC_ClockConfig+0x9a>
    {
      /* Check the PLL ready flag */  
      if(__HAL_RCC_GET_FLAG(RCC_FLAG_PLLRDY) == RESET)
 8003a82:	4b63      	ldr	r3, [pc, #396]	@ (8003c10 <HAL_RCC_ClockConfig+0x218>)
 8003a84:	681b      	ldr	r3, [r3, #0]
 8003a86:	f003 7300 	and.w	r3, r3, #33554432	@ 0x2000000
 8003a8a:	2b00      	cmp	r3, #0
 8003a8c:	d109      	bne.n	8003aa2 <HAL_RCC_ClockConfig+0xaa>
      {
        return HAL_ERROR;
 8003a8e:	2301      	movs	r3, #1
 8003a90:	e0b8      	b.n	8003c04 <HAL_RCC_ClockConfig+0x20c>
    }
    /* HSI is selected as System Clock Source */
    else
    {
      /* Check the HSI ready flag */  
      if(__HAL_RCC_GET_FLAG(RCC_FLAG_HSIRDY) == RESET)
 8003a92:	4b5f      	ldr	r3, [pc, #380]	@ (8003c10 <HAL_RCC_ClockConfig+0x218>)
 8003a94:	681b      	ldr	r3, [r3, #0]
 8003a96:	f003 0302 	and.w	r3, r3, #2
 8003a9a:	2b00      	cmp	r3, #0
 8003a9c:	d101      	bne.n	8003aa2 <HAL_RCC_ClockConfig+0xaa>
      {
        return HAL_ERROR;
 8003a9e:	2301      	movs	r3, #1
 8003aa0:	e0b0      	b.n	8003c04 <HAL_RCC_ClockConfig+0x20c>
      }
    }
    
    __HAL_RCC_SYSCLK_CONFIG(RCC_ClkInitStruct->SYSCLKSource);
 8003aa2:	4b5b      	ldr	r3, [pc, #364]	@ (8003c10 <HAL_RCC_ClockConfig+0x218>)
 8003aa4:	689b      	ldr	r3, [r3, #8]
 8003aa6:	f023 0203 	bic.w	r2, r3, #3
 8003aaa:	687b      	ldr	r3, [r7, #4]
 8003aac:	685b      	ldr	r3, [r3, #4]
 8003aae:	4958      	ldr	r1, [pc, #352]	@ (8003c10 <HAL_RCC_ClockConfig+0x218>)
 8003ab0:	4313      	orrs	r3, r2
 8003ab2:	608b      	str	r3, [r1, #8]
    /* Get Start Tick*/
    tickstart = HAL_GetTick();
 8003ab4:	f7ff fac4 	bl	8003040 <HAL_GetTick>
 8003ab8:	6178      	str	r0, [r7, #20]
    
    if(RCC_ClkInitStruct->SYSCLKSource == RCC_SYSCLKSOURCE_HSE)
 8003aba:	687b      	ldr	r3, [r7, #4]
 8003abc:	685b      	ldr	r3, [r3, #4]
 8003abe:	2b01      	cmp	r3, #1
 8003ac0:	d112      	bne.n	8003ae8 <HAL_RCC_ClockConfig+0xf0>
    {
      while (__HAL_RCC_GET_SYSCLK_SOURCE() != RCC_SYSCLKSOURCE_STATUS_HSE)
 8003ac2:	e00a      	b.n	8003ada <HAL_RCC_ClockConfig+0xe2>
      {
        if((HAL_GetTick() - tickstart ) > CLOCKSWITCH_TIMEOUT_VALUE)
 8003ac4:	f7ff fabc 	bl	8003040 <HAL_GetTick>
 8003ac8:	4602      	mov	r2, r0
 8003aca:	697b      	ldr	r3, [r7, #20]
 8003acc:	1ad3      	subs	r3, r2, r3
 8003ace:	f241 3288 	movw	r2, #5000	@ 0x1388
 8003ad2:	4293      	cmp	r3, r2
 8003ad4:	d901      	bls.n	8003ada <HAL_RCC_ClockConfig+0xe2>
        {
          return HAL_TIMEOUT;
 8003ad6:	2303      	movs	r3, #3
 8003ad8:	e094      	b.n	8003c04 <HAL_RCC_ClockConfig+0x20c>
      while (__HAL_RCC_GET_SYSCLK_SOURCE() != RCC_SYSCLKSOURCE_STATUS_HSE)
 8003ada:	4b4d      	ldr	r3, [pc, #308]	@ (8003c10 <HAL_RCC_ClockConfig+0x218>)
 8003adc:	689b      	ldr	r3, [r3, #8]
 8003ade:	f003 030c 	and.w	r3, r3, #12
 8003ae2:	2b04      	cmp	r3, #4
 8003ae4:	d1ee      	bne.n	8003ac4 <HAL_RCC_ClockConfig+0xcc>
 8003ae6:	e03e      	b.n	8003b66 <HAL_RCC_ClockConfig+0x16e>
        }
      }
    }
    else if(RCC_ClkInitStruct->SYSCLKSource == RCC_SYSCLKSOURCE_PLLCLK)
 8003ae8:	687b      	ldr	r3, [r7, #4]
 8003aea:	685b      	ldr	r3, [r3, #4]
 8003aec:	2b02      	cmp	r3, #2
 8003aee:	d112      	bne.n	8003b16 <HAL_RCC_ClockConfig+0x11e>
    {
      while (__HAL_RCC_GET_SYSCLK_SOURCE() != RCC_SYSCLKSOURCE_STATUS_PLLCLK)
 8003af0:	e00a      	b.n	8003b08 <HAL_RCC_ClockConfig+0x110>
      {
        if((HAL_GetTick() - tickstart ) > CLOCKSWITCH_TIMEOUT_VALUE)
 8003af2:	f7ff faa5 	bl	8003040 <HAL_GetTick>
 8003af6:	4602      	mov	r2, r0
 8003af8:	697b      	ldr	r3, [r7, #20]
 8003afa:	1ad3      	subs	r3, r2, r3
 8003afc:	f241 3288 	movw	r2, #5000	@ 0x1388
 8003b00:	4293      	cmp	r3, r2
 8003b02:	d901      	bls.n	8003b08 <HAL_RCC_ClockConfig+0x110>
        {
          return HAL_TIMEOUT;
 8003b04:	2303      	movs	r3, #3
 8003b06:	e07d      	b.n	8003c04 <HAL_RCC_ClockConfig+0x20c>
      while (__HAL_RCC_GET_SYSCLK_SOURCE() != RCC_SYSCLKSOURCE_STATUS_PLLCLK)
 8003b08:	4b41      	ldr	r3, [pc, #260]	@ (8003c10 <HAL_RCC_ClockConfig+0x218>)
 8003b0a:	689b      	ldr	r3, [r3, #8]
 8003b0c:	f003 030c 	and.w	r3, r3, #12
 8003b10:	2b08      	cmp	r3, #8
 8003b12:	d1ee      	bne.n	8003af2 <HAL_RCC_ClockConfig+0xfa>
 8003b14:	e027      	b.n	8003b66 <HAL_RCC_ClockConfig+0x16e>
        }
      }
    }
    else if(RCC_ClkInitStruct->SYSCLKSource == RCC_SYSCLKSOURCE_PLLRCLK)
 8003b16:	687b      	ldr	r3, [r7, #4]
 8003b18:	685b      	ldr	r3, [r3, #4]
 8003b1a:	2b03      	cmp	r3, #3
 8003b1c:	d11d      	bne.n	8003b5a <HAL_RCC_ClockConfig+0x162>
    {
      while (__HAL_RCC_GET_SYSCLK_SOURCE() != RCC_SYSCLKSOURCE_STATUS_PLLRCLK)
 8003b1e:	e00a      	b.n	8003b36 <HAL_RCC_ClockConfig+0x13e>
      {
        if((HAL_GetTick() - tickstart ) > CLOCKSWITCH_TIMEOUT_VALUE)
 8003b20:	f7ff fa8e 	bl	8003040 <HAL_GetTick>
 8003b24:	4602      	mov	r2, r0
 8003b26:	697b      	ldr	r3, [r7, #20]
 8003b28:	1ad3      	subs	r3, r2, r3
 8003b2a:	f241 3288 	movw	r2, #5000	@ 0x1388
 8003b2e:	4293      	cmp	r3, r2
 8003b30:	d901      	bls.n	8003b36 <HAL_RCC_ClockConfig+0x13e>
        {
          return HAL_TIMEOUT;
 8003b32:	2303      	movs	r3, #3
 8003b34:	e066      	b.n	8003c04 <HAL_RCC_ClockConfig+0x20c>
      while (__HAL_RCC_GET_SYSCLK_SOURCE() != RCC_SYSCLKSOURCE_STATUS_PLLRCLK)
 8003b36:	4b36      	ldr	r3, [pc, #216]	@ (8003c10 <HAL_RCC_ClockConfig+0x218>)
 8003b38:	689b      	ldr	r3, [r3, #8]
 8003b3a:	f003 030c 	and.w	r3, r3, #12
 8003b3e:	2b0c      	cmp	r3, #12
 8003b40:	d1ee      	bne.n	8003b20 <HAL_RCC_ClockConfig+0x128>
 8003b42:	e010      	b.n	8003b66 <HAL_RCC_ClockConfig+0x16e>
    }
    else
    {
      while(__HAL_RCC_GET_SYSCLK_SOURCE() != RCC_SYSCLKSOURCE_STATUS_HSI)
      {
        if((HAL_GetTick() - tickstart ) > CLOCKSWITCH_TIMEOUT_VALUE)
 8003b44:	f7ff fa7c 	bl	8003040 <HAL_GetTick>
 8003b48:	4602      	mov	r2, r0
 8003b4a:	697b      	ldr	r3, [r7, #20]
 8003b4c:	1ad3      	subs	r3, r2, r3
 8003b4e:	f241 3288 	movw	r2, #5000	@ 0x1388
 8003b52:	4293      	cmp	r3, r2
 8003b54:	d901      	bls.n	8003b5a <HAL_RCC_ClockConfig+0x162>
        {
          return HAL_TIMEOUT;
 8003b56:	2303      	movs	r3, #3
 8003b58:	e054      	b.n	8003c04 <HAL_RCC_ClockConfig+0x20c>
      while(__HAL_RCC_GET_SYSCLK_SOURCE() != RCC_SYSCLKSOURCE_STATUS_HSI)
 8003b5a:	4b2d      	ldr	r3, [pc, #180]	@ (8003c10 <HAL_RCC_ClockConfig+0x218>)
 8003b5c:	689b      	ldr	r3, [r3, #8]
 8003b5e:	f003 030c 	and.w	r3, r3, #12
 8003b62:	2b00      	cmp	r3, #0
 8003b64:	d1ee      	bne.n	8003b44 <HAL_RCC_ClockConfig+0x14c>
      }
    }
  }    
  
  /* Decreasing the number of wait states because of lower CPU frequency */
  if(FLatency < (FLASH->ACR & FLASH_ACR_LATENCY))
 8003b66:	4b29      	ldr	r3, [pc, #164]	@ (8003c0c <HAL_RCC_ClockConfig+0x214>)
 8003b68:	681b      	ldr	r3, [r3, #0]
 8003b6a:	f003 030f 	and.w	r3, r3, #15
 8003b6e:	683a      	ldr	r2, [r7, #0]
 8003b70:	429a      	cmp	r2, r3
 8003b72:	d20c      	bcs.n	8003b8e <HAL_RCC_ClockConfig+0x196>
  { 
     /* Program the new number of wait states to the LATENCY bits in the FLASH_ACR register */
    __HAL_FLASH_SET_LATENCY(FLatency);
 8003b74:	4b25      	ldr	r3, [pc, #148]	@ (8003c0c <HAL_RCC_ClockConfig+0x214>)
 8003b76:	683a      	ldr	r2, [r7, #0]
 8003b78:	b2d2      	uxtb	r2, r2
 8003b7a:	701a      	strb	r2, [r3, #0]
    
    /* Check that the new number of wait states is taken into account to access the Flash
    memory by reading the FLASH_ACR register */
    if((FLASH->ACR & FLASH_ACR_LATENCY) != FLatency)
 8003b7c:	4b23      	ldr	r3, [pc, #140]	@ (8003c0c <HAL_RCC_ClockConfig+0x214>)
 8003b7e:	681b      	ldr	r3, [r3, #0]
 8003b80:	f003 030f 	and.w	r3, r3, #15
 8003b84:	683a      	ldr	r2, [r7, #0]
 8003b86:	429a      	cmp	r2, r3
 8003b88:	d001      	beq.n	8003b8e <HAL_RCC_ClockConfig+0x196>
    {
      return HAL_ERROR;
 8003b8a:	2301      	movs	r3, #1
 8003b8c:	e03a      	b.n	8003c04 <HAL_RCC_ClockConfig+0x20c>
    }
 }

  /*-------------------------- PCLK1 Configuration ---------------------------*/ 
  if(((RCC_ClkInitStruct->ClockType) & RCC_CLOCKTYPE_PCLK1) == RCC_CLOCKTYPE_PCLK1)
 8003b8e:	687b      	ldr	r3, [r7, #4]
 8003b90:	681b      	ldr	r3, [r3, #0]
 8003b92:	f003 0304 	and.w	r3, r3, #4
 8003b96:	2b00      	cmp	r3, #0
 8003b98:	d008      	beq.n	8003bac <HAL_RCC_ClockConfig+0x1b4>
  {
    assert_param(IS_RCC_PCLK(RCC_ClkInitStruct->APB1CLKDivider));
    MODIFY_REG(RCC->CFGR, RCC_CFGR_PPRE1, RCC_ClkInitStruct->APB1CLKDivider);
 8003b9a:	4b1d      	ldr	r3, [pc, #116]	@ (8003c10 <HAL_RCC_ClockConfig+0x218>)
 8003b9c:	689b      	ldr	r3, [r3, #8]
 8003b9e:	f423 52e0 	bic.w	r2, r3, #7168	@ 0x1c00
 8003ba2:	687b      	ldr	r3, [r7, #4]
 8003ba4:	68db      	ldr	r3, [r3, #12]
 8003ba6:	491a      	ldr	r1, [pc, #104]	@ (8003c10 <HAL_RCC_ClockConfig+0x218>)
 8003ba8:	4313      	orrs	r3, r2
 8003baa:	608b      	str	r3, [r1, #8]
  }
  
  /*-------------------------- PCLK2 Configuration ---------------------------*/ 
  if(((RCC_ClkInitStruct->ClockType) & RCC_CLOCKTYPE_PCLK2) == RCC_CLOCKTYPE_PCLK2)
 8003bac:	687b      	ldr	r3, [r7, #4]
 8003bae:	681b      	ldr	r3, [r3, #0]
 8003bb0:	f003 0308 	and.w	r3, r3, #8
 8003bb4:	2b00      	cmp	r3, #0
 8003bb6:	d009      	beq.n	8003bcc <HAL_RCC_ClockConfig+0x1d4>
  {
    assert_param(IS_RCC_PCLK(RCC_ClkInitStruct->APB2CLKDivider));
    MODIFY_REG(RCC->CFGR, RCC_CFGR_PPRE2, ((RCC_ClkInitStruct->APB2CLKDivider) << 3U));
 8003bb8:	4b15      	ldr	r3, [pc, #84]	@ (8003c10 <HAL_RCC_ClockConfig+0x218>)
 8003bba:	689b      	ldr	r3, [r3, #8]
 8003bbc:	f423 4260 	bic.w	r2, r3, #57344	@ 0xe000
 8003bc0:	687b      	ldr	r3, [r7, #4]
 8003bc2:	691b      	ldr	r3, [r3, #16]
 8003bc4:	00db      	lsls	r3, r3, #3
 8003bc6:	4912      	ldr	r1, [pc, #72]	@ (8003c10 <HAL_RCC_ClockConfig+0x218>)
 8003bc8:	4313      	orrs	r3, r2
 8003bca:	608b      	str	r3, [r1, #8]
  }

  /* Update the SystemCoreClock global variable */
  SystemCoreClock = HAL_RCC_GetSysClockFreq() >> APBAHBPrescTable[(RCC->CFGR & RCC_CFGR_HPRE)>> POSITION_VAL(RCC_CFGR_HPRE)];
 8003bcc:	f000 f826 	bl	8003c1c <HAL_RCC_GetSysClockFreq>
 8003bd0:	4601      	mov	r1, r0
 8003bd2:	4b0f      	ldr	r3, [pc, #60]	@ (8003c10 <HAL_RCC_ClockConfig+0x218>)
 8003bd4:	689b      	ldr	r3, [r3, #8]
 8003bd6:	f003 02f0 	and.w	r2, r3, #240	@ 0xf0
 8003bda:	23f0      	movs	r3, #240	@ 0xf0
 8003bdc:	613b      	str	r3, [r7, #16]
   __ASM volatile ("rbit %0, %1" : "=r" (result) : "r" (value) );
 8003bde:	693b      	ldr	r3, [r7, #16]
 8003be0:	fa93 f3a3 	rbit	r3, r3
 8003be4:	60fb      	str	r3, [r7, #12]
  return(result);
 8003be6:	68fb      	ldr	r3, [r7, #12]
 8003be8:	fab3 f383 	clz	r3, r3
 8003bec:	fa22 f303 	lsr.w	r3, r2, r3
 8003bf0:	4a08      	ldr	r2, [pc, #32]	@ (8003c14 <HAL_RCC_ClockConfig+0x21c>)
 8003bf2:	5cd3      	ldrb	r3, [r2, r3]
 8003bf4:	fa21 f303 	lsr.w	r3, r1, r3
 8003bf8:	4a07      	ldr	r2, [pc, #28]	@ (8003c18 <HAL_RCC_ClockConfig+0x220>)
 8003bfa:	6013      	str	r3, [r2, #0]

  /* Configure the source of time base considering new system clocks settings*/
  HAL_InitTick (TICK_INT_PRIORITY);
 8003bfc:	200f      	movs	r0, #15
 8003bfe:	f7ff fa03 	bl	8003008 <HAL_InitTick>
  
  return HAL_OK;
 8003c02:	2300      	movs	r3, #0
}
 8003c04:	4618      	mov	r0, r3
 8003c06:	3718      	adds	r7, #24
 8003c08:	46bd      	mov	sp, r7
 8003c0a:	bd80      	pop	{r7, pc}
 8003c0c:	40023c00 	.word	0x40023c00
 8003c10:	40023800 	.word	0x40023800
 8003c14:	08003f2c 	.word	0x08003f2c
 8003c18:	20000010 	.word	0x20000010

08003c1c <HAL_RCC_GetSysClockFreq>:
  *         
  *               
  * @retval SYSCLK frequency
  */
__weak uint32_t HAL_RCC_GetSysClockFreq(void)
{
 8003c1c:	b480      	push	{r7}
 8003c1e:	b08b      	sub	sp, #44	@ 0x2c
 8003c20:	af00      	add	r7, sp, #0
  uint32_t pllm = 0U, pllvco = 0U, pllp = 0U;
 8003c22:	2300      	movs	r3, #0
 8003c24:	61fb      	str	r3, [r7, #28]
 8003c26:	2300      	movs	r3, #0
 8003c28:	627b      	str	r3, [r7, #36]	@ 0x24
 8003c2a:	2300      	movs	r3, #0
 8003c2c:	61bb      	str	r3, [r7, #24]
  uint32_t sysclockfreq = 0U;
 8003c2e:	2300      	movs	r3, #0
 8003c30:	623b      	str	r3, [r7, #32]

  /* Get SYSCLK source -------------------------------------------------------*/
  switch (RCC->CFGR & RCC_CFGR_SWS)
 8003c32:	4b38      	ldr	r3, [pc, #224]	@ (8003d14 <HAL_RCC_GetSysClockFreq+0xf8>)
 8003c34:	689b      	ldr	r3, [r3, #8]
 8003c36:	f003 030c 	and.w	r3, r3, #12
 8003c3a:	2b08      	cmp	r3, #8
 8003c3c:	d00c      	beq.n	8003c58 <HAL_RCC_GetSysClockFreq+0x3c>
 8003c3e:	2b08      	cmp	r3, #8
 8003c40:	d85d      	bhi.n	8003cfe <HAL_RCC_GetSysClockFreq+0xe2>
 8003c42:	2b00      	cmp	r3, #0
 8003c44:	d002      	beq.n	8003c4c <HAL_RCC_GetSysClockFreq+0x30>
 8003c46:	2b04      	cmp	r3, #4
 8003c48:	d003      	beq.n	8003c52 <HAL_RCC_GetSysClockFreq+0x36>
 8003c4a:	e058      	b.n	8003cfe <HAL_RCC_GetSysClockFreq+0xe2>
  {
    case RCC_CFGR_SWS_HSI:  /* HSI used as system clock source */
    {
      sysclockfreq = HSI_VALUE;
 8003c4c:	4b32      	ldr	r3, [pc, #200]	@ (8003d18 <HAL_RCC_GetSysClockFreq+0xfc>)
 8003c4e:	623b      	str	r3, [r7, #32]
       break;
 8003c50:	e058      	b.n	8003d04 <HAL_RCC_GetSysClockFreq+0xe8>
    }
    case RCC_CFGR_SWS_HSE:  /* HSE used as system clock  source */
    {
      sysclockfreq = HSE_VALUE;
 8003c52:	4b32      	ldr	r3, [pc, #200]	@ (8003d1c <HAL_RCC_GetSysClockFreq+0x100>)
 8003c54:	623b      	str	r3, [r7, #32]
      break;
 8003c56:	e055      	b.n	8003d04 <HAL_RCC_GetSysClockFreq+0xe8>
    }
    case RCC_CFGR_SWS_PLL:  /* PLL used as system clock  source */
    {
      /* PLL_VCO = (HSE_VALUE or HSI_VALUE / PLLM) * PLLN
      SYSCLK = PLL_VCO / PLLP */
      pllm = RCC->PLLCFGR & RCC_PLLCFGR_PLLM;
 8003c58:	4b2e      	ldr	r3, [pc, #184]	@ (8003d14 <HAL_RCC_GetSysClockFreq+0xf8>)
 8003c5a:	685b      	ldr	r3, [r3, #4]
 8003c5c:	f003 033f 	and.w	r3, r3, #63	@ 0x3f
 8003c60:	61fb      	str	r3, [r7, #28]
      if(__HAL_RCC_GET_PLL_OSCSOURCE() != RCC_PLLSOURCE_HSI)
 8003c62:	4b2c      	ldr	r3, [pc, #176]	@ (8003d14 <HAL_RCC_GetSysClockFreq+0xf8>)
 8003c64:	685b      	ldr	r3, [r3, #4]
 8003c66:	f403 0380 	and.w	r3, r3, #4194304	@ 0x400000
 8003c6a:	2b00      	cmp	r3, #0
 8003c6c:	d017      	beq.n	8003c9e <HAL_RCC_GetSysClockFreq+0x82>
      {
        /* HSE used as PLL clock source */
        pllvco = ((HSE_VALUE / pllm) * ((RCC->PLLCFGR & RCC_PLLCFGR_PLLN) >> POSITION_VAL(RCC_PLLCFGR_PLLN)));
 8003c6e:	4a2b      	ldr	r2, [pc, #172]	@ (8003d1c <HAL_RCC_GetSysClockFreq+0x100>)
 8003c70:	69fb      	ldr	r3, [r7, #28]
 8003c72:	fbb2 f2f3 	udiv	r2, r2, r3
 8003c76:	4b27      	ldr	r3, [pc, #156]	@ (8003d14 <HAL_RCC_GetSysClockFreq+0xf8>)
 8003c78:	6859      	ldr	r1, [r3, #4]
 8003c7a:	f647 73c0 	movw	r3, #32704	@ 0x7fc0
 8003c7e:	400b      	ands	r3, r1
 8003c80:	f647 71c0 	movw	r1, #32704	@ 0x7fc0
 8003c84:	6179      	str	r1, [r7, #20]
   __ASM volatile ("rbit %0, %1" : "=r" (result) : "r" (value) );
 8003c86:	6979      	ldr	r1, [r7, #20]
 8003c88:	fa91 f1a1 	rbit	r1, r1
 8003c8c:	6139      	str	r1, [r7, #16]
  return(result);
 8003c8e:	6939      	ldr	r1, [r7, #16]
 8003c90:	fab1 f181 	clz	r1, r1
 8003c94:	40cb      	lsrs	r3, r1
 8003c96:	fb02 f303 	mul.w	r3, r2, r3
 8003c9a:	627b      	str	r3, [r7, #36]	@ 0x24
 8003c9c:	e016      	b.n	8003ccc <HAL_RCC_GetSysClockFreq+0xb0>
      }
      else
      {
        /* HSI used as PLL clock source */
        pllvco = ((HSI_VALUE / pllm) * ((RCC->PLLCFGR & RCC_PLLCFGR_PLLN) >> POSITION_VAL(RCC_PLLCFGR_PLLN)));    
 8003c9e:	4a1e      	ldr	r2, [pc, #120]	@ (8003d18 <HAL_RCC_GetSysClockFreq+0xfc>)
 8003ca0:	69fb      	ldr	r3, [r7, #28]
 8003ca2:	fbb2 f2f3 	udiv	r2, r2, r3
 8003ca6:	4b1b      	ldr	r3, [pc, #108]	@ (8003d14 <HAL_RCC_GetSysClockFreq+0xf8>)
 8003ca8:	6859      	ldr	r1, [r3, #4]
 8003caa:	f647 73c0 	movw	r3, #32704	@ 0x7fc0
 8003cae:	400b      	ands	r3, r1
 8003cb0:	f647 71c0 	movw	r1, #32704	@ 0x7fc0
 8003cb4:	60f9      	str	r1, [r7, #12]
   __ASM volatile ("rbit %0, %1" : "=r" (result) : "r" (value) );
 8003cb6:	68f9      	ldr	r1, [r7, #12]
 8003cb8:	fa91 f1a1 	rbit	r1, r1
 8003cbc:	60b9      	str	r1, [r7, #8]
  return(result);
 8003cbe:	68b9      	ldr	r1, [r7, #8]
 8003cc0:	fab1 f181 	clz	r1, r1
 8003cc4:	40cb      	lsrs	r3, r1
 8003cc6:	fb02 f303 	mul.w	r3, r2, r3
 8003cca:	627b      	str	r3, [r7, #36]	@ 0x24
      }
      pllp = ((((RCC->PLLCFGR & RCC_PLLCFGR_PLLP) >> POSITION_VAL(RCC_PLLCFGR_PLLP)) + 1U) *2U);
 8003ccc:	4b11      	ldr	r3, [pc, #68]	@ (8003d14 <HAL_RCC_GetSysClockFreq+0xf8>)
 8003cce:	685b      	ldr	r3, [r3, #4]
 8003cd0:	f403 3240 	and.w	r2, r3, #196608	@ 0x30000
 8003cd4:	f44f 3340 	mov.w	r3, #196608	@ 0x30000
 8003cd8:	607b      	str	r3, [r7, #4]
   __ASM volatile ("rbit %0, %1" : "=r" (result) : "r" (value) );
 8003cda:	687b      	ldr	r3, [r7, #4]
 8003cdc:	fa93 f3a3 	rbit	r3, r3
 8003ce0:	603b      	str	r3, [r7, #0]
  return(result);
 8003ce2:	683b      	ldr	r3, [r7, #0]
 8003ce4:	fab3 f383 	clz	r3, r3
 8003ce8:	fa22 f303 	lsr.w	r3, r2, r3
 8003cec:	3301      	adds	r3, #1
 8003cee:	005b      	lsls	r3, r3, #1
 8003cf0:	61bb      	str	r3, [r7, #24]
      
      sysclockfreq = pllvco/pllp;
 8003cf2:	6a7a      	ldr	r2, [r7, #36]	@ 0x24
 8003cf4:	69bb      	ldr	r3, [r7, #24]
 8003cf6:	fbb2 f3f3 	udiv	r3, r2, r3
 8003cfa:	623b      	str	r3, [r7, #32]
      break;
 8003cfc:	e002      	b.n	8003d04 <HAL_RCC_GetSysClockFreq+0xe8>
    }
    default:
    {
      sysclockfreq = HSI_VALUE;
 8003cfe:	4b06      	ldr	r3, [pc, #24]	@ (8003d18 <HAL_RCC_GetSysClockFreq+0xfc>)
 8003d00:	623b      	str	r3, [r7, #32]
      break;
 8003d02:	bf00      	nop
    }
  }
  return sysclockfreq;
 8003d04:	6a3b      	ldr	r3, [r7, #32]
}
 8003d06:	4618      	mov	r0, r3
 8003d08:	372c      	adds	r7, #44	@ 0x2c
 8003d0a:	46bd      	mov	sp, r7
 8003d0c:	f85d 7b04 	ldr.w	r7, [sp], #4
 8003d10:	4770      	bx	lr
 8003d12:	bf00      	nop
 8003d14:	40023800 	.word	0x40023800
 8003d18:	00f42400 	.word	0x00f42400
 8003d1c:	017d7840 	.word	0x017d7840

08003d20 <HAL_RCC_DeInit>:
  *            - Peripheral clocks  
  *            - LSI, LSE and RTC clocks 
  * @retval None
  */
void HAL_RCC_DeInit(void)
{
 8003d20:	b480      	push	{r7}
 8003d22:	af00      	add	r7, sp, #0
  /* Set HSION bit */
  SET_BIT(RCC->CR, RCC_CR_HSION | RCC_CR_HSITRIM_4); 
 8003d24:	4b1c      	ldr	r3, [pc, #112]	@ (8003d98 <HAL_RCC_DeInit+0x78>)
 8003d26:	681b      	ldr	r3, [r3, #0]
 8003d28:	4a1b      	ldr	r2, [pc, #108]	@ (8003d98 <HAL_RCC_DeInit+0x78>)
 8003d2a:	f043 0381 	orr.w	r3, r3, #129	@ 0x81
 8003d2e:	6013      	str	r3, [r2, #0]
  
  /* Reset CFGR register */
  CLEAR_REG(RCC->CFGR);
 8003d30:	4b19      	ldr	r3, [pc, #100]	@ (8003d98 <HAL_RCC_DeInit+0x78>)
 8003d32:	2200      	movs	r2, #0
 8003d34:	609a      	str	r2, [r3, #8]
  
  /* Reset HSEON, CSSON, PLLON, PLLI2S */
  CLEAR_BIT(RCC->CR, RCC_CR_HSEON | RCC_CR_CSSON | RCC_CR_PLLON| RCC_CR_PLLI2SON); 
 8003d36:	4b18      	ldr	r3, [pc, #96]	@ (8003d98 <HAL_RCC_DeInit+0x78>)
 8003d38:	681b      	ldr	r3, [r3, #0]
 8003d3a:	4a17      	ldr	r2, [pc, #92]	@ (8003d98 <HAL_RCC_DeInit+0x78>)
 8003d3c:	f023 63a1 	bic.w	r3, r3, #84410368	@ 0x5080000
 8003d40:	f423 3380 	bic.w	r3, r3, #65536	@ 0x10000
 8003d44:	6013      	str	r3, [r2, #0]
  
  /* Reset PLLCFGR register */
  CLEAR_REG(RCC->PLLCFGR);
 8003d46:	4b14      	ldr	r3, [pc, #80]	@ (8003d98 <HAL_RCC_DeInit+0x78>)
 8003d48:	2200      	movs	r2, #0
 8003d4a:	605a      	str	r2, [r3, #4]
  SET_BIT(RCC->PLLCFGR, RCC_PLLCFGR_PLLM_4 | RCC_PLLCFGR_PLLN_6 | RCC_PLLCFGR_PLLN_7 | RCC_PLLCFGR_PLLQ_2); 
 8003d4c:	4b12      	ldr	r3, [pc, #72]	@ (8003d98 <HAL_RCC_DeInit+0x78>)
 8003d4e:	685a      	ldr	r2, [r3, #4]
 8003d50:	4911      	ldr	r1, [pc, #68]	@ (8003d98 <HAL_RCC_DeInit+0x78>)
 8003d52:	4b12      	ldr	r3, [pc, #72]	@ (8003d9c <HAL_RCC_DeInit+0x7c>)
 8003d54:	4313      	orrs	r3, r2
 8003d56:	604b      	str	r3, [r1, #4]
  
  /* Reset PLLI2SCFGR register */
  CLEAR_REG(RCC->PLLI2SCFGR);
 8003d58:	4b0f      	ldr	r3, [pc, #60]	@ (8003d98 <HAL_RCC_DeInit+0x78>)
 8003d5a:	2200      	movs	r2, #0
 8003d5c:	f8c3 2084 	str.w	r2, [r3, #132]	@ 0x84
  SET_BIT(RCC->PLLI2SCFGR,  RCC_PLLI2SCFGR_PLLI2SN_6 | RCC_PLLI2SCFGR_PLLI2SN_7 | RCC_PLLI2SCFGR_PLLI2SR_1);
 8003d60:	4b0d      	ldr	r3, [pc, #52]	@ (8003d98 <HAL_RCC_DeInit+0x78>)
 8003d62:	f8d3 3084 	ldr.w	r3, [r3, #132]	@ 0x84
 8003d66:	4a0c      	ldr	r2, [pc, #48]	@ (8003d98 <HAL_RCC_DeInit+0x78>)
 8003d68:	f043 5300 	orr.w	r3, r3, #536870912	@ 0x20000000
 8003d6c:	f443 5340 	orr.w	r3, r3, #12288	@ 0x3000
 8003d70:	f8c2 3084 	str.w	r3, [r2, #132]	@ 0x84
  
  /* Reset HSEBYP bit */
  CLEAR_BIT(RCC->CR, RCC_CR_HSEBYP);
 8003d74:	4b08      	ldr	r3, [pc, #32]	@ (8003d98 <HAL_RCC_DeInit+0x78>)
 8003d76:	681b      	ldr	r3, [r3, #0]
 8003d78:	4a07      	ldr	r2, [pc, #28]	@ (8003d98 <HAL_RCC_DeInit+0x78>)
 8003d7a:	f423 2380 	bic.w	r3, r3, #262144	@ 0x40000
 8003d7e:	6013      	str	r3, [r2, #0]
  
  /* Disable all interrupts */
  CLEAR_REG(RCC->CIR);
 8003d80:	4b05      	ldr	r3, [pc, #20]	@ (8003d98 <HAL_RCC_DeInit+0x78>)
 8003d82:	2200      	movs	r2, #0
 8003d84:	60da      	str	r2, [r3, #12]
  
  /* Update the SystemCoreClock global variable */
  SystemCoreClock = HSI_VALUE;
 8003d86:	4b06      	ldr	r3, [pc, #24]	@ (8003da0 <HAL_RCC_DeInit+0x80>)
 8003d88:	4a06      	ldr	r2, [pc, #24]	@ (8003da4 <HAL_RCC_DeInit+0x84>)
 8003d8a:	601a      	str	r2, [r3, #0]
}
 8003d8c:	bf00      	nop
 8003d8e:	46bd      	mov	sp, r7
 8003d90:	f85d 7b04 	ldr.w	r7, [sp], #4
 8003d94:	4770      	bx	lr
 8003d96:	bf00      	nop
 8003d98:	40023800 	.word	0x40023800
 8003d9c:	04003010 	.word	0x04003010
 8003da0:	20000010 	.word	0x20000010
 8003da4:	00f42400 	.word	0x00f42400

08003da8 <Reset_Handler>:

    .section  .text.Reset_Handler
  .weak  Reset_Handler
  .type  Reset_Handler, %function
Reset_Handler:  
  ldr   sp, =_estack     /* set stack pointer */
 8003da8:	f8df d034 	ldr.w	sp, [pc, #52]	@ 8003de0 <LoopFillZerobss+0x14>

/* Copy the data segment initializers from flash to SRAM */  
  movs  r1, #0
 8003dac:	2100      	movs	r1, #0
  b  LoopCopyDataInit
 8003dae:	e003      	b.n	8003db8 <LoopCopyDataInit>

08003db0 <CopyDataInit>:

CopyDataInit:
  ldr  r3, =_sidata
 8003db0:	4b0c      	ldr	r3, [pc, #48]	@ (8003de4 <LoopFillZerobss+0x18>)
  ldr  r3, [r3, r1]
 8003db2:	585b      	ldr	r3, [r3, r1]
  str  r3, [r0, r1]
 8003db4:	5043      	str	r3, [r0, r1]
  adds  r1, r1, #4
 8003db6:	3104      	adds	r1, #4

08003db8 <LoopCopyDataInit>:
    
LoopCopyDataInit:
  ldr  r0, =_sdata
 8003db8:	480b      	ldr	r0, [pc, #44]	@ (8003de8 <LoopFillZerobss+0x1c>)
  ldr  r3, =_edata
 8003dba:	4b0c      	ldr	r3, [pc, #48]	@ (8003dec <LoopFillZerobss+0x20>)
  adds  r2, r0, r1
 8003dbc:	1842      	adds	r2, r0, r1
  cmp  r2, r3
 8003dbe:	429a      	cmp	r2, r3
  bcc  CopyDataInit
 8003dc0:	d3f6      	bcc.n	8003db0 <CopyDataInit>
  ldr  r2, =_sbss
 8003dc2:	4a0b      	ldr	r2, [pc, #44]	@ (8003df0 <LoopFillZerobss+0x24>)
  b  LoopFillZerobss
 8003dc4:	e002      	b.n	8003dcc <LoopFillZerobss>

08003dc6 <FillZerobss>:
/* Zero fill the bss segment. */  
FillZerobss:
  movs  r3, #0
 8003dc6:	2300      	movs	r3, #0
  str  r3, [r2], #4
 8003dc8:	f842 3b04 	str.w	r3, [r2], #4

08003dcc <LoopFillZerobss>:
    
LoopFillZerobss:
  ldr  r3, = _ebss
 8003dcc:	4b09      	ldr	r3, [pc, #36]	@ (8003df4 <LoopFillZerobss+0x28>)
  cmp  r2, r3
 8003dce:	429a      	cmp	r2, r3
  bcc  FillZerobss
 8003dd0:	d3f9      	bcc.n	8003dc6 <FillZerobss>

/* Call the clock system intitialization function.*/
  bl  SystemInit   
 8003dd2:	f000 f813 	bl	8003dfc <SystemInit>
/* Call static constructors */
  bl __libc_init_array
 8003dd6:	f000 f847 	bl	8003e68 <__libc_init_array>
/* Call the application's entry point.*/
  bl  main
 8003dda:	f7fc faab 	bl	8000334 <main>
  bx  lr    
 8003dde:	4770      	bx	lr
  ldr   sp, =_estack     /* set stack pointer */
 8003de0:	20020000 	.word	0x20020000
  ldr  r3, =_sidata
 8003de4:	08003f44 	.word	0x08003f44
  ldr  r0, =_sdata
 8003de8:	20000000 	.word	0x20000000
  ldr  r3, =_edata
 8003dec:	20000014 	.word	0x20000014
  ldr  r2, =_sbss
 8003df0:	20000014 	.word	0x20000014
  ldr  r3, = _ebss
 8003df4:	20001194 	.word	0x20001194

08003df8 <ADC_IRQHandler>:
 * @retval None       
*/
    .section  .text.Default_Handler,"ax",%progbits
Default_Handler:
Infinite_Loop:
  b  Infinite_Loop
 8003df8:	e7fe      	b.n	8003df8 <ADC_IRQHandler>
	...

08003dfc <SystemInit>:
  *         configuration.
  * @param  None
  * @retval None
  */
void SystemInit(void)
{
 8003dfc:	b480      	push	{r7}
 8003dfe:	af00      	add	r7, sp, #0
  /* FPU settings ------------------------------------------------------------*/
  #if (__FPU_PRESENT == 1) && (__FPU_USED == 1)
    SCB->CPACR |= ((3UL << 10*2)|(3UL << 11*2));  /* set CP10 and CP11 Full Access */
 8003e00:	4b16      	ldr	r3, [pc, #88]	@ (8003e5c <SystemInit+0x60>)
 8003e02:	f8d3 3088 	ldr.w	r3, [r3, #136]	@ 0x88
 8003e06:	4a15      	ldr	r2, [pc, #84]	@ (8003e5c <SystemInit+0x60>)
 8003e08:	f443 0370 	orr.w	r3, r3, #15728640	@ 0xf00000
 8003e0c:	f8c2 3088 	str.w	r3, [r2, #136]	@ 0x88
  #endif
  /* Reset the RCC clock configuration to the default reset state ------------*/
  /* Set HSION bit */
  RCC->CR |= (uint32_t)0x00000001;
 8003e10:	4b13      	ldr	r3, [pc, #76]	@ (8003e60 <SystemInit+0x64>)
 8003e12:	681b      	ldr	r3, [r3, #0]
 8003e14:	4a12      	ldr	r2, [pc, #72]	@ (8003e60 <SystemInit+0x64>)
 8003e16:	f043 0301 	orr.w	r3, r3, #1
 8003e1a:	6013      	str	r3, [r2, #0]

  /* Reset CFGR register */
  RCC->CFGR = 0x00000000;
 8003e1c:	4b10      	ldr	r3, [pc, #64]	@ (8003e60 <SystemInit+0x64>)
 8003e1e:	2200      	movs	r2, #0
 8003e20:	609a      	str	r2, [r3, #8]

  /* Reset HSEON, CSSON and PLLON bits */
  RCC->CR &= (uint32_t)0xFEF6FFFF;
 8003e22:	4b0f      	ldr	r3, [pc, #60]	@ (8003e60 <SystemInit+0x64>)
 8003e24:	681b      	ldr	r3, [r3, #0]
 8003e26:	4a0e      	ldr	r2, [pc, #56]	@ (8003e60 <SystemInit+0x64>)
 8003e28:	f023 7384 	bic.w	r3, r3, #17301504	@ 0x1080000
 8003e2c:	f423 3380 	bic.w	r3, r3, #65536	@ 0x10000
 8003e30:	6013      	str	r3, [r2, #0]

  /* Reset PLLCFGR register */
  RCC->PLLCFGR = 0x24003010;
 8003e32:	4b0b      	ldr	r3, [pc, #44]	@ (8003e60 <SystemInit+0x64>)
 8003e34:	4a0b      	ldr	r2, [pc, #44]	@ (8003e64 <SystemInit+0x68>)
 8003e36:	605a      	str	r2, [r3, #4]

  /* Reset HSEBYP bit */
  RCC->CR &= (uint32_t)0xFFFBFFFF;
 8003e38:	4b09      	ldr	r3, [pc, #36]	@ (8003e60 <SystemInit+0x64>)
 8003e3a:	681b      	ldr	r3, [r3, #0]
 8003e3c:	4a08      	ldr	r2, [pc, #32]	@ (8003e60 <SystemInit+0x64>)
 8003e3e:	f423 2380 	bic.w	r3, r3, #262144	@ 0x40000
 8003e42:	6013      	str	r3, [r2, #0]

  /* Disable all interrupts */
  RCC->CIR = 0x00000000;
 8003e44:	4b06      	ldr	r3, [pc, #24]	@ (8003e60 <SystemInit+0x64>)
 8003e46:	2200      	movs	r2, #0
 8003e48:	60da      	str	r2, [r3, #12]

  /* Configure the Vector Table location add offset address ------------------*/
#ifdef VECT_TAB_SRAM
  SCB->VTOR = SRAM_BASE | VECT_TAB_OFFSET; /* Vector Table Relocation in Internal SRAM */
#else
  SCB->VTOR = FLASH_BASE | VECT_TAB_OFFSET; /* Vector Table Relocation in Internal FLASH */
 8003e4a:	4b04      	ldr	r3, [pc, #16]	@ (8003e5c <SystemInit+0x60>)
 8003e4c:	f04f 6200 	mov.w	r2, #134217728	@ 0x8000000
 8003e50:	609a      	str	r2, [r3, #8]
#endif
}
 8003e52:	bf00      	nop
 8003e54:	46bd      	mov	sp, r7
 8003e56:	f85d 7b04 	ldr.w	r7, [sp], #4
 8003e5a:	4770      	bx	lr
 8003e5c:	e000ed00 	.word	0xe000ed00
 8003e60:	40023800 	.word	0x40023800
 8003e64:	24003010 	.word	0x24003010

08003e68 <__libc_init_array>:
 8003e68:	b570      	push	{r4, r5, r6, lr}
 8003e6a:	4d0d      	ldr	r5, [pc, #52]	@ (8003ea0 <__libc_init_array+0x38>)
 8003e6c:	4c0d      	ldr	r4, [pc, #52]	@ (8003ea4 <__libc_init_array+0x3c>)
 8003e6e:	1b64      	subs	r4, r4, r5
 8003e70:	10a4      	asrs	r4, r4, #2
 8003e72:	2600      	movs	r6, #0
 8003e74:	42a6      	cmp	r6, r4
 8003e76:	d109      	bne.n	8003e8c <__libc_init_array+0x24>
 8003e78:	4d0b      	ldr	r5, [pc, #44]	@ (8003ea8 <__libc_init_array+0x40>)
 8003e7a:	4c0c      	ldr	r4, [pc, #48]	@ (8003eac <__libc_init_array+0x44>)
 8003e7c:	f000 f818 	bl	8003eb0 <_init>
 8003e80:	1b64      	subs	r4, r4, r5
 8003e82:	10a4      	asrs	r4, r4, #2
 8003e84:	2600      	movs	r6, #0
 8003e86:	42a6      	cmp	r6, r4
 8003e88:	d105      	bne.n	8003e96 <__libc_init_array+0x2e>
 8003e8a:	bd70      	pop	{r4, r5, r6, pc}
 8003e8c:	f855 3b04 	ldr.w	r3, [r5], #4
 8003e90:	4798      	blx	r3
 8003e92:	3601      	adds	r6, #1
 8003e94:	e7ee      	b.n	8003e74 <__libc_init_array+0xc>
 8003e96:	f855 3b04 	ldr.w	r3, [r5], #4
 8003e9a:	4798      	blx	r3
 8003e9c:	3601      	adds	r6, #1
 8003e9e:	e7f2      	b.n	8003e86 <__libc_init_array+0x1e>
 8003ea0:	08003f3c 	.word	0x08003f3c
 8003ea4:	08003f3c 	.word	0x08003f3c
 8003ea8:	08003f3c 	.word	0x08003f3c
 8003eac:	08003f40 	.word	0x08003f40

08003eb0 <_init>:
 8003eb0:	b5f8      	push	{r3, r4, r5, r6, r7, lr}
 8003eb2:	bf00      	nop
 8003eb4:	bcf8      	pop	{r3, r4, r5, r6, r7}
 8003eb6:	bc08      	pop	{r3}
 8003eb8:	469e      	mov	lr, r3
 8003eba:	4770      	bx	lr

08003ebc <_fini>:
 8003ebc:	b5f8      	push	{r3, r4, r5, r6, r7, lr}
 8003ebe:	bf00      	nop
 8003ec0:	bcf8      	pop	{r3, r4, r5, r6, r7}
 8003ec2:	bc08      	pop	{r3}
 8003ec4:	469e      	mov	lr, r3
 8003ec6:	4770      	bx	lr
